
H7_FskDecoder_CM4.elf:     file format elf32-littlearm

Sections:
Idx Name          Size      VMA       LMA       File off  Algn
  0 .isr_vector   00000298  080a0000  080a0000  00001000  2**0
                  CONTENTS, ALLOC, LOAD, READONLY, DATA
  1 .text         00005b40  080a0298  080a0298  00001298  2**2
                  CONTENTS, ALLOC, LOAD, READONLY, CODE
  2 .rodata       00000018  080a5dd8  080a5dd8  00006dd8  2**2
                  CONTENTS, ALLOC, LOAD, READONLY, DATA
  3 .init_array   00000004  080a5df0  080a5df0  00006df0  2**2
                  CONTENTS, ALLOC, LOAD, READONLY, DATA
  4 .fini_array   00000004  080a5df4  080a5df4  00006df4  2**2
                  CONTENTS, ALLOC, LOAD, READONLY, DATA
  5 .data         00000010  38000000  080a5df8  00007000  2**2
                  CONTENTS, ALLOC, LOAD, DATA
  6 .bss          00002658  38000010  080a5e08  00007010  2**2
                  ALLOC
  7 ._user_heap_stack 00000600  38002668  080a5e08  00007668  2**0
                  ALLOC
  8 .shared_ram   00000240  30047000  30047000  00008000  2**5
                  ALLOC
  9 .FskRemoteSection 00000000  30037000  30037000  00007010  2**0
                  CONTENTS
 10 .shared_stream_ram 00010000  30037000  30037000  00008000  2**5
                  ALLOC
 11 .ARM.attributes 00000030  00000000  00000000  00007010  2**0
                  CONTENTS, READONLY
 12 .debug_info   0001f3c6  00000000  00000000  00007040  2**0
                  CONTENTS, READONLY, DEBUGGING, OCTETS
 13 .debug_abbrev 00003a61  00000000  00000000  00026406  2**0
                  CONTENTS, READONLY, DEBUGGING, OCTETS
 14 .debug_loclists 0000f5d1  00000000  00000000  00029e67  2**0
                  CONTENTS, READONLY, DEBUGGING, OCTETS
 15 .debug_aranges 00001628  00000000  00000000  00039438  2**3
                  CONTENTS, READONLY, DEBUGGING, OCTETS
 16 .debug_rnglists 00001232  00000000  00000000  0003aa60  2**0
                  CONTENTS, READONLY, DEBUGGING, OCTETS
 17 .debug_macro  0003f23a  00000000  00000000  0003bc92  2**0
                  CONTENTS, READONLY, DEBUGGING, OCTETS
 18 .debug_line   00025a1c  00000000  00000000  0007aecc  2**0
                  CONTENTS, READONLY, DEBUGGING, OCTETS
 19 .debug_str    001a4640  00000000  00000000  000a08e8  2**0
                  CONTENTS, READONLY, DEBUGGING, OCTETS
 20 .comment      00000043  00000000  00000000  00244f28  2**0
                  CONTENTS, READONLY
 21 .debug_frame  00003a80  00000000  00000000  00244f6c  2**2
                  CONTENTS, READONLY, DEBUGGING, OCTETS
 22 .debug_line_str 0000005c  00000000  00000000  002489ec  2**0
                  CONTENTS, READONLY, DEBUGGING, OCTETS

Disassembly of section .text:

080a0298 <__do_global_dtors_aux>:
 80a0298:	b510      	push	{r4, lr}
 80a029a:	4c05      	ldr	r4, [pc, #20]	@ (80a02b0 <__do_global_dtors_aux+0x18>)
 80a029c:	7823      	ldrb	r3, [r4, #0]
 80a029e:	b933      	cbnz	r3, 80a02ae <__do_global_dtors_aux+0x16>
 80a02a0:	4b04      	ldr	r3, [pc, #16]	@ (80a02b4 <__do_global_dtors_aux+0x1c>)
 80a02a2:	b113      	cbz	r3, 80a02aa <__do_global_dtors_aux+0x12>
 80a02a4:	4804      	ldr	r0, [pc, #16]	@ (80a02b8 <__do_global_dtors_aux+0x20>)
 80a02a6:	f3af 8000 	nop.w
 80a02aa:	2301      	movs	r3, #1
 80a02ac:	7023      	strb	r3, [r4, #0]
 80a02ae:	bd10      	pop	{r4, pc}
 80a02b0:	38000010 	.word	0x38000010
 80a02b4:	00000000 	.word	0x00000000
 80a02b8:	080a5dc0 	.word	0x080a5dc0

080a02bc <frame_dummy>:
 80a02bc:	b508      	push	{r3, lr}
 80a02be:	4b03      	ldr	r3, [pc, #12]	@ (80a02cc <frame_dummy+0x10>)
 80a02c0:	b11b      	cbz	r3, 80a02ca <frame_dummy+0xe>
 80a02c2:	4903      	ldr	r1, [pc, #12]	@ (80a02d0 <frame_dummy+0x14>)
 80a02c4:	4803      	ldr	r0, [pc, #12]	@ (80a02d4 <frame_dummy+0x18>)
 80a02c6:	f3af 8000 	nop.w
 80a02ca:	bd08      	pop	{r3, pc}
 80a02cc:	00000000 	.word	0x00000000
 80a02d0:	38000014 	.word	0x38000014
 80a02d4:	080a5dc0 	.word	0x080a5dc0

080a02d8 <SystemInit>:
  */
void SystemInit (void)
{
  /* FPU settings ------------------------------------------------------------*/
  #if (__FPU_PRESENT == 1) && (__FPU_USED == 1)
    SCB->CPACR |= ((3UL << (10*2))|(3UL << (11*2)));  /* set CP10 and CP11 Full Access */
 80a02d8:	4b05      	ldr	r3, [pc, #20]	@ (80a02f0 <SystemInit+0x18>)
 80a02da:	f8d3 2088 	ldr.w	r2, [r3, #136]	@ 0x88
 80a02de:	f442 0270 	orr.w	r2, r2, #15728640	@ 0xf00000
 80a02e2:	f8c3 2088 	str.w	r2, [r3, #136]	@ 0x88
  #endif

    /*SEVONPEND enabled so that an interrupt coming from the CPU(n) interrupt signal is
     detectable by the CPU after a WFI/WFE instruction.*/
 SCB->SCR |= SCB_SCR_SEVONPEND_Msk;
 80a02e6:	691a      	ldr	r2, [r3, #16]
 80a02e8:	f042 0210 	orr.w	r2, r2, #16
 80a02ec:	611a      	str	r2, [r3, #16]
#endif /* USER_VECT_TAB_ADDRESS */

#else
#error Please #define CORE_CM4 or CORE_CM7
#endif /* CORE_CM4 */
}
 80a02ee:	4770      	bx	lr
 80a02f0:	e000ed00 	.word	0xe000ed00

080a02f4 <ExitRun0Mode>:
  /* Wait till voltage level flag is set */
  while ((PWR->CSR1 & PWR_CSR1_ACTVOSRDY) == 0U)
  {}
#elif defined(USE_PWR_DIRECT_SMPS_SUPPLY) && defined(SMPS)
  /* Exit Run* mode */
  PWR->CR3 &= ~(PWR_CR3_LDOEN);
 80a02f4:	4a05      	ldr	r2, [pc, #20]	@ (80a030c <ExitRun0Mode+0x18>)
 80a02f6:	68d3      	ldr	r3, [r2, #12]
 80a02f8:	f023 0302 	bic.w	r3, r3, #2
 80a02fc:	60d3      	str	r3, [r2, #12]
  /* Wait till voltage level flag is set */
  while ((PWR->CSR1 & PWR_CSR1_ACTVOSRDY) == 0U)
 80a02fe:	4b03      	ldr	r3, [pc, #12]	@ (80a030c <ExitRun0Mode+0x18>)
 80a0300:	685b      	ldr	r3, [r3, #4]
 80a0302:	f413 5f00 	tst.w	r3, #8192	@ 0x2000
 80a0306:	d0fa      	beq.n	80a02fe <ExitRun0Mode+0xa>
  while ((PWR->CSR1 & PWR_CSR1_ACTVOSRDY) == 0U)
  {}
#else
  /* No system power supply configuration is selected at exit Run* mode */
#endif /* USE_PWR_LDO_SUPPLY */
}
 80a0308:	4770      	bx	lr
 80a030a:	bf00      	nop
 80a030c:	58024800 	.word	0x58024800

080a0310 <MX_DMA_Init>:

/**
  * Enable DMA controller clock
  */
void MX_DMA_Init(void)
{
 80a0310:	b500      	push	{lr}
 80a0312:	b083      	sub	sp, #12

  /* DMA controller clock enable */
  __HAL_RCC_DMA1_CLK_ENABLE();
 80a0314:	4b13      	ldr	r3, [pc, #76]	@ (80a0364 <MX_DMA_Init+0x54>)
 80a0316:	f8d3 20d8 	ldr.w	r2, [r3, #216]	@ 0xd8
 80a031a:	f042 0201 	orr.w	r2, r2, #1
 80a031e:	f8c3 20d8 	str.w	r2, [r3, #216]	@ 0xd8
 80a0322:	f8d3 30d8 	ldr.w	r3, [r3, #216]	@ 0xd8
 80a0326:	f003 0301 	and.w	r3, r3, #1
 80a032a:	9301      	str	r3, [sp, #4]
 80a032c:	9b01      	ldr	r3, [sp, #4]

  /* DMA interrupt init */
  /* DMA1_Stream4_IRQn interrupt configuration */
  HAL_NVIC_SetPriority(DMA1_Stream4_IRQn, 0, 0);
 80a032e:	2200      	movs	r2, #0
 80a0330:	4611      	mov	r1, r2
 80a0332:	200f      	movs	r0, #15
 80a0334:	f001 fb78 	bl	80a1a28 <HAL_NVIC_SetPriority>
  HAL_NVIC_EnableIRQ(DMA1_Stream4_IRQn);
 80a0338:	200f      	movs	r0, #15
 80a033a:	f001 fb85 	bl	80a1a48 <HAL_NVIC_EnableIRQ>
  /* DMA1_Stream5_IRQn interrupt configuration */
  HAL_NVIC_SetPriority(DMA1_Stream5_IRQn, 0, 0);
 80a033e:	2200      	movs	r2, #0
 80a0340:	4611      	mov	r1, r2
 80a0342:	2010      	movs	r0, #16
 80a0344:	f001 fb70 	bl	80a1a28 <HAL_NVIC_SetPriority>
  HAL_NVIC_EnableIRQ(DMA1_Stream5_IRQn);
 80a0348:	2010      	movs	r0, #16
 80a034a:	f001 fb7d 	bl	80a1a48 <HAL_NVIC_EnableIRQ>
  /* DMA1_Stream6_IRQn interrupt configuration */
  HAL_NVIC_SetPriority(DMA1_Stream6_IRQn, 0, 0);
 80a034e:	2200      	movs	r2, #0
 80a0350:	4611      	mov	r1, r2
 80a0352:	2011      	movs	r0, #17
 80a0354:	f001 fb68 	bl	80a1a28 <HAL_NVIC_SetPriority>
  HAL_NVIC_EnableIRQ(DMA1_Stream6_IRQn);
 80a0358:	2011      	movs	r0, #17
 80a035a:	f001 fb75 	bl	80a1a48 <HAL_NVIC_EnableIRQ>

}
 80a035e:	b003      	add	sp, #12
 80a0360:	f85d fb04 	ldr.w	pc, [sp], #4
 80a0364:	58024400 	.word	0x58024400

080a0368 <moving_average_16>:
#endif
}


static inline uint32_t moving_average_16(uint32_t new_value)
{
 80a0368:	b470      	push	{r4, r5, r6}
    if (ma_filled < MA_WINDOW)
 80a036a:	4b19      	ldr	r3, [pc, #100]	@ (80a03d0 <moving_average_16+0x68>)
 80a036c:	781a      	ldrb	r2, [r3, #0]
 80a036e:	2a0f      	cmp	r2, #15
 80a0370:	d916      	bls.n	80a03a0 <moving_average_16+0x38>

        return ma_sum / ma_filled;   // ramp-up phase
    }

    /* subtract oldest */
    ma_sum -= ma_buffer[ma_index];
 80a0372:	4c18      	ldr	r4, [pc, #96]	@ (80a03d4 <moving_average_16+0x6c>)
 80a0374:	7822      	ldrb	r2, [r4, #0]
 80a0376:	4d18      	ldr	r5, [pc, #96]	@ (80a03d8 <moving_average_16+0x70>)
 80a0378:	4918      	ldr	r1, [pc, #96]	@ (80a03dc <moving_average_16+0x74>)
 80a037a:	680b      	ldr	r3, [r1, #0]
 80a037c:	f855 6022 	ldr.w	r6, [r5, r2, lsl #2]
 80a0380:	1b9b      	subs	r3, r3, r6
 80a0382:	600b      	str	r3, [r1, #0]

    /* insert newest */
    ma_buffer[ma_index] = new_value;
 80a0384:	f845 0022 	str.w	r0, [r5, r2, lsl #2]
    ma_sum += new_value;
 80a0388:	4418      	add	r0, r3
 80a038a:	6008      	str	r0, [r1, #0]

    ma_index++;
 80a038c:	3201      	adds	r2, #1
 80a038e:	b2d2      	uxtb	r2, r2
 80a0390:	7022      	strb	r2, [r4, #0]
    if (ma_index >= MA_WINDOW)
 80a0392:	2a0f      	cmp	r2, #15
 80a0394:	d901      	bls.n	80a039a <moving_average_16+0x32>
        ma_index = 0;
 80a0396:	2200      	movs	r2, #0
 80a0398:	7022      	strb	r2, [r4, #0]

    return (uint32_t)(ma_sum >> 4);   // divide by 16
 80a039a:	0900      	lsrs	r0, r0, #4
}
 80a039c:	bc70      	pop	{r4, r5, r6}
 80a039e:	4770      	bx	lr
        ma_buffer[ma_index++] = new_value;
 80a03a0:	4c0c      	ldr	r4, [pc, #48]	@ (80a03d4 <moving_average_16+0x6c>)
 80a03a2:	7823      	ldrb	r3, [r4, #0]
 80a03a4:	1c59      	adds	r1, r3, #1
 80a03a6:	b2c9      	uxtb	r1, r1
 80a03a8:	7021      	strb	r1, [r4, #0]
 80a03aa:	4c0b      	ldr	r4, [pc, #44]	@ (80a03d8 <moving_average_16+0x70>)
 80a03ac:	f844 0023 	str.w	r0, [r4, r3, lsl #2]
        ma_sum += new_value;
 80a03b0:	4c0a      	ldr	r4, [pc, #40]	@ (80a03dc <moving_average_16+0x74>)
 80a03b2:	6823      	ldr	r3, [r4, #0]
 80a03b4:	4418      	add	r0, r3
 80a03b6:	6020      	str	r0, [r4, #0]
        ma_filled++;
 80a03b8:	3201      	adds	r2, #1
 80a03ba:	b2d2      	uxtb	r2, r2
 80a03bc:	4b04      	ldr	r3, [pc, #16]	@ (80a03d0 <moving_average_16+0x68>)
 80a03be:	701a      	strb	r2, [r3, #0]
        if (ma_index >= MA_WINDOW)
 80a03c0:	290f      	cmp	r1, #15
 80a03c2:	d902      	bls.n	80a03ca <moving_average_16+0x62>
            ma_index = 0;
 80a03c4:	4b03      	ldr	r3, [pc, #12]	@ (80a03d4 <moving_average_16+0x6c>)
 80a03c6:	2100      	movs	r1, #0
 80a03c8:	7019      	strb	r1, [r3, #0]
        return ma_sum / ma_filled;   // ramp-up phase
 80a03ca:	fbb0 f0f2 	udiv	r0, r0, r2
 80a03ce:	e7e5      	b.n	80a039c <moving_average_16+0x34>
 80a03d0:	380001ac 	.word	0x380001ac
 80a03d4:	380001ad 	.word	0x380001ad
 80a03d8:	380001b4 	.word	0x380001b4
 80a03dc:	380001b0 	.word	0x380001b0

080a03e0 <delayed_diff>:

static inline int32_t delayed_diff(uint32_t new_ma)
{
 80a03e0:	b410      	push	{r4}
    int32_t old_ma = 0;

    if (delay_filled < DELAY)
 80a03e2:	4b14      	ldr	r3, [pc, #80]	@ (80a0434 <delayed_diff+0x54>)
 80a03e4:	781b      	ldrb	r3, [r3, #0]
 80a03e6:	2b17      	cmp	r3, #23
 80a03e8:	d912      	bls.n	80a0410 <delayed_diff+0x30>
            delay_index = 0;

        return 0;   // not enough data yet
    }

    old_ma = ma_delay_buffer[delay_index];
 80a03ea:	4a13      	ldr	r2, [pc, #76]	@ (80a0438 <delayed_diff+0x58>)
 80a03ec:	7813      	ldrb	r3, [r2, #0]
 80a03ee:	4913      	ldr	r1, [pc, #76]	@ (80a043c <delayed_diff+0x5c>)
 80a03f0:	f851 4023 	ldr.w	r4, [r1, r3, lsl #2]

    ma_delay_buffer[delay_index] = new_ma;
 80a03f4:	f841 0023 	str.w	r0, [r1, r3, lsl #2]

    delay_index++;
 80a03f8:	3301      	adds	r3, #1
 80a03fa:	b2db      	uxtb	r3, r3
 80a03fc:	7013      	strb	r3, [r2, #0]
    if (delay_index >= DELAY)
 80a03fe:	2b17      	cmp	r3, #23
 80a0400:	d902      	bls.n	80a0408 <delayed_diff+0x28>
        delay_index = 0;
 80a0402:	4613      	mov	r3, r2
 80a0404:	2200      	movs	r2, #0
 80a0406:	701a      	strb	r2, [r3, #0]

    return (new_ma - old_ma);	//signed difference
 80a0408:	1b00      	subs	r0, r0, r4
}
 80a040a:	f85d 4b04 	ldr.w	r4, [sp], #4
 80a040e:	4770      	bx	lr
        ma_delay_buffer[delay_index++] = new_ma;
 80a0410:	4c09      	ldr	r4, [pc, #36]	@ (80a0438 <delayed_diff+0x58>)
 80a0412:	7821      	ldrb	r1, [r4, #0]
 80a0414:	1c4a      	adds	r2, r1, #1
 80a0416:	b2d2      	uxtb	r2, r2
 80a0418:	7022      	strb	r2, [r4, #0]
 80a041a:	4c08      	ldr	r4, [pc, #32]	@ (80a043c <delayed_diff+0x5c>)
 80a041c:	f844 0021 	str.w	r0, [r4, r1, lsl #2]
        delay_filled++;
 80a0420:	3301      	adds	r3, #1
 80a0422:	4904      	ldr	r1, [pc, #16]	@ (80a0434 <delayed_diff+0x54>)
 80a0424:	700b      	strb	r3, [r1, #0]
        if (delay_index >= DELAY)
 80a0426:	2a17      	cmp	r2, #23
 80a0428:	d902      	bls.n	80a0430 <delayed_diff+0x50>
            delay_index = 0;
 80a042a:	4b03      	ldr	r3, [pc, #12]	@ (80a0438 <delayed_diff+0x58>)
 80a042c:	2200      	movs	r2, #0
 80a042e:	701a      	strb	r2, [r3, #0]
        return 0;   // not enough data yet
 80a0430:	2000      	movs	r0, #0
 80a0432:	e7ea      	b.n	80a040a <delayed_diff+0x2a>
 80a0434:	38000148 	.word	0x38000148
 80a0438:	38000149 	.word	0x38000149
 80a043c:	3800014c 	.word	0x3800014c

080a0440 <fsk_decoder_is_frame_ready>:
 *
 * @return 1U if process_frame() should be called.
 */
static uint8_t fsk_decoder_is_frame_ready(void)
{
    if (decoder.bit_count == FSK_RESPONSE_PATTERN_BITS)
 80a0440:	4b05      	ldr	r3, [pc, #20]	@ (80a0458 <fsk_decoder_is_frame_ready+0x18>)
 80a0442:	885b      	ldrh	r3, [r3, #2]
 80a0444:	2b08      	cmp	r3, #8
 80a0446:	d002      	beq.n	80a044e <fsk_decoder_is_frame_ready+0xe>
    {
        return 1U;
    }

    if (decoder.bit_count > FSK_RESPONSE_PATTERN_BITS)
 80a0448:	d803      	bhi.n	80a0452 <fsk_decoder_is_frame_ready+0x12>
        {
            return 1U;
        }
    }

    return 0U;
 80a044a:	2000      	movs	r0, #0
 80a044c:	4770      	bx	lr
        return 1U;
 80a044e:	2001      	movs	r0, #1
 80a0450:	4770      	bx	lr
            return 1U;
 80a0452:	2001      	movs	r0, #1
}
 80a0454:	4770      	bx	lr
 80a0456:	bf00      	nop
 80a0458:	38000040 	.word	0x38000040

080a045c <fsk_decoder_reset_collection_state>:
 * This does not reset the moving average, delayed-difference history,
 * or HRTIM timestamp tracking. It only ends the current packet/frame.
 */
static void fsk_decoder_reset_collection_state(void)
{
    decoder.state = RX_IDLE;
 80a045c:	4a05      	ldr	r2, [pc, #20]	@ (80a0474 <fsk_decoder_reset_collection_state+0x18>)
 80a045e:	2300      	movs	r3, #0
 80a0460:	7013      	strb	r3, [r2, #0]
    decoder.bit_count = 0U;
 80a0462:	8053      	strh	r3, [r2, #2]
    decoder.half_pending = 0U;
 80a0464:	7053      	strb	r3, [r2, #1]

    active = 0;
 80a0466:	4a04      	ldr	r2, [pc, #16]	@ (80a0478 <fsk_decoder_reset_collection_state+0x1c>)
 80a0468:	7013      	strb	r3, [r2, #0]
    last_sign = 0;
 80a046a:	4a04      	ldr	r2, [pc, #16]	@ (80a047c <fsk_decoder_reset_collection_state+0x20>)
 80a046c:	7013      	strb	r3, [r2, #0]
    period_counter = 0U;
 80a046e:	4a04      	ldr	r2, [pc, #16]	@ (80a0480 <fsk_decoder_reset_collection_state+0x24>)
 80a0470:	8013      	strh	r3, [r2, #0]
}
 80a0472:	4770      	bx	lr
 80a0474:	38000040 	.word	0x38000040
 80a0478:	38000147 	.word	0x38000147
 80a047c:	38000146 	.word	0x38000146
 80a0480:	38000144 	.word	0x38000144

080a0484 <classify_symbol>:
    if (decoder.bit_count < sizeof(decoder.bit_stream))
        decoder.bit_stream[decoder.bit_count++] = bit;
}

static inline symbol_t classify_symbol(uint32_t count)
{
 80a0484:	b500      	push	{lr}
 80a0486:	2100      	movs	r1, #0
 80a0488:	468c      	mov	ip, r1
 *
 * @return Active idle target count.
 */
static inline uint16_t fsk_decoder_get_idle_target(void)
{
    if (fsk_limit_mode == FSK_LIMIT_128)
 80a048a:	4b22      	ldr	r3, [pc, #136]	@ (80a0514 <classify_symbol+0x90>)
 80a048c:	781b      	ldrb	r3, [r3, #0]
 80a048e:	2b01      	cmp	r3, #1
 80a0490:	d008      	beq.n	80a04a4 <classify_symbol+0x20>
    }

    /*
     * Default/fallback is response-phase timing.
     */
    return IDLE_TARGET_512;
 80a0492:	f44f 6280 	mov.w	r2, #1024	@ 0x400
    if (fsk_limit_mode == FSK_LIMIT_512)
 80a0496:	b143      	cbz	r3, 80a04aa <classify_symbol+0x26>
    else if(fsk_limit_mode == FSK_LIMIT_128)
 80a0498:	2b01      	cmp	r3, #1
 80a049a:	d10a      	bne.n	80a04b2 <classify_symbol+0x2e>
        bit0_target  = BIT0_TARGET_128;
 80a049c:	f04f 0c80 	mov.w	ip, #128	@ 0x80
        bit1_target  = BIT1_TARGET_128;
 80a04a0:	2140      	movs	r1, #64	@ 0x40
 80a04a2:	e006      	b.n	80a04b2 <classify_symbol+0x2e>
        return IDLE_TARGET_128;
 80a04a4:	f44f 7200 	mov.w	r2, #512	@ 0x200
 80a04a8:	e7f5      	b.n	80a0496 <classify_symbol+0x12>
        bit0_target  = BIT0_TARGET_512;
 80a04aa:	f44f 7c00 	mov.w	ip, #512	@ 0x200
        bit1_target  = BIT1_TARGET_512;
 80a04ae:	f44f 7180 	mov.w	r1, #256	@ 0x100
    if (WITHIN(count, bit1_target))
 80a04b2:	4b19      	ldr	r3, [pc, #100]	@ (80a0518 <classify_symbol+0x94>)
 80a04b4:	fb83 e301 	smull	lr, r3, r3, r1
 80a04b8:	105b      	asrs	r3, r3, #1
 80a04ba:	f1c3 0e00 	rsb	lr, r3, #0
 80a04be:	1acb      	subs	r3, r1, r3
 80a04c0:	4283      	cmp	r3, r0
 80a04c2:	d203      	bcs.n	80a04cc <classify_symbol+0x48>
 80a04c4:	eba1 010e 	sub.w	r1, r1, lr
 80a04c8:	4281      	cmp	r1, r0
 80a04ca:	d81a      	bhi.n	80a0502 <classify_symbol+0x7e>
    if (WITHIN(count, bit0_target))
 80a04cc:	4b12      	ldr	r3, [pc, #72]	@ (80a0518 <classify_symbol+0x94>)
 80a04ce:	fb83 130c 	smull	r1, r3, r3, ip
 80a04d2:	105b      	asrs	r3, r3, #1
 80a04d4:	4259      	negs	r1, r3
 80a04d6:	ebac 0303 	sub.w	r3, ip, r3
 80a04da:	4283      	cmp	r3, r0
 80a04dc:	d203      	bcs.n	80a04e6 <classify_symbol+0x62>
 80a04de:	ebac 0c01 	sub.w	ip, ip, r1
 80a04e2:	4584      	cmp	ip, r0
 80a04e4:	d80f      	bhi.n	80a0506 <classify_symbol+0x82>
    if (WITHIN(count, idle_target))
 80a04e6:	4b0c      	ldr	r3, [pc, #48]	@ (80a0518 <classify_symbol+0x94>)
 80a04e8:	fb83 1302 	smull	r1, r3, r3, r2
 80a04ec:	105b      	asrs	r3, r3, #1
 80a04ee:	4259      	negs	r1, r3
 80a04f0:	1ad3      	subs	r3, r2, r3
 80a04f2:	4283      	cmp	r3, r0
 80a04f4:	d209      	bcs.n	80a050a <classify_symbol+0x86>
 80a04f6:	1a52      	subs	r2, r2, r1
 80a04f8:	4282      	cmp	r2, r0
 80a04fa:	d808      	bhi.n	80a050e <classify_symbol+0x8a>
    return SYMBOL_INVALID;
 80a04fc:	2004      	movs	r0, #4
}
 80a04fe:	f85d fb04 	ldr.w	pc, [sp], #4
        return SYMBOL_HALF;
 80a0502:	2001      	movs	r0, #1
 80a0504:	e7fb      	b.n	80a04fe <classify_symbol+0x7a>
    	return SYMBOL_FULL;
 80a0506:	2002      	movs	r0, #2
 80a0508:	e7f9      	b.n	80a04fe <classify_symbol+0x7a>
    return SYMBOL_INVALID;
 80a050a:	2004      	movs	r0, #4
 80a050c:	e7f7      	b.n	80a04fe <classify_symbol+0x7a>
    	return SYMBOL_IDLE;
 80a050e:	2003      	movs	r0, #3
 80a0510:	e7f5      	b.n	80a04fe <classify_symbol+0x7a>
 80a0512:	bf00      	nop
 80a0514:	38000038 	.word	0x38000038
 80a0518:	66666667 	.word	0x66666667

080a051c <fsk_decoder_report_mpp_preamble_error>:
 * This function is called only when MPP preamble validation failed during
 * final packet processing.
 */
static void fsk_decoder_report_mpp_preamble_error(void)
{
    uint16_t i = 0U;
 80a051c:	2300      	movs	r3, #0

    while ((i < decoder.bit_count) && (decoder.bit_stream[i] == 1U))
 80a051e:	4a1f      	ldr	r2, [pc, #124]	@ (80a059c <fsk_decoder_report_mpp_preamble_error+0x80>)
 80a0520:	8851      	ldrh	r1, [r2, #2]
 80a0522:	4299      	cmp	r1, r3
 80a0524:	d912      	bls.n	80a054c <fsk_decoder_report_mpp_preamble_error+0x30>
 80a0526:	441a      	add	r2, r3
 80a0528:	7912      	ldrb	r2, [r2, #4]
 80a052a:	2a01      	cmp	r2, #1
 80a052c:	d10e      	bne.n	80a054c <fsk_decoder_report_mpp_preamble_error+0x30>
    {
        i++;
 80a052e:	3301      	adds	r3, #1
 80a0530:	b29b      	uxth	r3, r3

        if (i > FSK_MPP_PREAMBLE_MAX_BITS)
 80a0532:	2b05      	cmp	r3, #5
 80a0534:	d9f3      	bls.n	80a051e <fsk_decoder_report_mpp_preamble_error+0x2>
        {
            g_fsk_preamble_error_count++;
 80a0536:	491a      	ldr	r1, [pc, #104]	@ (80a05a0 <fsk_decoder_report_mpp_preamble_error+0x84>)
 80a0538:	680a      	ldr	r2, [r1, #0]
 80a053a:	3201      	adds	r2, #1
 80a053c:	600a      	str	r2, [r1, #0]
            g_fsk_last_preamble_bits  = (uint8_t)i;
 80a053e:	b2db      	uxtb	r3, r3
 80a0540:	4a18      	ldr	r2, [pc, #96]	@ (80a05a4 <fsk_decoder_report_mpp_preamble_error+0x88>)
 80a0542:	7013      	strb	r3, [r2, #0]
            g_fsk_last_preamble_error = FSK_PREAMBLE_ERROR_TOO_LONG;
 80a0544:	4b18      	ldr	r3, [pc, #96]	@ (80a05a8 <fsk_decoder_report_mpp_preamble_error+0x8c>)
 80a0546:	2202      	movs	r2, #2
 80a0548:	701a      	strb	r2, [r3, #0]
            return;
 80a054a:	4770      	bx	lr
        }
    }

    g_fsk_last_preamble_bits = (uint8_t)i;
 80a054c:	b2da      	uxtb	r2, r3
 80a054e:	4815      	ldr	r0, [pc, #84]	@ (80a05a4 <fsk_decoder_report_mpp_preamble_error+0x88>)
 80a0550:	7002      	strb	r2, [r0, #0]

    if (i < FSK_MPP_PREAMBLE_MIN_BITS)
 80a0552:	2b02      	cmp	r3, #2
 80a0554:	d909      	bls.n	80a056a <fsk_decoder_report_mpp_preamble_error+0x4e>
        g_fsk_preamble_error_count++;
        g_fsk_last_preamble_error = FSK_PREAMBLE_ERROR_TOO_SHORT;
        return;
    }

    if (i >= decoder.bit_count)
 80a0556:	4299      	cmp	r1, r3
 80a0558:	d90f      	bls.n	80a057a <fsk_decoder_report_mpp_preamble_error+0x5e>
        g_fsk_preamble_error_count++;
        g_fsk_last_preamble_error = FSK_PREAMBLE_ERROR_NO_START_BIT;
        return;
    }

    if (decoder.bit_stream[i] != 0U)
 80a055a:	4a10      	ldr	r2, [pc, #64]	@ (80a059c <fsk_decoder_report_mpp_preamble_error+0x80>)
 80a055c:	4413      	add	r3, r2
 80a055e:	791b      	ldrb	r3, [r3, #4]
 80a0560:	b99b      	cbnz	r3, 80a058a <fsk_decoder_report_mpp_preamble_error+0x6e>

    /**
     * Should normally not reach here because caller invokes this only after
     * validation failure.
     */
    g_fsk_last_preamble_error = FSK_PREAMBLE_ERROR_NONE;
 80a0562:	4b11      	ldr	r3, [pc, #68]	@ (80a05a8 <fsk_decoder_report_mpp_preamble_error+0x8c>)
 80a0564:	2200      	movs	r2, #0
 80a0566:	701a      	strb	r2, [r3, #0]
}
 80a0568:	4770      	bx	lr
        g_fsk_preamble_error_count++;
 80a056a:	4a0d      	ldr	r2, [pc, #52]	@ (80a05a0 <fsk_decoder_report_mpp_preamble_error+0x84>)
 80a056c:	6813      	ldr	r3, [r2, #0]
 80a056e:	3301      	adds	r3, #1
 80a0570:	6013      	str	r3, [r2, #0]
        g_fsk_last_preamble_error = FSK_PREAMBLE_ERROR_TOO_SHORT;
 80a0572:	4b0d      	ldr	r3, [pc, #52]	@ (80a05a8 <fsk_decoder_report_mpp_preamble_error+0x8c>)
 80a0574:	2201      	movs	r2, #1
 80a0576:	701a      	strb	r2, [r3, #0]
        return;
 80a0578:	4770      	bx	lr
        g_fsk_preamble_error_count++;
 80a057a:	4a09      	ldr	r2, [pc, #36]	@ (80a05a0 <fsk_decoder_report_mpp_preamble_error+0x84>)
 80a057c:	6813      	ldr	r3, [r2, #0]
 80a057e:	3301      	adds	r3, #1
 80a0580:	6013      	str	r3, [r2, #0]
        g_fsk_last_preamble_error = FSK_PREAMBLE_ERROR_NO_START_BIT;
 80a0582:	4b09      	ldr	r3, [pc, #36]	@ (80a05a8 <fsk_decoder_report_mpp_preamble_error+0x8c>)
 80a0584:	2203      	movs	r2, #3
 80a0586:	701a      	strb	r2, [r3, #0]
        return;
 80a0588:	4770      	bx	lr
        g_fsk_preamble_error_count++;
 80a058a:	4a05      	ldr	r2, [pc, #20]	@ (80a05a0 <fsk_decoder_report_mpp_preamble_error+0x84>)
 80a058c:	6813      	ldr	r3, [r2, #0]
 80a058e:	3301      	adds	r3, #1
 80a0590:	6013      	str	r3, [r2, #0]
        g_fsk_last_preamble_error = FSK_PREAMBLE_ERROR_NO_START_BIT;
 80a0592:	4b05      	ldr	r3, [pc, #20]	@ (80a05a8 <fsk_decoder_report_mpp_preamble_error+0x8c>)
 80a0594:	2203      	movs	r2, #3
 80a0596:	701a      	strb	r2, [r3, #0]
        return;
 80a0598:	4770      	bx	lr
 80a059a:	bf00      	nop
 80a059c:	38000040 	.word	0x38000040
 80a05a0:	38000034 	.word	0x38000034
 80a05a4:	38000031 	.word	0x38000031
 80a05a8:	38000030 	.word	0x38000030

080a05ac <fsk_decoder_find_mpp_start_index>:
 */
static uint8_t fsk_decoder_find_mpp_start_index(uint16_t *start_index)
{
    uint16_t i = 0U;

    if (start_index == NULL)
 80a05ac:	4684      	mov	ip, r0
 80a05ae:	b1d8      	cbz	r0, 80a05e8 <fsk_decoder_find_mpp_start_index+0x3c>
    {
        return 0U;
    }

    *start_index = 0U;
 80a05b0:	2300      	movs	r3, #0
 80a05b2:	8003      	strh	r3, [r0, #0]

    while ((i < decoder.bit_count) && (decoder.bit_stream[i] == 1U))
 80a05b4:	4a10      	ldr	r2, [pc, #64]	@ (80a05f8 <fsk_decoder_find_mpp_start_index+0x4c>)
 80a05b6:	8851      	ldrh	r1, [r2, #2]
 80a05b8:	4299      	cmp	r1, r3
 80a05ba:	d909      	bls.n	80a05d0 <fsk_decoder_find_mpp_start_index+0x24>
 80a05bc:	441a      	add	r2, r3
 80a05be:	7912      	ldrb	r2, [r2, #4]
 80a05c0:	2a01      	cmp	r2, #1
 80a05c2:	d105      	bne.n	80a05d0 <fsk_decoder_find_mpp_start_index+0x24>
    {
        i++;
 80a05c4:	3301      	adds	r3, #1
 80a05c6:	b29b      	uxth	r3, r3

        if (i > FSK_MPP_PREAMBLE_MAX_BITS)
 80a05c8:	2b05      	cmp	r3, #5
 80a05ca:	d9f3      	bls.n	80a05b4 <fsk_decoder_find_mpp_start_index+0x8>
        {
            return 0U;
 80a05cc:	2000      	movs	r0, #0
 80a05ce:	4770      	bx	lr
        }
    }

    if (i < FSK_MPP_PREAMBLE_MIN_BITS)
 80a05d0:	2b02      	cmp	r3, #2
 80a05d2:	d90b      	bls.n	80a05ec <fsk_decoder_find_mpp_start_index+0x40>
    {
        return 0U;
    }

    if (i >= decoder.bit_count)
 80a05d4:	4299      	cmp	r1, r3
 80a05d6:	d90b      	bls.n	80a05f0 <fsk_decoder_find_mpp_start_index+0x44>
    {
        return 0U;
    }

    if (decoder.bit_stream[i] != 0U)
 80a05d8:	4a07      	ldr	r2, [pc, #28]	@ (80a05f8 <fsk_decoder_find_mpp_start_index+0x4c>)
 80a05da:	441a      	add	r2, r3
 80a05dc:	7912      	ldrb	r2, [r2, #4]
 80a05de:	b94a      	cbnz	r2, 80a05f4 <fsk_decoder_find_mpp_start_index+0x48>
    {
        return 0U;
    }

    *start_index = i;
 80a05e0:	f8ac 3000 	strh.w	r3, [ip]
    return 1U;
 80a05e4:	2001      	movs	r0, #1
 80a05e6:	4770      	bx	lr
        return 0U;
 80a05e8:	2000      	movs	r0, #0
 80a05ea:	4770      	bx	lr
        return 0U;
 80a05ec:	2000      	movs	r0, #0
 80a05ee:	4770      	bx	lr
        return 0U;
 80a05f0:	2000      	movs	r0, #0
 80a05f2:	4770      	bx	lr
        return 0U;
 80a05f4:	2000      	movs	r0, #0
}
 80a05f6:	4770      	bx	lr
 80a05f8:	38000040 	.word	0x38000040

080a05fc <fsk_decoder_try_complete_tail_on_idle>:
{
 80a05fc:	b510      	push	{r4, lr}
 80a05fe:	b082      	sub	sp, #8
    if (decoder.state != RX_COLLECT_BITS)
 80a0600:	4b29      	ldr	r3, [pc, #164]	@ (80a06a8 <fsk_decoder_try_complete_tail_on_idle+0xac>)
 80a0602:	781c      	ldrb	r4, [r3, #0]
 80a0604:	2c01      	cmp	r4, #1
 80a0606:	d148      	bne.n	80a069a <fsk_decoder_try_complete_tail_on_idle+0x9e>
    if (decoder.bit_count == (FSK_RESPONSE_PATTERN_BITS - 1U))
 80a0608:	885b      	ldrh	r3, [r3, #2]
 80a060a:	2b07      	cmp	r3, #7
 80a060c:	d01d      	beq.n	80a064a <fsk_decoder_try_complete_tail_on_idle+0x4e>
    if (decoder.bit_count > FSK_RESPONSE_PATTERN_BITS)
 80a060e:	2b08      	cmp	r3, #8
 80a0610:	d947      	bls.n	80a06a2 <fsk_decoder_try_complete_tail_on_idle+0xa6>
            uint16_t start_index = 0U;
 80a0612:	2300      	movs	r3, #0
 80a0614:	f8ad 3006 	strh.w	r3, [sp, #6]
            if (fsk_decoder_find_mpp_start_index(&start_index) == 0U)
 80a0618:	f10d 0006 	add.w	r0, sp, #6
 80a061c:	f7ff ffc6 	bl	80a05ac <fsk_decoder_find_mpp_start_index>
 80a0620:	b358      	cbz	r0, 80a067a <fsk_decoder_try_complete_tail_on_idle+0x7e>
            data_bit_count = decoder.bit_count - start_index;
 80a0622:	4b21      	ldr	r3, [pc, #132]	@ (80a06a8 <fsk_decoder_try_complete_tail_on_idle+0xac>)
 80a0624:	885b      	ldrh	r3, [r3, #2]
 80a0626:	f8bd 2006 	ldrh.w	r2, [sp, #6]
 80a062a:	1a9b      	subs	r3, r3, r2
 80a062c:	b29b      	uxth	r3, r3
        bit_pos = data_bit_count % FSK_DATA_FRAME_BITS;
 80a062e:	4a1f      	ldr	r2, [pc, #124]	@ (80a06ac <fsk_decoder_try_complete_tail_on_idle+0xb0>)
 80a0630:	fba2 1203 	umull	r1, r2, r2, r3
 80a0634:	08d2      	lsrs	r2, r2, #3
 80a0636:	eb02 0182 	add.w	r1, r2, r2, lsl #2
 80a063a:	eb02 0241 	add.w	r2, r2, r1, lsl #1
 80a063e:	1a9b      	subs	r3, r3, r2
 80a0640:	b29b      	uxth	r3, r3
        if (bit_pos == FSK_DATA_STOP_BIT_INDEX)
 80a0642:	2b0a      	cmp	r3, #10
 80a0644:	d01b      	beq.n	80a067e <fsk_decoder_try_complete_tail_on_idle+0x82>
    return 0U;
 80a0646:	2400      	movs	r4, #0
 80a0648:	e028      	b.n	80a069c <fsk_decoder_try_complete_tail_on_idle+0xa0>
        if (decoder.half_pending != 0U)
 80a064a:	4a17      	ldr	r2, [pc, #92]	@ (80a06a8 <fsk_decoder_try_complete_tail_on_idle+0xac>)
 80a064c:	7852      	ldrb	r2, [r2, #1]
 80a064e:	b15a      	cbz	r2, 80a0668 <fsk_decoder_try_complete_tail_on_idle+0x6c>
    if (decoder.bit_count < sizeof(decoder.bit_stream))
 80a0650:	2bff      	cmp	r3, #255	@ 0xff
 80a0652:	d805      	bhi.n	80a0660 <fsk_decoder_try_complete_tail_on_idle+0x64>
        decoder.bit_stream[decoder.bit_count++] = bit;
 80a0654:	4a14      	ldr	r2, [pc, #80]	@ (80a06a8 <fsk_decoder_try_complete_tail_on_idle+0xac>)
 80a0656:	1c59      	adds	r1, r3, #1
 80a0658:	8051      	strh	r1, [r2, #2]
 80a065a:	441a      	add	r2, r3
 80a065c:	2301      	movs	r3, #1
 80a065e:	7113      	strb	r3, [r2, #4]
            decoder.half_pending = 0U;
 80a0660:	4b11      	ldr	r3, [pc, #68]	@ (80a06a8 <fsk_decoder_try_complete_tail_on_idle+0xac>)
 80a0662:	2200      	movs	r2, #0
 80a0664:	705a      	strb	r2, [r3, #1]
 80a0666:	e019      	b.n	80a069c <fsk_decoder_try_complete_tail_on_idle+0xa0>
    if (decoder.bit_count < sizeof(decoder.bit_stream))
 80a0668:	2bff      	cmp	r3, #255	@ 0xff
 80a066a:	d817      	bhi.n	80a069c <fsk_decoder_try_complete_tail_on_idle+0xa0>
        decoder.bit_stream[decoder.bit_count++] = bit;
 80a066c:	4a0e      	ldr	r2, [pc, #56]	@ (80a06a8 <fsk_decoder_try_complete_tail_on_idle+0xac>)
 80a066e:	1c59      	adds	r1, r3, #1
 80a0670:	8051      	strh	r1, [r2, #2]
 80a0672:	441a      	add	r2, r3
 80a0674:	2300      	movs	r3, #0
 80a0676:	7113      	strb	r3, [r2, #4]
        return 1U;
 80a0678:	e010      	b.n	80a069c <fsk_decoder_try_complete_tail_on_idle+0xa0>
                return 0U;
 80a067a:	4604      	mov	r4, r0
 80a067c:	e00e      	b.n	80a069c <fsk_decoder_try_complete_tail_on_idle+0xa0>
    if (decoder.bit_count < sizeof(decoder.bit_stream))
 80a067e:	4b0a      	ldr	r3, [pc, #40]	@ (80a06a8 <fsk_decoder_try_complete_tail_on_idle+0xac>)
 80a0680:	885b      	ldrh	r3, [r3, #2]
 80a0682:	2bff      	cmp	r3, #255	@ 0xff
 80a0684:	d805      	bhi.n	80a0692 <fsk_decoder_try_complete_tail_on_idle+0x96>
        decoder.bit_stream[decoder.bit_count++] = bit;
 80a0686:	4a08      	ldr	r2, [pc, #32]	@ (80a06a8 <fsk_decoder_try_complete_tail_on_idle+0xac>)
 80a0688:	1c59      	adds	r1, r3, #1
 80a068a:	8051      	strh	r1, [r2, #2]
 80a068c:	441a      	add	r2, r3
 80a068e:	2301      	movs	r3, #1
 80a0690:	7113      	strb	r3, [r2, #4]
            decoder.half_pending = 0U;
 80a0692:	4b05      	ldr	r3, [pc, #20]	@ (80a06a8 <fsk_decoder_try_complete_tail_on_idle+0xac>)
 80a0694:	2200      	movs	r2, #0
 80a0696:	705a      	strb	r2, [r3, #1]
            return 1U;
 80a0698:	e000      	b.n	80a069c <fsk_decoder_try_complete_tail_on_idle+0xa0>
        return 0U;
 80a069a:	2400      	movs	r4, #0
}
 80a069c:	4620      	mov	r0, r4
 80a069e:	b002      	add	sp, #8
 80a06a0:	bd10      	pop	{r4, pc}
    return 0U;
 80a06a2:	2400      	movs	r4, #0
 80a06a4:	e7fa      	b.n	80a069c <fsk_decoder_try_complete_tail_on_idle+0xa0>
 80a06a6:	bf00      	nop
 80a06a8:	38000040 	.word	0x38000040
 80a06ac:	ba2e8ba3 	.word	0xba2e8ba3

080a06b0 <fsk_decoder_strip_mpp_preamble>:
{
 80a06b0:	b510      	push	{r4, lr}
 80a06b2:	b082      	sub	sp, #8
    uint16_t start_index = 0U;
 80a06b4:	2300      	movs	r3, #0
 80a06b6:	f8ad 3006 	strh.w	r3, [sp, #6]
    if (fsk_decoder_find_mpp_start_index(&start_index) == 0U)
 80a06ba:	f10d 0006 	add.w	r0, sp, #6
 80a06be:	f7ff ff75 	bl	80a05ac <fsk_decoder_find_mpp_start_index>
 80a06c2:	b178      	cbz	r0, 80a06e4 <fsk_decoder_strip_mpp_preamble+0x34>
    g_fsk_last_preamble_bits  = (uint8_t)start_index;
 80a06c4:	f8bd e006 	ldrh.w	lr, [sp, #6]
 80a06c8:	fa5f f28e 	uxtb.w	r2, lr
 80a06cc:	4b15      	ldr	r3, [pc, #84]	@ (80a0724 <fsk_decoder_strip_mpp_preamble+0x74>)
 80a06ce:	701a      	strb	r2, [r3, #0]
    g_fsk_last_preamble_error = FSK_PREAMBLE_ERROR_NONE;
 80a06d0:	2300      	movs	r3, #0
 80a06d2:	4a15      	ldr	r2, [pc, #84]	@ (80a0728 <fsk_decoder_strip_mpp_preamble+0x78>)
 80a06d4:	7013      	strb	r3, [r2, #0]
    new_count = decoder.bit_count - start_index;
 80a06d6:	4a15      	ldr	r2, [pc, #84]	@ (80a072c <fsk_decoder_strip_mpp_preamble+0x7c>)
 80a06d8:	f8b2 c002 	ldrh.w	ip, [r2, #2]
 80a06dc:	ebac 000e 	sub.w	r0, ip, lr
 80a06e0:	b280      	uxth	r0, r0
    for (uint16_t i = 0U; i < new_count; i++)
 80a06e2:	e00c      	b.n	80a06fe <fsk_decoder_strip_mpp_preamble+0x4e>
 80a06e4:	4604      	mov	r4, r0
        fsk_decoder_report_mpp_preamble_error();
 80a06e6:	f7ff ff19 	bl	80a051c <fsk_decoder_report_mpp_preamble_error>
        return 0U;
 80a06ea:	e017      	b.n	80a071c <fsk_decoder_strip_mpp_preamble+0x6c>
        decoder.bit_stream[i] = decoder.bit_stream[start_index + i];
 80a06ec:	eb0e 0103 	add.w	r1, lr, r3
 80a06f0:	4a0e      	ldr	r2, [pc, #56]	@ (80a072c <fsk_decoder_strip_mpp_preamble+0x7c>)
 80a06f2:	4411      	add	r1, r2
 80a06f4:	7909      	ldrb	r1, [r1, #4]
 80a06f6:	441a      	add	r2, r3
 80a06f8:	7111      	strb	r1, [r2, #4]
    for (uint16_t i = 0U; i < new_count; i++)
 80a06fa:	3301      	adds	r3, #1
 80a06fc:	b29b      	uxth	r3, r3
 80a06fe:	4283      	cmp	r3, r0
 80a0700:	d3f4      	bcc.n	80a06ec <fsk_decoder_strip_mpp_preamble+0x3c>
    for (uint16_t i = new_count; i < decoder.bit_count; i++)
 80a0702:	4603      	mov	r3, r0
 80a0704:	e005      	b.n	80a0712 <fsk_decoder_strip_mpp_preamble+0x62>
        decoder.bit_stream[i] = 0U;
 80a0706:	4a09      	ldr	r2, [pc, #36]	@ (80a072c <fsk_decoder_strip_mpp_preamble+0x7c>)
 80a0708:	441a      	add	r2, r3
 80a070a:	2100      	movs	r1, #0
 80a070c:	7111      	strb	r1, [r2, #4]
    for (uint16_t i = new_count; i < decoder.bit_count; i++)
 80a070e:	3301      	adds	r3, #1
 80a0710:	b29b      	uxth	r3, r3
 80a0712:	459c      	cmp	ip, r3
 80a0714:	d8f7      	bhi.n	80a0706 <fsk_decoder_strip_mpp_preamble+0x56>
    decoder.bit_count = new_count;
 80a0716:	4b05      	ldr	r3, [pc, #20]	@ (80a072c <fsk_decoder_strip_mpp_preamble+0x7c>)
 80a0718:	8058      	strh	r0, [r3, #2]
    return 1U;
 80a071a:	2401      	movs	r4, #1
}
 80a071c:	4620      	mov	r0, r4
 80a071e:	b002      	add	sp, #8
 80a0720:	bd10      	pop	{r4, pc}
 80a0722:	bf00      	nop
 80a0724:	38000031 	.word	0x38000031
 80a0728:	38000030 	.word	0x38000030
 80a072c:	38000040 	.word	0x38000040

080a0730 <fsk_decoder_prepare_data_bits_for_active_mode>:
{
 80a0730:	b508      	push	{r3, lr}
            return fsk_decoder_strip_mpp_preamble();
 80a0732:	f7ff ffbd 	bl	80a06b0 <fsk_decoder_strip_mpp_preamble>
}
 80a0736:	bd08      	pop	{r3, pc}

080a0738 <calculate_parity>:

static uint8_t calculate_parity(uint8_t byte)
{
    uint8_t count = 0;

    for (uint8_t i = 0; i < 8; i++)
 80a0738:	2300      	movs	r3, #0
    uint8_t count = 0;
 80a073a:	461a      	mov	r2, r3
    for (uint8_t i = 0; i < 8; i++)
 80a073c:	e001      	b.n	80a0742 <calculate_parity+0xa>
 80a073e:	3301      	adds	r3, #1
 80a0740:	b2db      	uxtb	r3, r3
 80a0742:	2b07      	cmp	r3, #7
 80a0744:	d807      	bhi.n	80a0756 <calculate_parity+0x1e>
        if (byte & (1 << i))
 80a0746:	fa40 f103 	asr.w	r1, r0, r3
 80a074a:	f011 0f01 	tst.w	r1, #1
 80a074e:	d0f6      	beq.n	80a073e <calculate_parity+0x6>
            count++;
 80a0750:	3201      	adds	r2, #1
 80a0752:	b2d2      	uxtb	r2, r2
 80a0754:	e7f3      	b.n	80a073e <calculate_parity+0x6>

    return (count & 1);   // even parity
}
 80a0756:	f002 0001 	and.w	r0, r2, #1
 80a075a:	4770      	bx	lr

080a075c <fsk_decoder_validate_and_dispatch_data_frames>:
{
 80a075c:	b570      	push	{r4, r5, r6, lr}
    if ((decoder.bit_count == 0U) ||
 80a075e:	4b26      	ldr	r3, [pc, #152]	@ (80a07f8 <fsk_decoder_validate_and_dispatch_data_frames+0x9c>)
 80a0760:	885c      	ldrh	r4, [r3, #2]
 80a0762:	b154      	cbz	r4, 80a077a <fsk_decoder_validate_and_dispatch_data_frames+0x1e>
        ((decoder.bit_count % FSK_DATA_FRAME_BITS) != 0U))
 80a0764:	4b25      	ldr	r3, [pc, #148]	@ (80a07fc <fsk_decoder_validate_and_dispatch_data_frames+0xa0>)
 80a0766:	fba3 2304 	umull	r2, r3, r3, r4
 80a076a:	08db      	lsrs	r3, r3, #3
 80a076c:	eb03 0283 	add.w	r2, r3, r3, lsl #2
 80a0770:	eb03 0342 	add.w	r3, r3, r2, lsl #1
 80a0774:	1ae4      	subs	r4, r4, r3
 80a0776:	b2a4      	uxth	r4, r4
    if ((decoder.bit_count == 0U) ||
 80a0778:	b12c      	cbz	r4, 80a0786 <fsk_decoder_validate_and_dispatch_data_frames+0x2a>
        g_fsk_data_frame_error_count++;
 80a077a:	4a21      	ldr	r2, [pc, #132]	@ (80a0800 <fsk_decoder_validate_and_dispatch_data_frames+0xa4>)
 80a077c:	6813      	ldr	r3, [r2, #0]
 80a077e:	3301      	adds	r3, #1
 80a0780:	6013      	str	r3, [r2, #0]
        return 0U;
 80a0782:	2000      	movs	r0, #0
}
 80a0784:	bd70      	pop	{r4, r5, r6, pc}
    HAL_GPIO_TogglePin(GPIOB, GPIO_PIN_10);
 80a0786:	f44f 6180 	mov.w	r1, #1024	@ 0x400
 80a078a:	481e      	ldr	r0, [pc, #120]	@ (80a0804 <fsk_decoder_validate_and_dispatch_data_frames+0xa8>)
 80a078c:	f002 fe18 	bl	80a33c0 <HAL_GPIO_TogglePin>
    for (uint16_t i = 0U; i < decoder.bit_count; i += FSK_DATA_FRAME_BITS)
 80a0790:	e01f      	b.n	80a07d2 <fsk_decoder_validate_and_dispatch_data_frames+0x76>
            data |= (uint8_t)((decoder.bit_stream[i + 1U + b] & 0x01U) << b);
 80a0792:	18a1      	adds	r1, r4, r2
 80a0794:	3101      	adds	r1, #1
 80a0796:	4b18      	ldr	r3, [pc, #96]	@ (80a07f8 <fsk_decoder_validate_and_dispatch_data_frames+0x9c>)
 80a0798:	440b      	add	r3, r1
 80a079a:	791b      	ldrb	r3, [r3, #4]
 80a079c:	f003 0301 	and.w	r3, r3, #1
 80a07a0:	4093      	lsls	r3, r2
 80a07a2:	b2db      	uxtb	r3, r3
 80a07a4:	4318      	orrs	r0, r3
        for (uint8_t b = 0U; b < 8U; b++)
 80a07a6:	3201      	adds	r2, #1
 80a07a8:	b2d2      	uxtb	r2, r2
 80a07aa:	2a07      	cmp	r2, #7
 80a07ac:	d9f1      	bls.n	80a0792 <fsk_decoder_validate_and_dispatch_data_frames+0x36>
        parity = decoder.bit_stream[i + 9U];
 80a07ae:	f104 0209 	add.w	r2, r4, #9
 80a07b2:	4b11      	ldr	r3, [pc, #68]	@ (80a07f8 <fsk_decoder_validate_and_dispatch_data_frames+0x9c>)
 80a07b4:	441a      	add	r2, r3
 80a07b6:	7916      	ldrb	r6, [r2, #4]
        stop   = decoder.bit_stream[i + 10U];
 80a07b8:	f104 020a 	add.w	r2, r4, #10
 80a07bc:	4413      	add	r3, r2
 80a07be:	791b      	ldrb	r3, [r3, #4]
        if ((start == 0U) &&
 80a07c0:	b98d      	cbnz	r5, 80a07e6 <fsk_decoder_validate_and_dispatch_data_frames+0x8a>
 80a07c2:	2b01      	cmp	r3, #1
 80a07c4:	d10f      	bne.n	80a07e6 <fsk_decoder_validate_and_dispatch_data_frames+0x8a>
            (parity == calculate_parity(data)))
 80a07c6:	f7ff ffb7 	bl	80a0738 <calculate_parity>
            (stop == 1U) &&
 80a07ca:	42b0      	cmp	r0, r6
 80a07cc:	d10b      	bne.n	80a07e6 <fsk_decoder_validate_and_dispatch_data_frames+0x8a>
    for (uint16_t i = 0U; i < decoder.bit_count; i += FSK_DATA_FRAME_BITS)
 80a07ce:	340b      	adds	r4, #11
 80a07d0:	b2a4      	uxth	r4, r4
 80a07d2:	4b09      	ldr	r3, [pc, #36]	@ (80a07f8 <fsk_decoder_validate_and_dispatch_data_frames+0x9c>)
 80a07d4:	885b      	ldrh	r3, [r3, #2]
 80a07d6:	42a3      	cmp	r3, r4
 80a07d8:	d90b      	bls.n	80a07f2 <fsk_decoder_validate_and_dispatch_data_frames+0x96>
        uint8_t start = decoder.bit_stream[i];
 80a07da:	4b07      	ldr	r3, [pc, #28]	@ (80a07f8 <fsk_decoder_validate_and_dispatch_data_frames+0x9c>)
 80a07dc:	4423      	add	r3, r4
 80a07de:	791d      	ldrb	r5, [r3, #4]
        for (uint8_t b = 0U; b < 8U; b++)
 80a07e0:	2200      	movs	r2, #0
        uint8_t data = 0U;
 80a07e2:	4610      	mov	r0, r2
        for (uint8_t b = 0U; b < 8U; b++)
 80a07e4:	e7e1      	b.n	80a07aa <fsk_decoder_validate_and_dispatch_data_frames+0x4e>
            g_fsk_data_frame_error_count++;
 80a07e6:	4a06      	ldr	r2, [pc, #24]	@ (80a0800 <fsk_decoder_validate_and_dispatch_data_frames+0xa4>)
 80a07e8:	6813      	ldr	r3, [r2, #0]
 80a07ea:	3301      	adds	r3, #1
 80a07ec:	6013      	str	r3, [r2, #0]
            return 0U;
 80a07ee:	2000      	movs	r0, #0
 80a07f0:	e7c8      	b.n	80a0784 <fsk_decoder_validate_and_dispatch_data_frames+0x28>
    return 1U;
 80a07f2:	2001      	movs	r0, #1
 80a07f4:	e7c6      	b.n	80a0784 <fsk_decoder_validate_and_dispatch_data_frames+0x28>
 80a07f6:	bf00      	nop
 80a07f8:	38000040 	.word	0x38000040
 80a07fc:	ba2e8ba3 	.word	0xba2e8ba3
 80a0800:	3800002c 	.word	0x3800002c
 80a0804:	58020400 	.word	0x58020400

080a0808 <process_frame>:
{
 80a0808:	b508      	push	{r3, lr}
    if (decoder.bit_count == FSK_RESPONSE_PATTERN_BITS)
 80a080a:	4b18      	ldr	r3, [pc, #96]	@ (80a086c <process_frame+0x64>)
 80a080c:	885b      	ldrh	r3, [r3, #2]
 80a080e:	2b08      	cmp	r3, #8
 80a0810:	d018      	beq.n	80a0844 <process_frame+0x3c>
    if (decoder.bit_count > FSK_RESPONSE_PATTERN_BITS)
 80a0812:	2b08      	cmp	r3, #8
 80a0814:	d822      	bhi.n	80a085c <process_frame+0x54>
}
 80a0816:	bd08      	pop	{r3, pc}
            response = (uint8_t)((response << 1U) |
 80a0818:	0052      	lsls	r2, r2, #1
 80a081a:	b2d2      	uxtb	r2, r2
                                 (decoder.bit_stream[i] & 0x01U));
 80a081c:	4913      	ldr	r1, [pc, #76]	@ (80a086c <process_frame+0x64>)
 80a081e:	4419      	add	r1, r3
 80a0820:	7909      	ldrb	r1, [r1, #4]
 80a0822:	f001 0101 	and.w	r1, r1, #1
            response = (uint8_t)((response << 1U) |
 80a0826:	430a      	orrs	r2, r1
        for (uint8_t i = 0U; i < FSK_RESPONSE_PATTERN_BITS; i++)
 80a0828:	3301      	adds	r3, #1
 80a082a:	b2db      	uxtb	r3, r3
 80a082c:	2b07      	cmp	r3, #7
 80a082e:	d9f3      	bls.n	80a0818 <process_frame+0x10>
        switch (response)
 80a0830:	2a88      	cmp	r2, #136	@ 0x88
 80a0832:	d00a      	beq.n	80a084a <process_frame+0x42>
 80a0834:	2aff      	cmp	r2, #255	@ 0xff
 80a0836:	d1ee      	bne.n	80a0816 <process_frame+0xe>
                HAL_GPIO_TogglePin(GPIOB, GPIO_PIN_10);
 80a0838:	f44f 6180 	mov.w	r1, #1024	@ 0x400
 80a083c:	480c      	ldr	r0, [pc, #48]	@ (80a0870 <process_frame+0x68>)
 80a083e:	f002 fdbf 	bl	80a33c0 <HAL_GPIO_TogglePin>
        return;
 80a0842:	e7e8      	b.n	80a0816 <process_frame+0xe>
        for (uint8_t i = 0U; i < FSK_RESPONSE_PATTERN_BITS; i++)
 80a0844:	2300      	movs	r3, #0
        uint8_t response = 0U;
 80a0846:	461a      	mov	r2, r3
 80a0848:	e7f0      	b.n	80a082c <process_frame+0x24>
                fsk_limit_mode = FSK_LIMIT_128;
 80a084a:	4b0a      	ldr	r3, [pc, #40]	@ (80a0874 <process_frame+0x6c>)
 80a084c:	2201      	movs	r2, #1
 80a084e:	701a      	strb	r2, [r3, #0]
                HAL_GPIO_TogglePin(GPIOB, GPIO_PIN_10);
 80a0850:	f44f 6180 	mov.w	r1, #1024	@ 0x400
 80a0854:	4806      	ldr	r0, [pc, #24]	@ (80a0870 <process_frame+0x68>)
 80a0856:	f002 fdb3 	bl	80a33c0 <HAL_GPIO_TogglePin>
                break;
 80a085a:	e7dc      	b.n	80a0816 <process_frame+0xe>
        if (fsk_decoder_prepare_data_bits_for_active_mode() == 0U)
 80a085c:	f7ff ff68 	bl	80a0730 <fsk_decoder_prepare_data_bits_for_active_mode>
 80a0860:	2800      	cmp	r0, #0
 80a0862:	d0d8      	beq.n	80a0816 <process_frame+0xe>
        (void)fsk_decoder_validate_and_dispatch_data_frames();
 80a0864:	f7ff ff7a 	bl	80a075c <fsk_decoder_validate_and_dispatch_data_frames>
        return;
 80a0868:	e7d5      	b.n	80a0816 <process_frame+0xe>
 80a086a:	bf00      	nop
 80a086c:	38000040 	.word	0x38000040
 80a0870:	58020400 	.word	0x58020400
 80a0874:	38000038 	.word	0x38000038

080a0878 <fsk_decoder_handle_idle_end>:
{
 80a0878:	b508      	push	{r3, lr}
    if (decoder.state == RX_COLLECT_BITS)
 80a087a:	4b09      	ldr	r3, [pc, #36]	@ (80a08a0 <fsk_decoder_handle_idle_end+0x28>)
 80a087c:	781b      	ldrb	r3, [r3, #0]
 80a087e:	2b01      	cmp	r3, #1
 80a0880:	d002      	beq.n	80a0888 <fsk_decoder_handle_idle_end+0x10>
    fsk_decoder_reset_collection_state();
 80a0882:	f7ff fdeb 	bl	80a045c <fsk_decoder_reset_collection_state>
}
 80a0886:	bd08      	pop	{r3, pc}
        (void)fsk_decoder_try_complete_tail_on_idle();
 80a0888:	f7ff feb8 	bl	80a05fc <fsk_decoder_try_complete_tail_on_idle>
        if (fsk_decoder_is_frame_ready() != 0U)
 80a088c:	f7ff fdd8 	bl	80a0440 <fsk_decoder_is_frame_ready>
 80a0890:	2800      	cmp	r0, #0
 80a0892:	d0f6      	beq.n	80a0882 <fsk_decoder_handle_idle_end+0xa>
            process_frame();
 80a0894:	f7ff ffb8 	bl	80a0808 <process_frame>
            debugFlag = 1U;
 80a0898:	4b02      	ldr	r3, [pc, #8]	@ (80a08a4 <fsk_decoder_handle_idle_end+0x2c>)
 80a089a:	2201      	movs	r2, #1
 80a089c:	701a      	strb	r2, [r3, #0]
 80a089e:	e7f0      	b.n	80a0882 <fsk_decoder_handle_idle_end+0xa>
 80a08a0:	38000040 	.word	0x38000040
 80a08a4:	380023cc 	.word	0x380023cc

080a08a8 <fsk_decoder_handle_symbol>:
{
 80a08a8:	b508      	push	{r3, lr}
    switch (decoder.state)
 80a08aa:	4b21      	ldr	r3, [pc, #132]	@ (80a0930 <fsk_decoder_handle_symbol+0x88>)
 80a08ac:	781b      	ldrb	r3, [r3, #0]
 80a08ae:	b123      	cbz	r3, 80a08ba <fsk_decoder_handle_symbol+0x12>
 80a08b0:	2b01      	cmp	r3, #1
 80a08b2:	d00d      	beq.n	80a08d0 <fsk_decoder_handle_symbol+0x28>
            fsk_decoder_reset_collection_state();
 80a08b4:	f7ff fdd2 	bl	80a045c <fsk_decoder_reset_collection_state>
}
 80a08b8:	bd08      	pop	{r3, pc}
            if ((symbol == SYMBOL_HALF) || (symbol == SYMBOL_FULL))
 80a08ba:	3801      	subs	r0, #1
 80a08bc:	b2c0      	uxtb	r0, r0
 80a08be:	2801      	cmp	r0, #1
 80a08c0:	d8fa      	bhi.n	80a08b8 <fsk_decoder_handle_symbol+0x10>
                decoder.state = RX_COLLECT_BITS;
 80a08c2:	4b1b      	ldr	r3, [pc, #108]	@ (80a0930 <fsk_decoder_handle_symbol+0x88>)
 80a08c4:	2201      	movs	r2, #1
 80a08c6:	701a      	strb	r2, [r3, #0]
                decoder.bit_count = 0U;
 80a08c8:	2100      	movs	r1, #0
 80a08ca:	8059      	strh	r1, [r3, #2]
                decoder.half_pending = 1U;
 80a08cc:	705a      	strb	r2, [r3, #1]
 80a08ce:	e7f3      	b.n	80a08b8 <fsk_decoder_handle_symbol+0x10>
            switch (symbol)
 80a08d0:	2802      	cmp	r0, #2
 80a08d2:	d018      	beq.n	80a0906 <fsk_decoder_handle_symbol+0x5e>
 80a08d4:	2803      	cmp	r0, #3
 80a08d6:	d024      	beq.n	80a0922 <fsk_decoder_handle_symbol+0x7a>
 80a08d8:	2801      	cmp	r0, #1
 80a08da:	d125      	bne.n	80a0928 <fsk_decoder_handle_symbol+0x80>
                    if (decoder.half_pending == 0U)
 80a08dc:	4b14      	ldr	r3, [pc, #80]	@ (80a0930 <fsk_decoder_handle_symbol+0x88>)
 80a08de:	785b      	ldrb	r3, [r3, #1]
 80a08e0:	b91b      	cbnz	r3, 80a08ea <fsk_decoder_handle_symbol+0x42>
                        decoder.half_pending = 1U;
 80a08e2:	4b13      	ldr	r3, [pc, #76]	@ (80a0930 <fsk_decoder_handle_symbol+0x88>)
 80a08e4:	2201      	movs	r2, #1
 80a08e6:	705a      	strb	r2, [r3, #1]
 80a08e8:	e7e6      	b.n	80a08b8 <fsk_decoder_handle_symbol+0x10>
    if (decoder.bit_count < sizeof(decoder.bit_stream))
 80a08ea:	4b11      	ldr	r3, [pc, #68]	@ (80a0930 <fsk_decoder_handle_symbol+0x88>)
 80a08ec:	885b      	ldrh	r3, [r3, #2]
 80a08ee:	2bff      	cmp	r3, #255	@ 0xff
 80a08f0:	d805      	bhi.n	80a08fe <fsk_decoder_handle_symbol+0x56>
        decoder.bit_stream[decoder.bit_count++] = bit;
 80a08f2:	4a0f      	ldr	r2, [pc, #60]	@ (80a0930 <fsk_decoder_handle_symbol+0x88>)
 80a08f4:	1c59      	adds	r1, r3, #1
 80a08f6:	8051      	strh	r1, [r2, #2]
 80a08f8:	441a      	add	r2, r3
 80a08fa:	2301      	movs	r3, #1
 80a08fc:	7113      	strb	r3, [r2, #4]
                        decoder.half_pending = 0U;
 80a08fe:	4b0c      	ldr	r3, [pc, #48]	@ (80a0930 <fsk_decoder_handle_symbol+0x88>)
 80a0900:	2200      	movs	r2, #0
 80a0902:	705a      	strb	r2, [r3, #1]
 80a0904:	e7d8      	b.n	80a08b8 <fsk_decoder_handle_symbol+0x10>
    if (decoder.bit_count < sizeof(decoder.bit_stream))
 80a0906:	4b0a      	ldr	r3, [pc, #40]	@ (80a0930 <fsk_decoder_handle_symbol+0x88>)
 80a0908:	885b      	ldrh	r3, [r3, #2]
 80a090a:	2bff      	cmp	r3, #255	@ 0xff
 80a090c:	d805      	bhi.n	80a091a <fsk_decoder_handle_symbol+0x72>
        decoder.bit_stream[decoder.bit_count++] = bit;
 80a090e:	4a08      	ldr	r2, [pc, #32]	@ (80a0930 <fsk_decoder_handle_symbol+0x88>)
 80a0910:	1c59      	adds	r1, r3, #1
 80a0912:	8051      	strh	r1, [r2, #2]
 80a0914:	441a      	add	r2, r3
 80a0916:	2300      	movs	r3, #0
 80a0918:	7113      	strb	r3, [r2, #4]
                    decoder.half_pending = 0U;
 80a091a:	4b05      	ldr	r3, [pc, #20]	@ (80a0930 <fsk_decoder_handle_symbol+0x88>)
 80a091c:	2200      	movs	r2, #0
 80a091e:	705a      	strb	r2, [r3, #1]
                    break;
 80a0920:	e7ca      	b.n	80a08b8 <fsk_decoder_handle_symbol+0x10>
                    fsk_decoder_handle_idle_end();
 80a0922:	f7ff ffa9 	bl	80a0878 <fsk_decoder_handle_idle_end>
                    break;
 80a0926:	e7c7      	b.n	80a08b8 <fsk_decoder_handle_symbol+0x10>
                    fsk_decoder_reset_collection_state();
 80a0928:	f7ff fd98 	bl	80a045c <fsk_decoder_reset_collection_state>
                    break;
 80a092c:	e7c4      	b.n	80a08b8 <fsk_decoder_handle_symbol+0x10>
 80a092e:	bf00      	nop
 80a0930:	38000040 	.word	0x38000040

080a0934 <process_block>:
{
 80a0934:	e92d 41f0 	stmdb	sp!, {r4, r5, r6, r7, r8, lr}
 80a0938:	4606      	mov	r6, r0
 80a093a:	460d      	mov	r5, r1
    for (uint32_t i = 0; i < length; i++)
 80a093c:	2400      	movs	r4, #0
 80a093e:	e028      	b.n	80a0992 <process_block+0x5e>
            period = (HRTIM_TIMER_MAX - prev_timestamp) + curr + 1U;
 80a0940:	1a18      	subs	r0, r3, r0
 80a0942:	f500 3080 	add.w	r0, r0, #65536	@ 0x10000
 80a0946:	e02f      	b.n	80a09a8 <process_block+0x74>
        else if (diff < 0)	sign = -1;
 80a0948:	db01      	blt.n	80a094e <process_block+0x1a>
        int8_t sign = 0;
 80a094a:	2700      	movs	r7, #0
 80a094c:	e039      	b.n	80a09c2 <process_block+0x8e>
        else if (diff < 0)	sign = -1;
 80a094e:	f04f 37ff 	mov.w	r7, #4294967295
 80a0952:	e036      	b.n	80a09c2 <process_block+0x8e>
                active = 1;
 80a0954:	4b2f      	ldr	r3, [pc, #188]	@ (80a0a14 <process_block+0xe0>)
 80a0956:	2201      	movs	r2, #1
 80a0958:	701a      	strb	r2, [r3, #0]
                last_sign = sign;
 80a095a:	4b2f      	ldr	r3, [pc, #188]	@ (80a0a18 <process_block+0xe4>)
 80a095c:	701f      	strb	r7, [r3, #0]
                period_counter = 0;
 80a095e:	4b2f      	ldr	r3, [pc, #188]	@ (80a0a1c <process_block+0xe8>)
 80a0960:	2200      	movs	r2, #0
 80a0962:	801a      	strh	r2, [r3, #0]
                HAL_GPIO_TogglePin(GPIOB, GPIO_PIN_14);
 80a0964:	f44f 4180 	mov.w	r1, #16384	@ 0x4000
 80a0968:	482d      	ldr	r0, [pc, #180]	@ (80a0a20 <process_block+0xec>)
 80a096a:	f002 fd29 	bl	80a33c0 <HAL_GPIO_TogglePin>
        if (active)
 80a096e:	4b29      	ldr	r3, [pc, #164]	@ (80a0a14 <process_block+0xe0>)
 80a0970:	f993 3000 	ldrsb.w	r3, [r3]
 80a0974:	b163      	cbz	r3, 80a0990 <process_block+0x5c>
    if (fsk_limit_mode == FSK_LIMIT_128)
 80a0976:	4b2b      	ldr	r3, [pc, #172]	@ (80a0a24 <process_block+0xf0>)
 80a0978:	781b      	ldrb	r3, [r3, #0]
 80a097a:	2b01      	cmp	r3, #1
 80a097c:	d042      	beq.n	80a0a04 <process_block+0xd0>
    return IDLE_TARGET_512;
 80a097e:	f44f 6280 	mov.w	r2, #1024	@ 0x400
        	if (period_counter < idle_target)
 80a0982:	4b26      	ldr	r3, [pc, #152]	@ (80a0a1c <process_block+0xe8>)
 80a0984:	881b      	ldrh	r3, [r3, #0]
 80a0986:	4293      	cmp	r3, r2
 80a0988:	d23f      	bcs.n	80a0a0a <process_block+0xd6>
        		period_counter++;
 80a098a:	3301      	adds	r3, #1
 80a098c:	4a23      	ldr	r2, [pc, #140]	@ (80a0a1c <process_block+0xe8>)
 80a098e:	8013      	strh	r3, [r2, #0]
    for (uint32_t i = 0; i < length; i++)
 80a0990:	3401      	adds	r4, #1
 80a0992:	42ac      	cmp	r4, r5
 80a0994:	d23c      	bcs.n	80a0a10 <process_block+0xdc>
        uint32_t curr = hrtim_capture_buf[start + i];
 80a0996:	19a3      	adds	r3, r4, r6
 80a0998:	4a23      	ldr	r2, [pc, #140]	@ (80a0a28 <process_block+0xf4>)
 80a099a:	f852 3023 	ldr.w	r3, [r2, r3, lsl #2]
        if (curr >= prev_timestamp)
 80a099e:	4a23      	ldr	r2, [pc, #140]	@ (80a0a2c <process_block+0xf8>)
 80a09a0:	6810      	ldr	r0, [r2, #0]
 80a09a2:	4298      	cmp	r0, r3
 80a09a4:	d8cc      	bhi.n	80a0940 <process_block+0xc>
            period = curr - prev_timestamp;
 80a09a6:	1a18      	subs	r0, r3, r0
        prev_timestamp = curr;
 80a09a8:	4a20      	ldr	r2, [pc, #128]	@ (80a0a2c <process_block+0xf8>)
 80a09aa:	6013      	str	r3, [r2, #0]
        uint32_t ma = moving_average_16(period);
 80a09ac:	f7ff fcdc 	bl	80a0368 <moving_average_16>
        int32_t diff = delayed_diff(ma);
 80a09b0:	f7ff fd16 	bl	80a03e0 <delayed_diff>
        int32_t abs_diff = (diff >=0) ? diff : -diff;
 80a09b4:	ea80 73e0 	eor.w	r3, r0, r0, asr #31
 80a09b8:	eba3 73e0 	sub.w	r3, r3, r0, asr #31
        if (diff > 0)	sign = 1;
 80a09bc:	2800      	cmp	r0, #0
 80a09be:	ddc3      	ble.n	80a0948 <process_block+0x14>
 80a09c0:	2701      	movs	r7, #1
        if ((abs_diff > DELTA_MIN) && (abs_diff < DELTA_MAX))
 80a09c2:	3b1f      	subs	r3, #31
 80a09c4:	f5b3 7f86 	cmp.w	r3, #268	@ 0x10c
 80a09c8:	d8d1      	bhi.n	80a096e <process_block+0x3a>
            if (!active)
 80a09ca:	4b12      	ldr	r3, [pc, #72]	@ (80a0a14 <process_block+0xe0>)
 80a09cc:	f993 3000 	ldrsb.w	r3, [r3]
 80a09d0:	2b00      	cmp	r3, #0
 80a09d2:	d0bf      	beq.n	80a0954 <process_block+0x20>
                if (sign == -last_sign)
 80a09d4:	4b10      	ldr	r3, [pc, #64]	@ (80a0a18 <process_block+0xe4>)
 80a09d6:	f993 3000 	ldrsb.w	r3, [r3]
 80a09da:	42df      	cmn	r7, r3
 80a09dc:	d1c7      	bne.n	80a096e <process_block+0x3a>
                	symbol_t symbol = classify_symbol(period_counter);
 80a09de:	f8df 803c 	ldr.w	r8, [pc, #60]	@ 80a0a1c <process_block+0xe8>
 80a09e2:	f8b8 0000 	ldrh.w	r0, [r8]
 80a09e6:	f7ff fd4d 	bl	80a0484 <classify_symbol>
					period_counter = 0;
 80a09ea:	2300      	movs	r3, #0
 80a09ec:	f8a8 3000 	strh.w	r3, [r8]
					last_sign = sign;
 80a09f0:	4b09      	ldr	r3, [pc, #36]	@ (80a0a18 <process_block+0xe4>)
 80a09f2:	701f      	strb	r7, [r3, #0]
					fsk_decoder_handle_symbol(symbol);
 80a09f4:	f7ff ff58 	bl	80a08a8 <fsk_decoder_handle_symbol>
					HAL_GPIO_TogglePin(GPIOB, GPIO_PIN_14);
 80a09f8:	f44f 4180 	mov.w	r1, #16384	@ 0x4000
 80a09fc:	4808      	ldr	r0, [pc, #32]	@ (80a0a20 <process_block+0xec>)
 80a09fe:	f002 fcdf 	bl	80a33c0 <HAL_GPIO_TogglePin>
 80a0a02:	e7b4      	b.n	80a096e <process_block+0x3a>
        return IDLE_TARGET_128;
 80a0a04:	f44f 7200 	mov.w	r2, #512	@ 0x200
 80a0a08:	e7bb      	b.n	80a0982 <process_block+0x4e>
        	    fsk_decoder_handle_idle_end();
 80a0a0a:	f7ff ff35 	bl	80a0878 <fsk_decoder_handle_idle_end>
 80a0a0e:	e7bf      	b.n	80a0990 <process_block+0x5c>
}
 80a0a10:	e8bd 81f0 	ldmia.w	sp!, {r4, r5, r6, r7, r8, pc}
 80a0a14:	38000147 	.word	0x38000147
 80a0a18:	38000146 	.word	0x38000146
 80a0a1c:	38000144 	.word	0x38000144
 80a0a20:	58020400 	.word	0x58020400
 80a0a24:	38000038 	.word	0x38000038
 80a0a28:	380001f4 	.word	0x380001f4
 80a0a2c:	3800003c 	.word	0x3800003c

080a0a30 <HAL_GPIO_EXTI_Callback>:
}
 80a0a30:	4770      	bx	lr
	...

080a0a34 <fsk_decoder_reset_state>:

void fsk_decoder_reset_state(void)
{
    uint32_t i;

    for (i = 0U; i < MA_WINDOW; i++)
 80a0a34:	2300      	movs	r3, #0
 80a0a36:	e004      	b.n	80a0a42 <fsk_decoder_reset_state+0xe>
    {
        ma_buffer[i] = 0U;
 80a0a38:	4a1e      	ldr	r2, [pc, #120]	@ (80a0ab4 <fsk_decoder_reset_state+0x80>)
 80a0a3a:	2100      	movs	r1, #0
 80a0a3c:	f842 1023 	str.w	r1, [r2, r3, lsl #2]
    for (i = 0U; i < MA_WINDOW; i++)
 80a0a40:	3301      	adds	r3, #1
 80a0a42:	2b0f      	cmp	r3, #15
 80a0a44:	d9f8      	bls.n	80a0a38 <fsk_decoder_reset_state+0x4>
    }

    for (i = 0U; i < DELAY; i++)
 80a0a46:	2300      	movs	r3, #0
 80a0a48:	e004      	b.n	80a0a54 <fsk_decoder_reset_state+0x20>
    {
        ma_delay_buffer[i] = 0U;
 80a0a4a:	4a1b      	ldr	r2, [pc, #108]	@ (80a0ab8 <fsk_decoder_reset_state+0x84>)
 80a0a4c:	2100      	movs	r1, #0
 80a0a4e:	f842 1023 	str.w	r1, [r2, r3, lsl #2]
    for (i = 0U; i < DELAY; i++)
 80a0a52:	3301      	adds	r3, #1
 80a0a54:	2b17      	cmp	r3, #23
 80a0a56:	d9f8      	bls.n	80a0a4a <fsk_decoder_reset_state+0x16>
    }

    ma_sum = 0U;
 80a0a58:	2300      	movs	r3, #0
 80a0a5a:	4a18      	ldr	r2, [pc, #96]	@ (80a0abc <fsk_decoder_reset_state+0x88>)
 80a0a5c:	6013      	str	r3, [r2, #0]
    ma_index = 0U;
 80a0a5e:	4a18      	ldr	r2, [pc, #96]	@ (80a0ac0 <fsk_decoder_reset_state+0x8c>)
 80a0a60:	7013      	strb	r3, [r2, #0]
    ma_filled = 0U;
 80a0a62:	4a18      	ldr	r2, [pc, #96]	@ (80a0ac4 <fsk_decoder_reset_state+0x90>)
 80a0a64:	7013      	strb	r3, [r2, #0]

    delay_index = 0U;
 80a0a66:	4a18      	ldr	r2, [pc, #96]	@ (80a0ac8 <fsk_decoder_reset_state+0x94>)
 80a0a68:	7013      	strb	r3, [r2, #0]
    delay_filled = 0U;
 80a0a6a:	4a18      	ldr	r2, [pc, #96]	@ (80a0acc <fsk_decoder_reset_state+0x98>)
 80a0a6c:	7013      	strb	r3, [r2, #0]

    active = 0;
 80a0a6e:	4a18      	ldr	r2, [pc, #96]	@ (80a0ad0 <fsk_decoder_reset_state+0x9c>)
 80a0a70:	7013      	strb	r3, [r2, #0]
    last_sign = 0;
 80a0a72:	4a18      	ldr	r2, [pc, #96]	@ (80a0ad4 <fsk_decoder_reset_state+0xa0>)
 80a0a74:	7013      	strb	r3, [r2, #0]
    period_counter = 0U;
 80a0a76:	4a18      	ldr	r2, [pc, #96]	@ (80a0ad8 <fsk_decoder_reset_state+0xa4>)
 80a0a78:	8013      	strh	r3, [r2, #0]

    decoder.state = RX_IDLE;
 80a0a7a:	4a18      	ldr	r2, [pc, #96]	@ (80a0adc <fsk_decoder_reset_state+0xa8>)
 80a0a7c:	7013      	strb	r3, [r2, #0]
    decoder.half_pending = 0U;
 80a0a7e:	7053      	strb	r3, [r2, #1]
    decoder.bit_count = 0U;
 80a0a80:	8053      	strh	r3, [r2, #2]

    for (i = 0U; i < sizeof(decoder.bit_stream); i++)
 80a0a82:	e004      	b.n	80a0a8e <fsk_decoder_reset_state+0x5a>
    {
        decoder.bit_stream[i] = 0U;
 80a0a84:	4a15      	ldr	r2, [pc, #84]	@ (80a0adc <fsk_decoder_reset_state+0xa8>)
 80a0a86:	441a      	add	r2, r3
 80a0a88:	2100      	movs	r1, #0
 80a0a8a:	7111      	strb	r1, [r2, #4]
    for (i = 0U; i < sizeof(decoder.bit_stream); i++)
 80a0a8c:	3301      	adds	r3, #1
 80a0a8e:	2bff      	cmp	r3, #255	@ 0xff
 80a0a90:	d9f8      	bls.n	80a0a84 <fsk_decoder_reset_state+0x50>
    }

    prev_timestamp = 0U;
 80a0a92:	2300      	movs	r3, #0
 80a0a94:	4a12      	ldr	r2, [pc, #72]	@ (80a0ae0 <fsk_decoder_reset_state+0xac>)
 80a0a96:	6013      	str	r3, [r2, #0]
    debugFlag = 0U;
 80a0a98:	4a12      	ldr	r2, [pc, #72]	@ (80a0ae4 <fsk_decoder_reset_state+0xb0>)
 80a0a9a:	7013      	strb	r3, [r2, #0]

    fsk_limit_mode = FSK_LIMIT_512;
 80a0a9c:	4a12      	ldr	r2, [pc, #72]	@ (80a0ae8 <fsk_decoder_reset_state+0xb4>)
 80a0a9e:	7013      	strb	r3, [r2, #0]
    g_fsk_preamble_error_count = 0U;
 80a0aa0:	4a12      	ldr	r2, [pc, #72]	@ (80a0aec <fsk_decoder_reset_state+0xb8>)
 80a0aa2:	6013      	str	r3, [r2, #0]
    g_fsk_last_preamble_bits = 0U;
 80a0aa4:	4a12      	ldr	r2, [pc, #72]	@ (80a0af0 <fsk_decoder_reset_state+0xbc>)
 80a0aa6:	7013      	strb	r3, [r2, #0]
    g_fsk_last_preamble_error = FSK_PREAMBLE_ERROR_NONE;
 80a0aa8:	4a12      	ldr	r2, [pc, #72]	@ (80a0af4 <fsk_decoder_reset_state+0xc0>)
 80a0aaa:	7013      	strb	r3, [r2, #0]
    g_fsk_data_frame_error_count = 0U;
 80a0aac:	4a12      	ldr	r2, [pc, #72]	@ (80a0af8 <fsk_decoder_reset_state+0xc4>)
 80a0aae:	6013      	str	r3, [r2, #0]
}
 80a0ab0:	4770      	bx	lr
 80a0ab2:	bf00      	nop
 80a0ab4:	380001b4 	.word	0x380001b4
 80a0ab8:	3800014c 	.word	0x3800014c
 80a0abc:	380001b0 	.word	0x380001b0
 80a0ac0:	380001ad 	.word	0x380001ad
 80a0ac4:	380001ac 	.word	0x380001ac
 80a0ac8:	38000149 	.word	0x38000149
 80a0acc:	38000148 	.word	0x38000148
 80a0ad0:	38000147 	.word	0x38000147
 80a0ad4:	38000146 	.word	0x38000146
 80a0ad8:	38000144 	.word	0x38000144
 80a0adc:	38000040 	.word	0x38000040
 80a0ae0:	3800003c 	.word	0x3800003c
 80a0ae4:	380023cc 	.word	0x380023cc
 80a0ae8:	38000038 	.word	0x38000038
 80a0aec:	38000034 	.word	0x38000034
 80a0af0:	38000031 	.word	0x38000031
 80a0af4:	38000030 	.word	0x38000030
 80a0af8:	3800002c 	.word	0x3800002c

080a0afc <MX_GPIO_Init>:
/* USER CODE END 1 */

/** Configure pins
*/
void MX_GPIO_Init(void)
{
 80a0afc:	b5f0      	push	{r4, r5, r6, r7, lr}
 80a0afe:	b08b      	sub	sp, #44	@ 0x2c

  GPIO_InitTypeDef GPIO_InitStruct = {0};
 80a0b00:	2400      	movs	r4, #0
 80a0b02:	9405      	str	r4, [sp, #20]
 80a0b04:	9406      	str	r4, [sp, #24]
 80a0b06:	9407      	str	r4, [sp, #28]
 80a0b08:	9408      	str	r4, [sp, #32]
 80a0b0a:	9409      	str	r4, [sp, #36]	@ 0x24

  /* GPIO Ports Clock Enable */
  __HAL_RCC_GPIOA_CLK_ENABLE();
 80a0b0c:	4b3b      	ldr	r3, [pc, #236]	@ (80a0bfc <MX_GPIO_Init+0x100>)
 80a0b0e:	f8d3 20e0 	ldr.w	r2, [r3, #224]	@ 0xe0
 80a0b12:	f042 0201 	orr.w	r2, r2, #1
 80a0b16:	f8c3 20e0 	str.w	r2, [r3, #224]	@ 0xe0
 80a0b1a:	f8d3 20e0 	ldr.w	r2, [r3, #224]	@ 0xe0
 80a0b1e:	f002 0201 	and.w	r2, r2, #1
 80a0b22:	9200      	str	r2, [sp, #0]
 80a0b24:	9a00      	ldr	r2, [sp, #0]
  __HAL_RCC_GPIOB_CLK_ENABLE();
 80a0b26:	f8d3 20e0 	ldr.w	r2, [r3, #224]	@ 0xe0
 80a0b2a:	f042 0202 	orr.w	r2, r2, #2
 80a0b2e:	f8c3 20e0 	str.w	r2, [r3, #224]	@ 0xe0
 80a0b32:	f8d3 20e0 	ldr.w	r2, [r3, #224]	@ 0xe0
 80a0b36:	f002 0202 	and.w	r2, r2, #2
 80a0b3a:	9201      	str	r2, [sp, #4]
 80a0b3c:	9a01      	ldr	r2, [sp, #4]
  __HAL_RCC_GPIOC_CLK_ENABLE();
 80a0b3e:	f8d3 20e0 	ldr.w	r2, [r3, #224]	@ 0xe0
 80a0b42:	f042 0204 	orr.w	r2, r2, #4
 80a0b46:	f8c3 20e0 	str.w	r2, [r3, #224]	@ 0xe0
 80a0b4a:	f8d3 20e0 	ldr.w	r2, [r3, #224]	@ 0xe0
 80a0b4e:	f002 0204 	and.w	r2, r2, #4
 80a0b52:	9202      	str	r2, [sp, #8]
 80a0b54:	9a02      	ldr	r2, [sp, #8]
  __HAL_RCC_GPIOD_CLK_ENABLE();
 80a0b56:	f8d3 20e0 	ldr.w	r2, [r3, #224]	@ 0xe0
 80a0b5a:	f042 0208 	orr.w	r2, r2, #8
 80a0b5e:	f8c3 20e0 	str.w	r2, [r3, #224]	@ 0xe0
 80a0b62:	f8d3 20e0 	ldr.w	r2, [r3, #224]	@ 0xe0
 80a0b66:	f002 0208 	and.w	r2, r2, #8
 80a0b6a:	9203      	str	r2, [sp, #12]
 80a0b6c:	9a03      	ldr	r2, [sp, #12]
  __HAL_RCC_GPIOE_CLK_ENABLE();
 80a0b6e:	f8d3 20e0 	ldr.w	r2, [r3, #224]	@ 0xe0
 80a0b72:	f042 0210 	orr.w	r2, r2, #16
 80a0b76:	f8c3 20e0 	str.w	r2, [r3, #224]	@ 0xe0
 80a0b7a:	f8d3 30e0 	ldr.w	r3, [r3, #224]	@ 0xe0
 80a0b7e:	f003 0310 	and.w	r3, r3, #16
 80a0b82:	9304      	str	r3, [sp, #16]
 80a0b84:	9b04      	ldr	r3, [sp, #16]

  /*Configure GPIO pin Output Level */
  HAL_GPIO_WritePin(GPIOB, GPIO_PIN_14, GPIO_PIN_RESET);
 80a0b86:	4d1e      	ldr	r5, [pc, #120]	@ (80a0c00 <MX_GPIO_Init+0x104>)
 80a0b88:	4622      	mov	r2, r4
 80a0b8a:	f44f 4180 	mov.w	r1, #16384	@ 0x4000
 80a0b8e:	4628      	mov	r0, r5
 80a0b90:	f002 fc10 	bl	80a33b4 <HAL_GPIO_WritePin>
  HAL_GPIO_WritePin(GPIOB, GPIO_PIN_10, GPIO_PIN_RESET);
 80a0b94:	4622      	mov	r2, r4
 80a0b96:	f44f 6180 	mov.w	r1, #1024	@ 0x400
 80a0b9a:	4628      	mov	r0, r5
 80a0b9c:	f002 fc0a 	bl	80a33b4 <HAL_GPIO_WritePin>

  /*Configure GPIO pin Output Level */
  HAL_GPIO_WritePin(FSK_TRIG_GPIO_Port, FSK_TRIG_Pin, GPIO_PIN_RESET);
 80a0ba0:	4f18      	ldr	r7, [pc, #96]	@ (80a0c04 <MX_GPIO_Init+0x108>)
 80a0ba2:	4622      	mov	r2, r4
 80a0ba4:	2101      	movs	r1, #1
 80a0ba6:	4638      	mov	r0, r7
 80a0ba8:	f002 fc04 	bl	80a33b4 <HAL_GPIO_WritePin>

  /*Configure GPIO pin : PB14 */
  GPIO_InitStruct.Pin = GPIO_PIN_14;
 80a0bac:	f44f 4380 	mov.w	r3, #16384	@ 0x4000
 80a0bb0:	9305      	str	r3, [sp, #20]
  GPIO_InitStruct.Mode = GPIO_MODE_OUTPUT_PP;
 80a0bb2:	2601      	movs	r6, #1
 80a0bb4:	9606      	str	r6, [sp, #24]
  GPIO_InitStruct.Pull = GPIO_NOPULL;
 80a0bb6:	9407      	str	r4, [sp, #28]
  GPIO_InitStruct.Speed = GPIO_SPEED_FREQ_LOW;
 80a0bb8:	9408      	str	r4, [sp, #32]
  HAL_GPIO_Init(GPIOB, &GPIO_InitStruct);
 80a0bba:	a905      	add	r1, sp, #20
 80a0bbc:	4628      	mov	r0, r5
 80a0bbe:	f002 fae9 	bl	80a3194 <HAL_GPIO_Init>

  /*Configure GPIO pin : PB0 */
  GPIO_InitStruct.Pin = GPIO_PIN_10;
 80a0bc2:	f44f 6380 	mov.w	r3, #1024	@ 0x400
 80a0bc6:	9305      	str	r3, [sp, #20]
  GPIO_InitStruct.Mode = GPIO_MODE_OUTPUT_PP;
 80a0bc8:	9606      	str	r6, [sp, #24]
  GPIO_InitStruct.Pull = GPIO_NOPULL;
 80a0bca:	9407      	str	r4, [sp, #28]
  GPIO_InitStruct.Speed = GPIO_SPEED_FREQ_LOW;
 80a0bcc:	9408      	str	r4, [sp, #32]
  HAL_GPIO_Init(GPIOB, &GPIO_InitStruct);
 80a0bce:	a905      	add	r1, sp, #20
 80a0bd0:	4628      	mov	r0, r5
 80a0bd2:	f002 fadf 	bl	80a3194 <HAL_GPIO_Init>


  /*Configure GPIO pin : PE0 as external interrupt input */
  GPIO_InitStruct.Pin = FSK_TRIG_Pin;
 80a0bd6:	9605      	str	r6, [sp, #20]
  GPIO_InitStruct.Mode = GPIO_MODE_IT_RISING;   // or FALLING if your trigger is active-low
 80a0bd8:	f44f 1388 	mov.w	r3, #1114112	@ 0x110000
 80a0bdc:	9306      	str	r3, [sp, #24]
  GPIO_InitStruct.Pull = GPIO_NOPULL;           // change to PULLDOWN/PULLUP if needed
 80a0bde:	9407      	str	r4, [sp, #28]
  HAL_GPIO_Init(FSK_TRIG_GPIO_Port, &GPIO_InitStruct);
 80a0be0:	a905      	add	r1, sp, #20
 80a0be2:	4638      	mov	r0, r7
 80a0be4:	f002 fad6 	bl	80a3194 <HAL_GPIO_Init>

  /* EXTI interrupt init */
  HAL_NVIC_SetPriority(EXTI0_IRQn, 5, 0);
 80a0be8:	4622      	mov	r2, r4
 80a0bea:	2105      	movs	r1, #5
 80a0bec:	2006      	movs	r0, #6
 80a0bee:	f000 ff1b 	bl	80a1a28 <HAL_NVIC_SetPriority>
  HAL_NVIC_EnableIRQ(EXTI0_IRQn);
 80a0bf2:	2006      	movs	r0, #6
 80a0bf4:	f000 ff28 	bl	80a1a48 <HAL_NVIC_EnableIRQ>

}
 80a0bf8:	b00b      	add	sp, #44	@ 0x2c
 80a0bfa:	bdf0      	pop	{r4, r5, r6, r7, pc}
 80a0bfc:	58024400 	.word	0x58024400
 80a0c00:	58020400 	.word	0x58020400
 80a0c04:	58021000 	.word	0x58021000

080a0c08 <MX_HRTIM_Init>:
HRTIM_HandleTypeDef hhrtim;
DMA_HandleTypeDef hdma_hrtim1_a;

/* HRTIM init function */
void MX_HRTIM_Init(void)
{
 80a0c08:	b510      	push	{r4, lr}
 80a0c0a:	b0a0      	sub	sp, #128	@ 0x80

  /* USER CODE BEGIN HRTIM_Init 0 */

  /* USER CODE END HRTIM_Init 0 */

  HRTIM_EventCfgTypeDef pEventCfg = {0};
 80a0c0c:	2400      	movs	r4, #0
 80a0c0e:	941b      	str	r4, [sp, #108]	@ 0x6c
 80a0c10:	941c      	str	r4, [sp, #112]	@ 0x70
 80a0c12:	941d      	str	r4, [sp, #116]	@ 0x74
 80a0c14:	941e      	str	r4, [sp, #120]	@ 0x78
 80a0c16:	941f      	str	r4, [sp, #124]	@ 0x7c
  HRTIM_TimeBaseCfgTypeDef pTimeBaseCfg = {0};
 80a0c18:	9417      	str	r4, [sp, #92]	@ 0x5c
 80a0c1a:	9418      	str	r4, [sp, #96]	@ 0x60
 80a0c1c:	9419      	str	r4, [sp, #100]	@ 0x64
 80a0c1e:	941a      	str	r4, [sp, #104]	@ 0x68
  HRTIM_TimerCfgTypeDef pTimerCfg = {0};
 80a0c20:	2254      	movs	r2, #84	@ 0x54
 80a0c22:	4621      	mov	r1, r4
 80a0c24:	a802      	add	r0, sp, #8
 80a0c26:	f005 f891 	bl	80a5d4c <memset>
  HRTIM_CaptureCfgTypeDef pCaptureCfg = {0};
 80a0c2a:	9401      	str	r4, [sp, #4]

  /* USER CODE BEGIN HRTIM_Init 1 */

  /* USER CODE END HRTIM_Init 1 */
  hhrtim.Instance = HRTIM1;
 80a0c2c:	4833      	ldr	r0, [pc, #204]	@ (80a0cfc <MX_HRTIM_Init+0xf4>)
 80a0c2e:	4b34      	ldr	r3, [pc, #208]	@ (80a0d00 <MX_HRTIM_Init+0xf8>)
 80a0c30:	6003      	str	r3, [r0, #0]
  hhrtim.Init.HRTIMInterruptResquests = HRTIM_IT_NONE;
 80a0c32:	6044      	str	r4, [r0, #4]
  hhrtim.Init.SyncOptions = HRTIM_SYNCOPTION_NONE;
 80a0c34:	6084      	str	r4, [r0, #8]
  if (HAL_HRTIM_Init(&hhrtim) != HAL_OK)
 80a0c36:	f002 fe53 	bl	80a38e0 <HAL_HRTIM_Init>
 80a0c3a:	2800      	cmp	r0, #0
 80a0c3c:	d14b      	bne.n	80a0cd6 <MX_HRTIM_Init+0xce>
  {
    Error_Handler();
  }
  if (HAL_HRTIM_EventPrescalerConfig(&hhrtim, HRTIM_EVENTPRESCALER_DIV1) != HAL_OK)
 80a0c3e:	2100      	movs	r1, #0
 80a0c40:	482e      	ldr	r0, [pc, #184]	@ (80a0cfc <MX_HRTIM_Init+0xf4>)
 80a0c42:	f002 fef0 	bl	80a3a26 <HAL_HRTIM_EventPrescalerConfig>
 80a0c46:	2800      	cmp	r0, #0
 80a0c48:	d148      	bne.n	80a0cdc <MX_HRTIM_Init+0xd4>
  {
    Error_Handler();
  }
  pEventCfg.Source = HRTIM_EVENTSRC_1;
 80a0c4a:	2300      	movs	r3, #0
 80a0c4c:	931b      	str	r3, [sp, #108]	@ 0x6c
  pEventCfg.Polarity = HRTIM_EVENTPOLARITY_HIGH;
 80a0c4e:	931c      	str	r3, [sp, #112]	@ 0x70
  pEventCfg.Sensitivity = HRTIM_EVENTSENSITIVITY_RISINGEDGE;
 80a0c50:	2208      	movs	r2, #8
 80a0c52:	921d      	str	r2, [sp, #116]	@ 0x74
  pEventCfg.Filter = HRTIM_EVENTFILTER_NONE;
 80a0c54:	931e      	str	r3, [sp, #120]	@ 0x78
  if (HAL_HRTIM_EventConfig(&hhrtim, HRTIM_EVENT_7, &pEventCfg) != HAL_OK)
 80a0c56:	aa1b      	add	r2, sp, #108	@ 0x6c
 80a0c58:	2107      	movs	r1, #7
 80a0c5a:	4828      	ldr	r0, [pc, #160]	@ (80a0cfc <MX_HRTIM_Init+0xf4>)
 80a0c5c:	f002 fec7 	bl	80a39ee <HAL_HRTIM_EventConfig>
 80a0c60:	2800      	cmp	r0, #0
 80a0c62:	d13e      	bne.n	80a0ce2 <MX_HRTIM_Init+0xda>
  {
    Error_Handler();
  }
  pTimeBaseCfg.Period = 0xFFFD;
 80a0c64:	f64f 73fd 	movw	r3, #65533	@ 0xfffd
 80a0c68:	9317      	str	r3, [sp, #92]	@ 0x5c
  pTimeBaseCfg.RepetitionCounter = 0x00;
 80a0c6a:	2100      	movs	r1, #0
 80a0c6c:	9118      	str	r1, [sp, #96]	@ 0x60
  pTimeBaseCfg.PrescalerRatio = HRTIM_PRESCALERRATIO_DIV1;
 80a0c6e:	2305      	movs	r3, #5
 80a0c70:	9319      	str	r3, [sp, #100]	@ 0x64
  pTimeBaseCfg.Mode = HRTIM_MODE_CONTINUOUS;
 80a0c72:	2308      	movs	r3, #8
 80a0c74:	931a      	str	r3, [sp, #104]	@ 0x68
  if (HAL_HRTIM_TimeBaseConfig(&hhrtim, HRTIM_TIMERINDEX_TIMER_A, &pTimeBaseCfg) != HAL_OK)
 80a0c76:	aa17      	add	r2, sp, #92	@ 0x5c
 80a0c78:	4820      	ldr	r0, [pc, #128]	@ (80a0cfc <MX_HRTIM_Init+0xf4>)
 80a0c7a:	f002 fe9f 	bl	80a39bc <HAL_HRTIM_TimeBaseConfig>
 80a0c7e:	2800      	cmp	r0, #0
 80a0c80:	d132      	bne.n	80a0ce8 <MX_HRTIM_Init+0xe0>
  {
    Error_Handler();
  }
  pTimerCfg.InterruptRequests = HRTIM_TIM_IT_NONE;
 80a0c82:	2100      	movs	r1, #0
 80a0c84:	9102      	str	r1, [sp, #8]
  pTimerCfg.DMARequests = HRTIM_TIM_DMA_CPT1;
 80a0c86:	f44f 0300 	mov.w	r3, #8388608	@ 0x800000
 80a0c8a:	9303      	str	r3, [sp, #12]
  pTimerCfg.DMASrcAddress = 0x0000;
 80a0c8c:	9104      	str	r1, [sp, #16]
  pTimerCfg.DMADstAddress = 0x0000;
 80a0c8e:	9105      	str	r1, [sp, #20]
  pTimerCfg.DMASize = 0x1;
 80a0c90:	2301      	movs	r3, #1
 80a0c92:	9306      	str	r3, [sp, #24]
  pTimerCfg.HalfModeEnable = HRTIM_HALFMODE_DISABLED;
 80a0c94:	9107      	str	r1, [sp, #28]
  pTimerCfg.StartOnSync = HRTIM_SYNCSTART_DISABLED;
 80a0c96:	9108      	str	r1, [sp, #32]
  pTimerCfg.ResetOnSync = HRTIM_SYNCRESET_DISABLED;
 80a0c98:	9109      	str	r1, [sp, #36]	@ 0x24
  pTimerCfg.DACSynchro = HRTIM_DACSYNC_NONE;
 80a0c9a:	910a      	str	r1, [sp, #40]	@ 0x28
  pTimerCfg.PreloadEnable = HRTIM_PRELOAD_DISABLED;
 80a0c9c:	910b      	str	r1, [sp, #44]	@ 0x2c
  pTimerCfg.UpdateGating = HRTIM_UPDATEGATING_INDEPENDENT;
 80a0c9e:	910c      	str	r1, [sp, #48]	@ 0x30
  pTimerCfg.BurstMode = HRTIM_TIMERBURSTMODE_MAINTAINCLOCK;
 80a0ca0:	910d      	str	r1, [sp, #52]	@ 0x34
  pTimerCfg.RepetitionUpdate = HRTIM_UPDATEONREPETITION_DISABLED;
 80a0ca2:	910e      	str	r1, [sp, #56]	@ 0x38
  pTimerCfg.PushPull = HRTIM_TIMPUSHPULLMODE_DISABLED;
 80a0ca4:	910f      	str	r1, [sp, #60]	@ 0x3c
  pTimerCfg.FaultEnable = HRTIM_TIMFAULTENABLE_NONE;
 80a0ca6:	9110      	str	r1, [sp, #64]	@ 0x40
  pTimerCfg.FaultLock = HRTIM_TIMFAULTLOCK_READWRITE;
 80a0ca8:	9111      	str	r1, [sp, #68]	@ 0x44
  pTimerCfg.DeadTimeInsertion = HRTIM_TIMDEADTIMEINSERTION_DISABLED;
 80a0caa:	9112      	str	r1, [sp, #72]	@ 0x48
  pTimerCfg.DelayedProtectionMode = HRTIM_TIMER_A_B_C_DELAYEDPROTECTION_DISABLED;
 80a0cac:	9113      	str	r1, [sp, #76]	@ 0x4c
  pTimerCfg.UpdateTrigger = HRTIM_TIMUPDATETRIGGER_NONE;
 80a0cae:	9114      	str	r1, [sp, #80]	@ 0x50
  pTimerCfg.ResetTrigger = HRTIM_TIMRESETTRIGGER_NONE;
 80a0cb0:	9115      	str	r1, [sp, #84]	@ 0x54
  pTimerCfg.ResetUpdate = HRTIM_TIMUPDATEONRESET_DISABLED;
 80a0cb2:	9116      	str	r1, [sp, #88]	@ 0x58
  if (HAL_HRTIM_WaveformTimerConfig(&hhrtim, HRTIM_TIMERINDEX_TIMER_A, &pTimerCfg) != HAL_OK)
 80a0cb4:	aa02      	add	r2, sp, #8
 80a0cb6:	4811      	ldr	r0, [pc, #68]	@ (80a0cfc <MX_HRTIM_Init+0xf4>)
 80a0cb8:	f002 fedb 	bl	80a3a72 <HAL_HRTIM_WaveformTimerConfig>
 80a0cbc:	b9b8      	cbnz	r0, 80a0cee <MX_HRTIM_Init+0xe6>
  {
    Error_Handler();
  }
  pCaptureCfg.Trigger = HRTIM_CAPTURETRIGGER_EEV_7;
 80a0cbe:	f44f 7380 	mov.w	r3, #256	@ 0x100
 80a0cc2:	9301      	str	r3, [sp, #4]
  if (HAL_HRTIM_WaveformCaptureConfig(&hhrtim, HRTIM_TIMERINDEX_TIMER_A, HRTIM_CAPTUREUNIT_1, &pCaptureCfg) != HAL_OK)
 80a0cc4:	ab01      	add	r3, sp, #4
 80a0cc6:	2201      	movs	r2, #1
 80a0cc8:	2100      	movs	r1, #0
 80a0cca:	480c      	ldr	r0, [pc, #48]	@ (80a0cfc <MX_HRTIM_Init+0xf4>)
 80a0ccc:	f002 ff09 	bl	80a3ae2 <HAL_HRTIM_WaveformCaptureConfig>
 80a0cd0:	b980      	cbnz	r0, 80a0cf4 <MX_HRTIM_Init+0xec>
  }
  /* USER CODE BEGIN HRTIM_Init 2 */

  /* USER CODE END HRTIM_Init 2 */

}
 80a0cd2:	b020      	add	sp, #128	@ 0x80
 80a0cd4:	bd10      	pop	{r4, pc}
    Error_Handler();
 80a0cd6:	f000 fa55 	bl	80a1184 <Error_Handler>
 80a0cda:	e7b0      	b.n	80a0c3e <MX_HRTIM_Init+0x36>
    Error_Handler();
 80a0cdc:	f000 fa52 	bl	80a1184 <Error_Handler>
 80a0ce0:	e7b3      	b.n	80a0c4a <MX_HRTIM_Init+0x42>
    Error_Handler();
 80a0ce2:	f000 fa4f 	bl	80a1184 <Error_Handler>
 80a0ce6:	e7bd      	b.n	80a0c64 <MX_HRTIM_Init+0x5c>
    Error_Handler();
 80a0ce8:	f000 fa4c 	bl	80a1184 <Error_Handler>
 80a0cec:	e7c9      	b.n	80a0c82 <MX_HRTIM_Init+0x7a>
    Error_Handler();
 80a0cee:	f000 fa49 	bl	80a1184 <Error_Handler>
 80a0cf2:	e7e4      	b.n	80a0cbe <MX_HRTIM_Init+0xb6>
    Error_Handler();
 80a0cf4:	f000 fa46 	bl	80a1184 <Error_Handler>
}
 80a0cf8:	e7eb      	b.n	80a0cd2 <MX_HRTIM_Init+0xca>
 80a0cfa:	bf00      	nop
 80a0cfc:	3800226c 	.word	0x3800226c
 80a0d00:	40017400 	.word	0x40017400

080a0d04 <HAL_HRTIM_MspInit>:

void HAL_HRTIM_MspInit(HRTIM_HandleTypeDef* hrtimHandle)
{
 80a0d04:	b530      	push	{r4, r5, lr}
 80a0d06:	b0b9      	sub	sp, #228	@ 0xe4
 80a0d08:	4604      	mov	r4, r0

  GPIO_InitTypeDef GPIO_InitStruct = {0};
 80a0d0a:	2100      	movs	r1, #0
 80a0d0c:	9133      	str	r1, [sp, #204]	@ 0xcc
 80a0d0e:	9134      	str	r1, [sp, #208]	@ 0xd0
 80a0d10:	9135      	str	r1, [sp, #212]	@ 0xd4
 80a0d12:	9136      	str	r1, [sp, #216]	@ 0xd8
 80a0d14:	9137      	str	r1, [sp, #220]	@ 0xdc
  RCC_PeriphCLKInitTypeDef PeriphClkInitStruct = {0};
 80a0d16:	22c0      	movs	r2, #192	@ 0xc0
 80a0d18:	a802      	add	r0, sp, #8
 80a0d1a:	f005 f817 	bl	80a5d4c <memset>
  if(hrtimHandle->Instance==HRTIM1)
 80a0d1e:	6822      	ldr	r2, [r4, #0]
 80a0d20:	4b2e      	ldr	r3, [pc, #184]	@ (80a0ddc <HAL_HRTIM_MspInit+0xd8>)
 80a0d22:	429a      	cmp	r2, r3
 80a0d24:	d001      	beq.n	80a0d2a <HAL_HRTIM_MspInit+0x26>

  /* USER CODE BEGIN HRTIM1_MspInit 1 */

  /* USER CODE END HRTIM1_MspInit 1 */
  }
}
 80a0d26:	b039      	add	sp, #228	@ 0xe4
 80a0d28:	bd30      	pop	{r4, r5, pc}
    PeriphClkInitStruct.PeriphClockSelection = RCC_PERIPHCLK_HRTIM1;
 80a0d2a:	f04f 5280 	mov.w	r2, #268435456	@ 0x10000000
 80a0d2e:	2300      	movs	r3, #0
 80a0d30:	e9cd 2302 	strd	r2, r3, [sp, #8]
    PeriphClkInitStruct.Hrtim1ClockSelection = RCC_HRTIM1CLK_CPUCLK;
 80a0d34:	f44f 4380 	mov.w	r3, #16384	@ 0x4000
 80a0d38:	9330      	str	r3, [sp, #192]	@ 0xc0
    if (HAL_RCCEx_PeriphCLKConfig(&PeriphClkInitStruct) != HAL_OK)
 80a0d3a:	a802      	add	r0, sp, #8
 80a0d3c:	f003 f9b2 	bl	80a40a4 <HAL_RCCEx_PeriphCLKConfig>
 80a0d40:	2800      	cmp	r0, #0
 80a0d42:	d144      	bne.n	80a0dce <HAL_HRTIM_MspInit+0xca>
    __HAL_RCC_HRTIM1_CLK_ENABLE();
 80a0d44:	4b26      	ldr	r3, [pc, #152]	@ (80a0de0 <HAL_HRTIM_MspInit+0xdc>)
 80a0d46:	f8d3 20f0 	ldr.w	r2, [r3, #240]	@ 0xf0
 80a0d4a:	f042 5200 	orr.w	r2, r2, #536870912	@ 0x20000000
 80a0d4e:	f8c3 20f0 	str.w	r2, [r3, #240]	@ 0xf0
 80a0d52:	f8d3 20f0 	ldr.w	r2, [r3, #240]	@ 0xf0
 80a0d56:	f002 5200 	and.w	r2, r2, #536870912	@ 0x20000000
 80a0d5a:	9200      	str	r2, [sp, #0]
 80a0d5c:	9a00      	ldr	r2, [sp, #0]
    __HAL_RCC_GPIOB_CLK_ENABLE();
 80a0d5e:	f8d3 20e0 	ldr.w	r2, [r3, #224]	@ 0xe0
 80a0d62:	f042 0202 	orr.w	r2, r2, #2
 80a0d66:	f8c3 20e0 	str.w	r2, [r3, #224]	@ 0xe0
 80a0d6a:	f8d3 30e0 	ldr.w	r3, [r3, #224]	@ 0xe0
 80a0d6e:	f003 0302 	and.w	r3, r3, #2
 80a0d72:	9301      	str	r3, [sp, #4]
 80a0d74:	9b01      	ldr	r3, [sp, #4]
    GPIO_InitStruct.Pin = GPIO_PIN_5;
 80a0d76:	2320      	movs	r3, #32
 80a0d78:	9333      	str	r3, [sp, #204]	@ 0xcc
    GPIO_InitStruct.Mode = GPIO_MODE_AF_PP;
 80a0d7a:	2302      	movs	r3, #2
 80a0d7c:	9334      	str	r3, [sp, #208]	@ 0xd0
    GPIO_InitStruct.Pull = GPIO_NOPULL;
 80a0d7e:	2500      	movs	r5, #0
 80a0d80:	9535      	str	r5, [sp, #212]	@ 0xd4
    GPIO_InitStruct.Speed = GPIO_SPEED_FREQ_LOW;
 80a0d82:	9536      	str	r5, [sp, #216]	@ 0xd8
    GPIO_InitStruct.Alternate = GPIO_AF3_HRTIM1;
 80a0d84:	2303      	movs	r3, #3
 80a0d86:	9337      	str	r3, [sp, #220]	@ 0xdc
    HAL_GPIO_Init(GPIOB, &GPIO_InitStruct);
 80a0d88:	a933      	add	r1, sp, #204	@ 0xcc
 80a0d8a:	4816      	ldr	r0, [pc, #88]	@ (80a0de4 <HAL_HRTIM_MspInit+0xe0>)
 80a0d8c:	f002 fa02 	bl	80a3194 <HAL_GPIO_Init>
    hdma_hrtim1_a.Instance = DMA1_Stream6;
 80a0d90:	4815      	ldr	r0, [pc, #84]	@ (80a0de8 <HAL_HRTIM_MspInit+0xe4>)
 80a0d92:	4b16      	ldr	r3, [pc, #88]	@ (80a0dec <HAL_HRTIM_MspInit+0xe8>)
 80a0d94:	6003      	str	r3, [r0, #0]
    hdma_hrtim1_a.Init.Request = DMA_REQUEST_HRTIM_TIMER_A;
 80a0d96:	2360      	movs	r3, #96	@ 0x60
 80a0d98:	6043      	str	r3, [r0, #4]
    hdma_hrtim1_a.Init.Direction = DMA_PERIPH_TO_MEMORY;
 80a0d9a:	6085      	str	r5, [r0, #8]
    hdma_hrtim1_a.Init.PeriphInc = DMA_PINC_DISABLE;
 80a0d9c:	60c5      	str	r5, [r0, #12]
    hdma_hrtim1_a.Init.MemInc = DMA_MINC_ENABLE;
 80a0d9e:	f44f 6380 	mov.w	r3, #1024	@ 0x400
 80a0da2:	6103      	str	r3, [r0, #16]
    hdma_hrtim1_a.Init.PeriphDataAlignment = DMA_PDATAALIGN_WORD;
 80a0da4:	f44f 5380 	mov.w	r3, #4096	@ 0x1000
 80a0da8:	6143      	str	r3, [r0, #20]
    hdma_hrtim1_a.Init.MemDataAlignment = DMA_MDATAALIGN_WORD;
 80a0daa:	f44f 4380 	mov.w	r3, #16384	@ 0x4000
 80a0dae:	6183      	str	r3, [r0, #24]
    hdma_hrtim1_a.Init.Mode = DMA_CIRCULAR;
 80a0db0:	f44f 7380 	mov.w	r3, #256	@ 0x100
 80a0db4:	61c3      	str	r3, [r0, #28]
    hdma_hrtim1_a.Init.Priority = DMA_PRIORITY_HIGH;
 80a0db6:	f44f 3300 	mov.w	r3, #131072	@ 0x20000
 80a0dba:	6203      	str	r3, [r0, #32]
    hdma_hrtim1_a.Init.FIFOMode = DMA_FIFOMODE_DISABLE;
 80a0dbc:	6245      	str	r5, [r0, #36]	@ 0x24
    if (HAL_DMA_Init(&hdma_hrtim1_a) != HAL_OK)
 80a0dbe:	f001 f86d 	bl	80a1e9c <HAL_DMA_Init>
 80a0dc2:	b938      	cbnz	r0, 80a0dd4 <HAL_HRTIM_MspInit+0xd0>
    __HAL_LINKDMA(hrtimHandle,hdmaTimerA,hdma_hrtim1_a);
 80a0dc4:	4b08      	ldr	r3, [pc, #32]	@ (80a0de8 <HAL_HRTIM_MspInit+0xe4>)
 80a0dc6:	f8c4 30c8 	str.w	r3, [r4, #200]	@ 0xc8
 80a0dca:	639c      	str	r4, [r3, #56]	@ 0x38
}
 80a0dcc:	e7ab      	b.n	80a0d26 <HAL_HRTIM_MspInit+0x22>
      Error_Handler();
 80a0dce:	f000 f9d9 	bl	80a1184 <Error_Handler>
 80a0dd2:	e7b7      	b.n	80a0d44 <HAL_HRTIM_MspInit+0x40>
      Error_Handler();
 80a0dd4:	f000 f9d6 	bl	80a1184 <Error_Handler>
 80a0dd8:	e7f4      	b.n	80a0dc4 <HAL_HRTIM_MspInit+0xc0>
 80a0dda:	bf00      	nop
 80a0ddc:	40017400 	.word	0x40017400
 80a0de0:	58024400 	.word	0x58024400
 80a0de4:	58020400 	.word	0x58020400
 80a0de8:	380021f4 	.word	0x380021f4
 80a0dec:	400200a0 	.word	0x400200a0

080a0df0 <ipc_shm_init>:
volatile shm_packet_t SHM_M4_TO_M7;

volatile uint8_t packet_ready = 0;

void ipc_shm_init(void)
{
 80a0df0:	b510      	push	{r4, lr}
    memset((void*)&SHM_M7_TO_M4, 0, sizeof(SHM_M7_TO_M4));
 80a0df2:	f44f 7490 	mov.w	r4, #288	@ 0x120
 80a0df6:	4622      	mov	r2, r4
 80a0df8:	2100      	movs	r1, #0
 80a0dfa:	4805      	ldr	r0, [pc, #20]	@ (80a0e10 <ipc_shm_init+0x20>)
 80a0dfc:	f004 ffa6 	bl	80a5d4c <memset>
    memset((void*)&SHM_M4_TO_M7, 0, sizeof(SHM_M4_TO_M7));
 80a0e00:	4622      	mov	r2, r4
 80a0e02:	2100      	movs	r1, #0
 80a0e04:	4803      	ldr	r0, [pc, #12]	@ (80a0e14 <ipc_shm_init+0x24>)
 80a0e06:	f004 ffa1 	bl	80a5d4c <memset>
  \details Ensures the apparent order of the explicit memory operations before
           and after the instruction, without ensuring their completion.
 */
__STATIC_FORCEINLINE void __DMB(void)
{
  __ASM volatile ("dmb 0xF":::"memory");
 80a0e0a:	f3bf 8f5f 	dmb	sy
    __DMB();
}
 80a0e0e:	bd10      	pop	{r4, pc}
 80a0e10:	30047120 	.word	0x30047120
 80a0e14:	30047000 	.word	0x30047000

080a0e18 <HAL_HSEM_FreeCallback>:
 * @see HAL_HSEM_ActivateNotification()
 * @see __HAL_HSEM_SEMID_TO_MASK()
 */
void HAL_HSEM_FreeCallback(uint32_t SemMask)
{
    if (SemMask & __HAL_HSEM_SEMID_TO_MASK(HSEM_CM7_TO_CM4))
 80a0e18:	f010 0f02 	tst.w	r0, #2
 80a0e1c:	d100      	bne.n	80a0e20 <HAL_HSEM_FreeCallback+0x8>
 80a0e1e:	4770      	bx	lr
{
 80a0e20:	b508      	push	{r3, lr}
    {
        packet_ready = 1;
 80a0e22:	4b03      	ldr	r3, [pc, #12]	@ (80a0e30 <HAL_HSEM_FreeCallback+0x18>)
 80a0e24:	2201      	movs	r2, #1
 80a0e26:	701a      	strb	r2, [r3, #0]

        /* Re-arm if one-shot */
        HAL_HSEM_ActivateNotification(__HAL_HSEM_SEMID_TO_MASK(HSEM_CM7_TO_CM4));
 80a0e28:	2002      	movs	r0, #2
 80a0e2a:	f002 febf 	bl	80a3bac <HAL_HSEM_ActivateNotification>
    }
}
 80a0e2e:	bd08      	pop	{r3, pc}
 80a0e30:	38002348 	.word	0x38002348

080a0e34 <ipc_stream_init>:
 * @note This should normally be called only by the owner core responsible
 *       for initial shared-memory setup.
 */
static inline void ipc_stream_init(void)
{
    g_ipc_stream_cm4_to_cm7.wr         = 0U;
 80a0e34:	4a09      	ldr	r2, [pc, #36]	@ (80a0e5c <ipc_stream_init+0x28>)
 80a0e36:	2300      	movs	r3, #0
 80a0e38:	6013      	str	r3, [r2, #0]
    g_ipc_stream_cm4_to_cm7.rd         = 0U;
 80a0e3a:	6053      	str	r3, [r2, #4]
    g_ipc_stream_cm4_to_cm7.dropped    = 0U;
 80a0e3c:	6093      	str	r3, [r2, #8]
    g_ipc_stream_cm4_to_cm7.high_water = 0U;
 80a0e3e:	60d3      	str	r3, [r2, #12]

    for (uint32_t i = 0U; i < IPC_STREAM_RING_SIZE; i++)
 80a0e40:	e004      	b.n	80a0e4c <ipc_stream_init+0x18>
    {
        g_ipc_stream_cm4_to_cm7.data[i] = 0U;
 80a0e42:	4a06      	ldr	r2, [pc, #24]	@ (80a0e5c <ipc_stream_init+0x28>)
 80a0e44:	441a      	add	r2, r3
 80a0e46:	2100      	movs	r1, #0
 80a0e48:	7411      	strb	r1, [r2, #16]
    for (uint32_t i = 0U; i < IPC_STREAM_RING_SIZE; i++)
 80a0e4a:	3301      	adds	r3, #1
 80a0e4c:	f64f 72df 	movw	r2, #65503	@ 0xffdf
 80a0e50:	4293      	cmp	r3, r2
 80a0e52:	d9f6      	bls.n	80a0e42 <ipc_stream_init+0xe>
 80a0e54:	f3bf 8f5f 	dmb	sy
    }

    __DMB();
}
 80a0e58:	4770      	bx	lr
 80a0e5a:	bf00      	nop
 80a0e5c:	30037000 	.word	0x30037000

080a0e60 <HAL_DMA_XferHalfCpltCallback>:
#endif
}

void HAL_DMA_XferHalfCpltCallback(DMA_HandleTypeDef *hdma)
{
	uint32_t start = DWT->CYCCNT;
 80a0e60:	4b0c      	ldr	r3, [pc, #48]	@ (80a0e94 <HAL_DMA_XferHalfCpltCallback+0x34>)
 80a0e62:	685a      	ldr	r2, [r3, #4]
    if (hdma == &hdma_hrtim1_a)
 80a0e64:	4b0c      	ldr	r3, [pc, #48]	@ (80a0e98 <HAL_DMA_XferHalfCpltCallback+0x38>)
 80a0e66:	4283      	cmp	r3, r0
 80a0e68:	d009      	beq.n	80a0e7e <HAL_DMA_XferHalfCpltCallback+0x1e>
        {
            dma_half_overrun++;
        }
        dma_half_ready = 1;
    }
    uint32_t end = DWT->CYCCNT;
 80a0e6a:	4b0a      	ldr	r3, [pc, #40]	@ (80a0e94 <HAL_DMA_XferHalfCpltCallback+0x34>)
 80a0e6c:	685b      	ldr	r3, [r3, #4]

    uint32_t cycles = end - start;
 80a0e6e:	1a9b      	subs	r3, r3, r2


    if (cycles > max_cycles)
 80a0e70:	4a0a      	ldr	r2, [pc, #40]	@ (80a0e9c <HAL_DMA_XferHalfCpltCallback+0x3c>)
 80a0e72:	6812      	ldr	r2, [r2, #0]
 80a0e74:	429a      	cmp	r2, r3
 80a0e76:	d201      	bcs.n	80a0e7c <HAL_DMA_XferHalfCpltCallback+0x1c>
    	max_cycles = cycles;
 80a0e78:	4a08      	ldr	r2, [pc, #32]	@ (80a0e9c <HAL_DMA_XferHalfCpltCallback+0x3c>)
 80a0e7a:	6013      	str	r3, [r2, #0]
}
 80a0e7c:	4770      	bx	lr
        if (dma_half_ready)
 80a0e7e:	4b08      	ldr	r3, [pc, #32]	@ (80a0ea0 <HAL_DMA_XferHalfCpltCallback+0x40>)
 80a0e80:	781b      	ldrb	r3, [r3, #0]
 80a0e82:	b11b      	cbz	r3, 80a0e8c <HAL_DMA_XferHalfCpltCallback+0x2c>
            dma_half_overrun++;
 80a0e84:	4907      	ldr	r1, [pc, #28]	@ (80a0ea4 <HAL_DMA_XferHalfCpltCallback+0x44>)
 80a0e86:	680b      	ldr	r3, [r1, #0]
 80a0e88:	3301      	adds	r3, #1
 80a0e8a:	600b      	str	r3, [r1, #0]
        dma_half_ready = 1;
 80a0e8c:	4b04      	ldr	r3, [pc, #16]	@ (80a0ea0 <HAL_DMA_XferHalfCpltCallback+0x40>)
 80a0e8e:	2101      	movs	r1, #1
 80a0e90:	7019      	strb	r1, [r3, #0]
 80a0e92:	e7ea      	b.n	80a0e6a <HAL_DMA_XferHalfCpltCallback+0xa>
 80a0e94:	e0001000 	.word	0xe0001000
 80a0e98:	380021f4 	.word	0x380021f4
 80a0e9c:	380023c8 	.word	0x380023c8
 80a0ea0:	380023c5 	.word	0x380023c5
 80a0ea4:	380023c0 	.word	0x380023c0

080a0ea8 <HAL_DMA_XferCpltCallback>:

        capture_active = 0;
        capture_done = 1;
    }
#else
	uint32_t start = DWT->CYCCNT;
 80a0ea8:	4b0c      	ldr	r3, [pc, #48]	@ (80a0edc <HAL_DMA_XferCpltCallback+0x34>)
 80a0eaa:	685a      	ldr	r2, [r3, #4]
    if (hdma == &hdma_hrtim1_a)
 80a0eac:	4b0c      	ldr	r3, [pc, #48]	@ (80a0ee0 <HAL_DMA_XferCpltCallback+0x38>)
 80a0eae:	4283      	cmp	r3, r0
 80a0eb0:	d009      	beq.n	80a0ec6 <HAL_DMA_XferCpltCallback+0x1e>
            dma_full_overrun++;
        }
        dma_full_ready = 1;

    }
    uint32_t end = DWT->CYCCNT;
 80a0eb2:	4b0a      	ldr	r3, [pc, #40]	@ (80a0edc <HAL_DMA_XferCpltCallback+0x34>)
 80a0eb4:	685b      	ldr	r3, [r3, #4]

    uint32_t cycles = end - start;
 80a0eb6:	1a9b      	subs	r3, r3, r2

    if (cycles > max_cycles)
 80a0eb8:	4a0a      	ldr	r2, [pc, #40]	@ (80a0ee4 <HAL_DMA_XferCpltCallback+0x3c>)
 80a0eba:	6812      	ldr	r2, [r2, #0]
 80a0ebc:	429a      	cmp	r2, r3
 80a0ebe:	d201      	bcs.n	80a0ec4 <HAL_DMA_XferCpltCallback+0x1c>
    	max_cycles = cycles;
 80a0ec0:	4a08      	ldr	r2, [pc, #32]	@ (80a0ee4 <HAL_DMA_XferCpltCallback+0x3c>)
 80a0ec2:	6013      	str	r3, [r2, #0]
#endif
}
 80a0ec4:	4770      	bx	lr
        if (dma_full_ready)
 80a0ec6:	4b08      	ldr	r3, [pc, #32]	@ (80a0ee8 <HAL_DMA_XferCpltCallback+0x40>)
 80a0ec8:	781b      	ldrb	r3, [r3, #0]
 80a0eca:	b11b      	cbz	r3, 80a0ed4 <HAL_DMA_XferCpltCallback+0x2c>
            dma_full_overrun++;
 80a0ecc:	4907      	ldr	r1, [pc, #28]	@ (80a0eec <HAL_DMA_XferCpltCallback+0x44>)
 80a0ece:	680b      	ldr	r3, [r1, #0]
 80a0ed0:	3301      	adds	r3, #1
 80a0ed2:	600b      	str	r3, [r1, #0]
        dma_full_ready = 1;
 80a0ed4:	4b04      	ldr	r3, [pc, #16]	@ (80a0ee8 <HAL_DMA_XferCpltCallback+0x40>)
 80a0ed6:	2101      	movs	r1, #1
 80a0ed8:	7019      	strb	r1, [r3, #0]
 80a0eda:	e7ea      	b.n	80a0eb2 <HAL_DMA_XferCpltCallback+0xa>
 80a0edc:	e0001000 	.word	0xe0001000
 80a0ee0:	380021f4 	.word	0x380021f4
 80a0ee4:	380023c8 	.word	0x380023c8
 80a0ee8:	380023c4 	.word	0x380023c4
 80a0eec:	380023bc 	.word	0x380023bc

080a0ef0 <SPI_PrepareData>:
void SPI_PrepareData(void) {
 80a0ef0:	b508      	push	{r3, lr}
  spi_pkt_buf[0] = 0x25;
 80a0ef2:	4a04      	ldr	r2, [pc, #16]	@ (80a0f04 <SPI_PrepareData+0x14>)
 80a0ef4:	2325      	movs	r3, #37	@ 0x25
 80a0ef6:	7013      	strb	r3, [r2, #0]
  Qi_BuildPacket(&pkt, 0x01, spi_pkt_buf, payload_len);
 80a0ef8:	2301      	movs	r3, #1
 80a0efa:	4619      	mov	r1, r3
 80a0efc:	4802      	ldr	r0, [pc, #8]	@ (80a0f08 <SPI_PrepareData+0x18>)
 80a0efe:	f000 f9e9 	bl	80a12d4 <Qi_BuildPacket>
}
 80a0f02:	bd08      	pop	{r3, pc}
 80a0f04:	38002374 	.word	0x38002374
 80a0f08:	3800234c 	.word	0x3800234c

080a0f0c <HAL_SPI_TxRxCpltCallback>:
void HAL_SPI_TxRxCpltCallback(SPI_HandleTypeDef *hspi) {
 80a0f0c:	b508      	push	{r3, lr}
  if (hspi->Instance == SPI1) {
 80a0f0e:	6802      	ldr	r2, [r0, #0]
 80a0f10:	4b08      	ldr	r3, [pc, #32]	@ (80a0f34 <HAL_SPI_TxRxCpltCallback+0x28>)
 80a0f12:	429a      	cmp	r2, r3
 80a0f14:	d000      	beq.n	80a0f18 <HAL_SPI_TxRxCpltCallback+0xc>
}
 80a0f16:	bd08      	pop	{r3, pc}
	__HAL_SPI_DISABLE(&hspi1);
 80a0f18:	4b07      	ldr	r3, [pc, #28]	@ (80a0f38 <HAL_SPI_TxRxCpltCallback+0x2c>)
 80a0f1a:	681a      	ldr	r2, [r3, #0]
 80a0f1c:	6813      	ldr	r3, [r2, #0]
 80a0f1e:	f023 0301 	bic.w	r3, r3, #1
 80a0f22:	6013      	str	r3, [r2, #0]
    HAL_TIM_PWM_Stop(&htim2, TIM_CHANNEL_1);
 80a0f24:	2100      	movs	r1, #0
 80a0f26:	4805      	ldr	r0, [pc, #20]	@ (80a0f3c <HAL_SPI_TxRxCpltCallback+0x30>)
 80a0f28:	f004 fe60 	bl	80a5bec <HAL_TIM_PWM_Stop>
    spi_tx = 1;
 80a0f2c:	4b04      	ldr	r3, [pc, #16]	@ (80a0f40 <HAL_SPI_TxRxCpltCallback+0x34>)
 80a0f2e:	2201      	movs	r2, #1
 80a0f30:	701a      	strb	r2, [r3, #0]
}
 80a0f32:	e7f0      	b.n	80a0f16 <HAL_SPI_TxRxCpltCallback+0xa>
 80a0f34:	40013000 	.word	0x40013000
 80a0f38:	38002544 	.word	0x38002544
 80a0f3c:	38002618 	.word	0x38002618
 80a0f40:	3800236f 	.word	0x3800236f

080a0f44 <HAL_SPI_ErrorCallback>:
  if (hspi->Instance == SPI1) {
 80a0f44:	6803      	ldr	r3, [r0, #0]
 80a0f46:	4a06      	ldr	r2, [pc, #24]	@ (80a0f60 <HAL_SPI_ErrorCallback+0x1c>)
 80a0f48:	4293      	cmp	r3, r2
 80a0f4a:	d000      	beq.n	80a0f4e <HAL_SPI_ErrorCallback+0xa>
}
 80a0f4c:	4770      	bx	lr
    __HAL_SPI_CLEAR_OVRFLAG(hspi);
 80a0f4e:	699a      	ldr	r2, [r3, #24]
 80a0f50:	f042 0240 	orr.w	r2, r2, #64	@ 0x40
 80a0f54:	619a      	str	r2, [r3, #24]
    spi_tx = 1;
 80a0f56:	4b03      	ldr	r3, [pc, #12]	@ (80a0f64 <HAL_SPI_ErrorCallback+0x20>)
 80a0f58:	2201      	movs	r2, #1
 80a0f5a:	701a      	strb	r2, [r3, #0]
}
 80a0f5c:	e7f6      	b.n	80a0f4c <HAL_SPI_ErrorCallback+0x8>
 80a0f5e:	bf00      	nop
 80a0f60:	40013000 	.word	0x40013000
 80a0f64:	3800236f 	.word	0x3800236f

080a0f68 <start_capture>:
    if (capture_active)
 80a0f68:	4b10      	ldr	r3, [pc, #64]	@ (80a0fac <start_capture+0x44>)
 80a0f6a:	781b      	ldrb	r3, [r3, #0]
 80a0f6c:	b103      	cbz	r3, 80a0f70 <start_capture+0x8>
 80a0f6e:	4770      	bx	lr
{
 80a0f70:	b510      	push	{r4, lr}
    capture_active = 1;
 80a0f72:	4b0e      	ldr	r3, [pc, #56]	@ (80a0fac <start_capture+0x44>)
 80a0f74:	2201      	movs	r2, #1
 80a0f76:	701a      	strb	r2, [r3, #0]
    capture_done   = 0;
 80a0f78:	2400      	movs	r4, #0
 80a0f7a:	4b0d      	ldr	r3, [pc, #52]	@ (80a0fb0 <start_capture+0x48>)
 80a0f7c:	701c      	strb	r4, [r3, #0]
    fsk_decoder_reset_state();
 80a0f7e:	f7ff fd59 	bl	80a0a34 <fsk_decoder_reset_state>
    HRTIM1->sTimerxRegs[HRTIM_TIMERINDEX_TIMER_A].CNTxR = 0;
 80a0f82:	4b0c      	ldr	r3, [pc, #48]	@ (80a0fb4 <start_capture+0x4c>)
 80a0f84:	f8c3 4090 	str.w	r4, [r3, #144]	@ 0x90
    HRTIM1->sTimerxRegs[HRTIM_TIMERINDEX_TIMER_A].TIMxDIER |=
 80a0f88:	f8d3 208c 	ldr.w	r2, [r3, #140]	@ 0x8c
 80a0f8c:	f442 0200 	orr.w	r2, r2, #8388608	@ 0x800000
 80a0f90:	f8c3 208c 	str.w	r2, [r3, #140]	@ 0x8c
    hdma_hrtim1_a.XferHalfCpltCallback = HAL_DMA_XferHalfCpltCallback;
 80a0f94:	4808      	ldr	r0, [pc, #32]	@ (80a0fb8 <start_capture+0x50>)
 80a0f96:	4b09      	ldr	r3, [pc, #36]	@ (80a0fbc <start_capture+0x54>)
 80a0f98:	6403      	str	r3, [r0, #64]	@ 0x40
    hdma_hrtim1_a.XferCpltCallback     = HAL_DMA_XferCpltCallback;
 80a0f9a:	4b09      	ldr	r3, [pc, #36]	@ (80a0fc0 <start_capture+0x58>)
 80a0f9c:	63c3      	str	r3, [r0, #60]	@ 0x3c
    HAL_DMA_Start_IT(&hdma_hrtim1_a,
 80a0f9e:	f44f 6300 	mov.w	r3, #2048	@ 0x800
 80a0fa2:	4a08      	ldr	r2, [pc, #32]	@ (80a0fc4 <start_capture+0x5c>)
 80a0fa4:	4908      	ldr	r1, [pc, #32]	@ (80a0fc8 <start_capture+0x60>)
 80a0fa6:	f001 f945 	bl	80a2234 <HAL_DMA_Start_IT>
}
 80a0faa:	bd10      	pop	{r4, pc}
 80a0fac:	380023c6 	.word	0x380023c6
 80a0fb0:	380023c7 	.word	0x380023c7
 80a0fb4:	40017400 	.word	0x40017400
 80a0fb8:	380021f4 	.word	0x380021f4
 80a0fbc:	080a0e61 	.word	0x080a0e61
 80a0fc0:	080a0ea9 	.word	0x080a0ea9
 80a0fc4:	380001f4 	.word	0x380001f4
 80a0fc8:	400174b0 	.word	0x400174b0

080a0fcc <DWT_Init>:

void DWT_Init(void)
{
    /* Enable TRC (Trace) */
    CoreDebug->DEMCR |= CoreDebug_DEMCR_TRCENA_Msk;
 80a0fcc:	4a07      	ldr	r2, [pc, #28]	@ (80a0fec <DWT_Init+0x20>)
 80a0fce:	f8d2 30fc 	ldr.w	r3, [r2, #252]	@ 0xfc
 80a0fd2:	f043 7380 	orr.w	r3, r3, #16777216	@ 0x1000000
 80a0fd6:	f8c2 30fc 	str.w	r3, [r2, #252]	@ 0xfc

    /* Reset cycle counter */
    DWT->CYCCNT = 0;
 80a0fda:	4b05      	ldr	r3, [pc, #20]	@ (80a0ff0 <DWT_Init+0x24>)
 80a0fdc:	2200      	movs	r2, #0
 80a0fde:	605a      	str	r2, [r3, #4]

    /* Enable cycle counter */
    DWT->CTRL |= DWT_CTRL_CYCCNTENA_Msk;
 80a0fe0:	681a      	ldr	r2, [r3, #0]
 80a0fe2:	f042 0201 	orr.w	r2, r2, #1
 80a0fe6:	601a      	str	r2, [r3, #0]
}
 80a0fe8:	4770      	bx	lr
 80a0fea:	bf00      	nop
 80a0fec:	e000ed00 	.word	0xe000ed00
 80a0ff0:	e0001000 	.word	0xe0001000

080a0ff4 <main>:
{
 80a0ff4:	b510      	push	{r4, lr}
 80a0ff6:	b084      	sub	sp, #16
  __HAL_RCC_HSEM_CLK_ENABLE();
 80a0ff8:	4b54      	ldr	r3, [pc, #336]	@ (80a114c <main+0x158>)
 80a0ffa:	f8d3 20e0 	ldr.w	r2, [r3, #224]	@ 0xe0
 80a0ffe:	f042 7200 	orr.w	r2, r2, #33554432	@ 0x2000000
 80a1002:	f8c3 20e0 	str.w	r2, [r3, #224]	@ 0xe0
 80a1006:	f8d3 30e0 	ldr.w	r3, [r3, #224]	@ 0xe0
 80a100a:	f003 7300 	and.w	r3, r3, #33554432	@ 0x2000000
 80a100e:	9301      	str	r3, [sp, #4]
 80a1010:	9b01      	ldr	r3, [sp, #4]
  HAL_HSEM_ActivateNotification(__HAL_HSEM_SEMID_TO_MASK(HSEM_ID_0));
 80a1012:	2001      	movs	r0, #1
 80a1014:	f002 fdca 	bl	80a3bac <HAL_HSEM_ActivateNotification>
  HAL_PWREx_ClearPendingEvent();
 80a1018:	f002 fe36 	bl	80a3c88 <HAL_PWREx_ClearPendingEvent>
  HAL_PWREx_EnterSTOPMode(PWR_MAINREGULATOR_ON, PWR_STOPENTRY_WFE, PWR_D2_DOMAIN);
 80a101c:	2201      	movs	r2, #1
 80a101e:	2102      	movs	r1, #2
 80a1020:	2000      	movs	r0, #0
 80a1022:	f002 fdd9 	bl	80a3bd8 <HAL_PWREx_EnterSTOPMode>
  __HAL_HSEM_CLEAR_FLAG(__HAL_HSEM_SEMID_TO_MASK(HSEM_ID_0));
 80a1026:	4b4a      	ldr	r3, [pc, #296]	@ (80a1150 <main+0x15c>)
 80a1028:	681b      	ldr	r3, [r3, #0]
 80a102a:	f003 03f0 	and.w	r3, r3, #240	@ 0xf0
 80a102e:	2b70      	cmp	r3, #112	@ 0x70
 80a1030:	d07a      	beq.n	80a1128 <main+0x134>
 80a1032:	4a48      	ldr	r2, [pc, #288]	@ (80a1154 <main+0x160>)
 80a1034:	f8d2 3114 	ldr.w	r3, [r2, #276]	@ 0x114
 80a1038:	f043 0301 	orr.w	r3, r3, #1
 80a103c:	f8c2 3114 	str.w	r3, [r2, #276]	@ 0x114
  HAL_Init();
 80a1040:	f000 fc40 	bl	80a18c4 <HAL_Init>
  __HAL_RCC_HSEM_CLK_ENABLE();
 80a1044:	4c41      	ldr	r4, [pc, #260]	@ (80a114c <main+0x158>)
 80a1046:	f8d4 30e0 	ldr.w	r3, [r4, #224]	@ 0xe0
 80a104a:	f043 7300 	orr.w	r3, r3, #33554432	@ 0x2000000
 80a104e:	f8c4 30e0 	str.w	r3, [r4, #224]	@ 0xe0
 80a1052:	f8d4 30e0 	ldr.w	r3, [r4, #224]	@ 0xe0
 80a1056:	f003 7300 	and.w	r3, r3, #33554432	@ 0x2000000
 80a105a:	9302      	str	r3, [sp, #8]
 80a105c:	9b02      	ldr	r3, [sp, #8]
  HAL_HSEM_FastTake(HSEM_CM4_TO_CM7);
 80a105e:	2002      	movs	r0, #2
 80a1060:	f002 fd94 	bl	80a3b8c <HAL_HSEM_FastTake>
  HAL_HSEM_ActivateNotification(__HAL_HSEM_SEMID_TO_MASK(HSEM_CM7_TO_CM4));
 80a1064:	2002      	movs	r0, #2
 80a1066:	f002 fda1 	bl	80a3bac <HAL_HSEM_ActivateNotification>
  HAL_NVIC_SetPriority(HSEM2_IRQn, 12, 0);
 80a106a:	2200      	movs	r2, #0
 80a106c:	210c      	movs	r1, #12
 80a106e:	207e      	movs	r0, #126	@ 0x7e
 80a1070:	f000 fcda 	bl	80a1a28 <HAL_NVIC_SetPriority>
  HAL_NVIC_EnableIRQ(HSEM2_IRQn);
 80a1074:	207e      	movs	r0, #126	@ 0x7e
 80a1076:	f000 fce7 	bl	80a1a48 <HAL_NVIC_EnableIRQ>
  MX_DMA_Init();
 80a107a:	f7ff f949 	bl	80a0310 <MX_DMA_Init>
  MX_GPIO_Init();
 80a107e:	f7ff fd3d 	bl	80a0afc <MX_GPIO_Init>
  MX_SPI1_Init();
 80a1082:	f000 f99b 	bl	80a13bc <MX_SPI1_Init>
  MX_TIM2_Init();
 80a1086:	f000 fb31 	bl	80a16ec <MX_TIM2_Init>
  MX_HRTIM_Init();
 80a108a:	f7ff fdbd 	bl	80a0c08 <MX_HRTIM_Init>
  MX_TIM3_Init();
 80a108e:	f000 fb83 	bl	80a1798 <MX_TIM3_Init>
  MX_GPIO_Init();
 80a1092:	f7ff fd33 	bl	80a0afc <MX_GPIO_Init>
  __HAL_RCC_HSEM_CLK_ENABLE();
 80a1096:	f8d4 30e0 	ldr.w	r3, [r4, #224]	@ 0xe0
 80a109a:	f043 7300 	orr.w	r3, r3, #33554432	@ 0x2000000
 80a109e:	f8c4 30e0 	str.w	r3, [r4, #224]	@ 0xe0
 80a10a2:	f8d4 30e0 	ldr.w	r3, [r4, #224]	@ 0xe0
 80a10a6:	f003 7300 	and.w	r3, r3, #33554432	@ 0x2000000
 80a10aa:	9303      	str	r3, [sp, #12]
 80a10ac:	9b03      	ldr	r3, [sp, #12]
  ipc_shm_init();
 80a10ae:	f7ff fe9f 	bl	80a0df0 <ipc_shm_init>
  ipc_stream_init();
 80a10b2:	f7ff febf 	bl	80a0e34 <ipc_stream_init>
  DWT_Init();
 80a10b6:	f7ff ff89 	bl	80a0fcc <DWT_Init>
  HAL_TIM_PWM_Start(&htim3, TIM_CHANNEL_1);
 80a10ba:	2100      	movs	r1, #0
 80a10bc:	4826      	ldr	r0, [pc, #152]	@ (80a1158 <main+0x164>)
 80a10be:	f004 fcdb 	bl	80a5a78 <HAL_TIM_PWM_Start>
  HAL_HRTIM_WaveformCountStart(&hhrtim, HRTIM_TIMERID_TIMER_A);
 80a10c2:	f44f 3100 	mov.w	r1, #131072	@ 0x20000
 80a10c6:	4825      	ldr	r0, [pc, #148]	@ (80a115c <main+0x168>)
 80a10c8:	f002 fd45 	bl	80a3b56 <HAL_HRTIM_WaveformCountStart>
    start_capture();
 80a10cc:	f7ff ff4c 	bl	80a0f68 <start_capture>
  spi_tx = 0;
 80a10d0:	4b23      	ldr	r3, [pc, #140]	@ (80a1160 <main+0x16c>)
 80a10d2:	2200      	movs	r2, #0
 80a10d4:	701a      	strb	r2, [r3, #0]
  SPI_PrepareData();
 80a10d6:	f7ff ff0b 	bl	80a0ef0 <SPI_PrepareData>
  encoded_len = Qi_EncodeToSPI(&pkt, spi_tx_buf, SPI_LEN);
 80a10da:	2224      	movs	r2, #36	@ 0x24
 80a10dc:	4921      	ldr	r1, [pc, #132]	@ (80a1164 <main+0x170>)
 80a10de:	4822      	ldr	r0, [pc, #136]	@ (80a1168 <main+0x174>)
 80a10e0:	f000 f924 	bl	80a132c <Qi_EncodeToSPI>
  if (encoded_len <= 0)
 80a10e4:	1e03      	subs	r3, r0, #0
 80a10e6:	dd27      	ble.n	80a1138 <main+0x144>
  ret = HAL_SPI_TransmitReceive_DMA(&hspi1, spi_tx_buf, spi_pkt_buf, encoded_len);
 80a10e8:	b29b      	uxth	r3, r3
 80a10ea:	4a20      	ldr	r2, [pc, #128]	@ (80a116c <main+0x178>)
 80a10ec:	491d      	ldr	r1, [pc, #116]	@ (80a1164 <main+0x170>)
 80a10ee:	4820      	ldr	r0, [pc, #128]	@ (80a1170 <main+0x17c>)
 80a10f0:	f003 fe64 	bl	80a4dbc <HAL_SPI_TransmitReceive_DMA>
 80a10f4:	4b1f      	ldr	r3, [pc, #124]	@ (80a1174 <main+0x180>)
 80a10f6:	7018      	strb	r0, [r3, #0]
  if (ret != HAL_OK)
 80a10f8:	b100      	cbz	r0, 80a10fc <main+0x108>
    __asm__ volatile("bkpt");
 80a10fa:	be00      	bkpt	0x0000
  __HAL_TIM_SET_COUNTER(&htim2, 0);
 80a10fc:	481e      	ldr	r0, [pc, #120]	@ (80a1178 <main+0x184>)
 80a10fe:	6803      	ldr	r3, [r0, #0]
 80a1100:	2100      	movs	r1, #0
 80a1102:	6259      	str	r1, [r3, #36]	@ 0x24
  HAL_TIM_PWM_Start(&htim2, TIM_CHANNEL_1);
 80a1104:	f004 fcb8 	bl	80a5a78 <HAL_TIM_PWM_Start>
    if (dma_half_ready)
 80a1108:	4b1c      	ldr	r3, [pc, #112]	@ (80a117c <main+0x188>)
 80a110a:	781b      	ldrb	r3, [r3, #0]
 80a110c:	b9b3      	cbnz	r3, 80a113c <main+0x148>
    if (dma_full_ready)
 80a110e:	4b1c      	ldr	r3, [pc, #112]	@ (80a1180 <main+0x18c>)
 80a1110:	781b      	ldrb	r3, [r3, #0]
 80a1112:	2b00      	cmp	r3, #0
 80a1114:	d0f8      	beq.n	80a1108 <main+0x114>
        dma_full_ready = 0;
 80a1116:	4b1a      	ldr	r3, [pc, #104]	@ (80a1180 <main+0x18c>)
 80a1118:	2200      	movs	r2, #0
 80a111a:	701a      	strb	r2, [r3, #0]
        process_block(FSK_DMA_HALF_SAMPLES, FSK_DMA_HALF_SAMPLES);
 80a111c:	f44f 6180 	mov.w	r1, #1024	@ 0x400
 80a1120:	4608      	mov	r0, r1
 80a1122:	f7ff fc07 	bl	80a0934 <process_block>
 80a1126:	e7ef      	b.n	80a1108 <main+0x114>
  __HAL_HSEM_CLEAR_FLAG(__HAL_HSEM_SEMID_TO_MASK(HSEM_ID_0));
 80a1128:	4a0a      	ldr	r2, [pc, #40]	@ (80a1154 <main+0x160>)
 80a112a:	f8d2 3104 	ldr.w	r3, [r2, #260]	@ 0x104
 80a112e:	f043 0301 	orr.w	r3, r3, #1
 80a1132:	f8c2 3104 	str.w	r3, [r2, #260]	@ 0x104
 80a1136:	e783      	b.n	80a1040 <main+0x4c>
    __asm__ volatile("bkpt");
 80a1138:	be00      	bkpt	0x0000
 80a113a:	e7d5      	b.n	80a10e8 <main+0xf4>
        dma_half_ready = 0;
 80a113c:	2000      	movs	r0, #0
 80a113e:	4b0f      	ldr	r3, [pc, #60]	@ (80a117c <main+0x188>)
 80a1140:	7018      	strb	r0, [r3, #0]
        process_block(0U, FSK_DMA_HALF_SAMPLES);
 80a1142:	f44f 6180 	mov.w	r1, #1024	@ 0x400
 80a1146:	f7ff fbf5 	bl	80a0934 <process_block>
 80a114a:	e7e0      	b.n	80a110e <main+0x11a>
 80a114c:	58024400 	.word	0x58024400
 80a1150:	e000ed00 	.word	0xe000ed00
 80a1154:	58026400 	.word	0x58026400
 80a1158:	380025cc 	.word	0x380025cc
 80a115c:	3800226c 	.word	0x3800226c
 80a1160:	3800236f 	.word	0x3800236f
 80a1164:	38002398 	.word	0x38002398
 80a1168:	3800234c 	.word	0x3800234c
 80a116c:	38002374 	.word	0x38002374
 80a1170:	38002544 	.word	0x38002544
 80a1174:	38002370 	.word	0x38002370
 80a1178:	38002618 	.word	0x38002618
 80a117c:	380023c5 	.word	0x380023c5
 80a1180:	380023c4 	.word	0x380023c4

080a1184 <Error_Handler>:
  __ASM volatile ("cpsid i" : : : "memory");
 80a1184:	b672      	cpsid	i
void Error_Handler(void)
{
  /* USER CODE BEGIN Error_Handler_Debug */
  /* User can add his own implementation to report the HAL error return state */
  __disable_irq();
  while (1)
 80a1186:	e7fe      	b.n	80a1186 <Error_Handler+0x2>

080a1188 <qi_write_bit>:
  }

  return bit_off;
}
#endif
static int qi_write_bit(int bit_off, uint8_t bit_value) {
 80a1188:	b510      	push	{r4, lr}
  // qi_phy.b_toggle holds the current output level (0/1).

  uint32_t *msg = qi_phy.raw_samples;

  // Transition at start of every bit (coincident with rising edge of fCLK)
  qi_phy.b_toggle ^= 1;
 80a118a:	4b1f      	ldr	r3, [pc, #124]	@ (80a1208 <qi_write_bit+0x80>)
 80a118c:	f893 2080 	ldrb.w	r2, [r3, #128]	@ 0x80
 80a1190:	f082 0c01 	eor.w	ip, r2, #1
 80a1194:	f883 c080 	strb.w	ip, [r3, #128]	@ 0x80

  // Half-bit #1 (write current level)
  int word_idx = bit_off / 32;
 80a1198:	4603      	mov	r3, r0
 80a119a:	2800      	cmp	r0, #0
 80a119c:	db2e      	blt.n	80a11fc <qi_write_bit+0x74>
 80a119e:	115b      	asrs	r3, r3, #5
  int bit_idx  = bit_off % 32;
  if (qi_phy.b_toggle) {
 80a11a0:	2a01      	cmp	r2, #1
 80a11a2:	d00c      	beq.n	80a11be <qi_write_bit+0x36>
    msg[word_idx] |= ((uint32_t)1u << bit_idx);
 80a11a4:	4c18      	ldr	r4, [pc, #96]	@ (80a1208 <qi_write_bit+0x80>)
 80a11a6:	f854 2023 	ldr.w	r2, [r4, r3, lsl #2]
 80a11aa:	f000 0e1f 	and.w	lr, r0, #31
 80a11ae:	f04f 0c01 	mov.w	ip, #1
 80a11b2:	fa0c fc0e 	lsl.w	ip, ip, lr
 80a11b6:	ea42 020c 	orr.w	r2, r2, ip
 80a11ba:	f844 2023 	str.w	r2, [r4, r3, lsl #2]
  }
  bit_off++;
 80a11be:	1c43      	adds	r3, r0, #1

  // Mid-bit transition only for a '1' (coincident with falling edge of fCLK)
  if (bit_value) {
 80a11c0:	b131      	cbz	r1, 80a11d0 <qi_write_bit+0x48>
    qi_phy.b_toggle ^= 1;
 80a11c2:	4911      	ldr	r1, [pc, #68]	@ (80a1208 <qi_write_bit+0x80>)
 80a11c4:	f891 2080 	ldrb.w	r2, [r1, #128]	@ 0x80
 80a11c8:	f082 0201 	eor.w	r2, r2, #1
 80a11cc:	f881 2080 	strb.w	r2, [r1, #128]	@ 0x80
  }

  // Half-bit #2
  word_idx = bit_off / 32;
 80a11d0:	461a      	mov	r2, r3
 80a11d2:	2b00      	cmp	r3, #0
 80a11d4:	db15      	blt.n	80a1202 <qi_write_bit+0x7a>
 80a11d6:	1152      	asrs	r2, r2, #5
  bit_idx  = bit_off % 32;
  if (qi_phy.b_toggle) {
 80a11d8:	490b      	ldr	r1, [pc, #44]	@ (80a1208 <qi_write_bit+0x80>)
 80a11da:	f891 1080 	ldrb.w	r1, [r1, #128]	@ 0x80
 80a11de:	b159      	cbz	r1, 80a11f8 <qi_write_bit+0x70>
    msg[word_idx] |= ((uint32_t)1u << bit_idx);
 80a11e0:	4c09      	ldr	r4, [pc, #36]	@ (80a1208 <qi_write_bit+0x80>)
 80a11e2:	f854 1022 	ldr.w	r1, [r4, r2, lsl #2]
 80a11e6:	f003 031f 	and.w	r3, r3, #31
 80a11ea:	f04f 0c01 	mov.w	ip, #1
 80a11ee:	fa0c f303 	lsl.w	r3, ip, r3
 80a11f2:	4319      	orrs	r1, r3
 80a11f4:	f844 1022 	str.w	r1, [r4, r2, lsl #2]
  }
  bit_off++;

  return bit_off;
}
 80a11f8:	3002      	adds	r0, #2
 80a11fa:	bd10      	pop	{r4, pc}
  int word_idx = bit_off / 32;
 80a11fc:	f100 031f 	add.w	r3, r0, #31
 80a1200:	e7cd      	b.n	80a119e <qi_write_bit+0x16>
  word_idx = bit_off / 32;
 80a1202:	f103 021f 	add.w	r2, r3, #31
 80a1206:	e7e6      	b.n	80a11d6 <qi_write_bit+0x4e>
 80a1208:	380023d0 	.word	0x380023d0

080a120c <qi_write_preamble>:
static int qi_write_preamble(uint8_t aPreamble_bit_cnt) {
 80a120c:	b538      	push	{r3, r4, r5, lr}
 80a120e:	4605      	mov	r5, r0
  for (int i = 0; i < aPreamble_bit_cnt; i++) {
 80a1210:	2400      	movs	r4, #0
  int bit_off = 0;
 80a1212:	4620      	mov	r0, r4
  for (int i = 0; i < aPreamble_bit_cnt; i++) {
 80a1214:	e003      	b.n	80a121e <qi_write_preamble+0x12>
    bit_off = qi_write_bit(bit_off, 1);
 80a1216:	2101      	movs	r1, #1
 80a1218:	f7ff ffb6 	bl	80a1188 <qi_write_bit>
  for (int i = 0; i < aPreamble_bit_cnt; i++) {
 80a121c:	3401      	adds	r4, #1
 80a121e:	42a5      	cmp	r5, r4
 80a1220:	dcf9      	bgt.n	80a1216 <qi_write_preamble+0xa>
}
 80a1222:	bd38      	pop	{r3, r4, r5, pc}

080a1224 <qi_encode_byte>:
static int qi_encode_byte(int bit_off, uint8_t data) {
 80a1224:	b5f8      	push	{r3, r4, r5, r6, r7, lr}
 80a1226:	460f      	mov	r7, r1
  uint8_t parity = 1; // Odd parity

  // Start bit (0)
  bit_off = qi_write_bit(bit_off, 0);
 80a1228:	2100      	movs	r1, #0
 80a122a:	f7ff ffad 	bl	80a1188 <qi_write_bit>

  // 8 data bits (LSB first)
  for (int i = 0; i < 8; i++) {
 80a122e:	2500      	movs	r5, #0
  uint8_t parity = 1; // Odd parity
 80a1230:	2601      	movs	r6, #1
  for (int i = 0; i < 8; i++) {
 80a1232:	e008      	b.n	80a1246 <qi_encode_byte+0x22>
    uint8_t bit = (data >> i) & 0x01;
 80a1234:	fa47 f405 	asr.w	r4, r7, r5
 80a1238:	f004 0401 	and.w	r4, r4, #1
    bit_off = qi_write_bit(bit_off, bit);
 80a123c:	4621      	mov	r1, r4
 80a123e:	f7ff ffa3 	bl	80a1188 <qi_write_bit>
    parity ^= bit;
 80a1242:	4066      	eors	r6, r4
  for (int i = 0; i < 8; i++) {
 80a1244:	3501      	adds	r5, #1
 80a1246:	2d07      	cmp	r5, #7
 80a1248:	ddf4      	ble.n	80a1234 <qi_encode_byte+0x10>
  }

  // Parity bit
  bit_off = qi_write_bit(bit_off, parity);
 80a124a:	4631      	mov	r1, r6
 80a124c:	f7ff ff9c 	bl	80a1188 <qi_write_bit>

  // Stop bit (1)
  bit_off = qi_write_bit(bit_off, 1);
 80a1250:	2101      	movs	r1, #1
 80a1252:	f7ff ff99 	bl	80a1188 <qi_write_bit>

  return bit_off;
}
 80a1256:	bdf8      	pop	{r3, r4, r5, r6, r7, pc}

080a1258 <qi_write_last_edge>:
#ifndef QI_TAIL_HALF_BITS
#define QI_TAIL_HALF_BITS  1   // 2 half-bits = 500us (1 UI) at 4kHz //2: 1UI, 1: half UI
#endif

static int qi_write_last_edge(int bit_off)
{
 80a1258:	b530      	push	{r4, r5, lr}
  uint32_t *msg = qi_phy.raw_samples;

  // 1) Force modulator OFF (line = 0) for a short tail.
  // This matches spec: after stop bit, PRx turns off modulator and line goes low.
  // If the line was high, this creates the final "edge" (spec calls it spurious for odd length).
  for (int i = 0; i < QI_TAIL_HALF_BITS; i++) {
 80a125a:	2200      	movs	r2, #0
 80a125c:	2a00      	cmp	r2, #0
 80a125e:	dd08      	ble.n	80a1272 <qi_write_last_edge+0x1a>

    bit_off++;
  }

  // We have now "logically" forced the line low
  qi_phy.b_toggle = 0;
 80a1260:	f04f 0c00 	mov.w	ip, #0
 80a1264:	4b1a      	ldr	r3, [pc, #104]	@ (80a12d0 <qi_write_last_edge+0x78>)
 80a1266:	f883 c080 	strb.w	ip, [r3, #128]	@ 0x80

  // 2) Pad to next byte boundary using 0 (prevents memcpy rounding artifacts)
  int pad_to_byte = (8 - (bit_off & 7)) & 7;
 80a126a:	4245      	negs	r5, r0
 80a126c:	f005 0507 	and.w	r5, r5, #7
  for (int i = 0; i < pad_to_byte; i++) {
 80a1270:	e025      	b.n	80a12be <qi_write_last_edge+0x66>
    int word_idx = bit_off / 32;
 80a1272:	4603      	mov	r3, r0
 80a1274:	2800      	cmp	r0, #0
 80a1276:	db0f      	blt.n	80a1298 <qi_write_last_edge+0x40>
 80a1278:	115b      	asrs	r3, r3, #5
    msg[word_idx] &= ~((uint32_t)1u << bit_idx);
 80a127a:	4d15      	ldr	r5, [pc, #84]	@ (80a12d0 <qi_write_last_edge+0x78>)
 80a127c:	f855 1023 	ldr.w	r1, [r5, r3, lsl #2]
 80a1280:	f000 0c1f 	and.w	ip, r0, #31
 80a1284:	2401      	movs	r4, #1
 80a1286:	fa04 f40c 	lsl.w	r4, r4, ip
 80a128a:	ea21 0104 	bic.w	r1, r1, r4
 80a128e:	f845 1023 	str.w	r1, [r5, r3, lsl #2]
    bit_off++;
 80a1292:	3001      	adds	r0, #1
  for (int i = 0; i < QI_TAIL_HALF_BITS; i++) {
 80a1294:	3201      	adds	r2, #1
 80a1296:	e7e1      	b.n	80a125c <qi_write_last_edge+0x4>
    int word_idx = bit_off / 32;
 80a1298:	f100 031f 	add.w	r3, r0, #31
 80a129c:	e7ec      	b.n	80a1278 <qi_write_last_edge+0x20>
    int word_idx = bit_off / 32;
 80a129e:	115b      	asrs	r3, r3, #5
    int bit_idx  = bit_off % 32;
    msg[word_idx] &= ~((uint32_t)1u << bit_idx); // keep low
 80a12a0:	4c0b      	ldr	r4, [pc, #44]	@ (80a12d0 <qi_write_last_edge+0x78>)
 80a12a2:	f854 2023 	ldr.w	r2, [r4, r3, lsl #2]
 80a12a6:	f000 0e1f 	and.w	lr, r0, #31
 80a12aa:	2101      	movs	r1, #1
 80a12ac:	fa01 f10e 	lsl.w	r1, r1, lr
 80a12b0:	ea22 0201 	bic.w	r2, r2, r1
 80a12b4:	f844 2023 	str.w	r2, [r4, r3, lsl #2]
    bit_off++;
 80a12b8:	3001      	adds	r0, #1
  for (int i = 0; i < pad_to_byte; i++) {
 80a12ba:	f10c 0c01 	add.w	ip, ip, #1
 80a12be:	45ac      	cmp	ip, r5
 80a12c0:	da05      	bge.n	80a12ce <qi_write_last_edge+0x76>
    int word_idx = bit_off / 32;
 80a12c2:	4603      	mov	r3, r0
 80a12c4:	2800      	cmp	r0, #0
 80a12c6:	daea      	bge.n	80a129e <qi_write_last_edge+0x46>
 80a12c8:	f100 031f 	add.w	r3, r0, #31
 80a12cc:	e7e7      	b.n	80a129e <qi_write_last_edge+0x46>
  }

  return bit_off;
}
 80a12ce:	bd30      	pop	{r4, r5, pc}
 80a12d0:	380023d0 	.word	0x380023d0

080a12d4 <Qi_BuildPacket>:
  if (packet == NULL)
 80a12d4:	b308      	cbz	r0, 80a131a <Qi_BuildPacket+0x46>
                   uint8_t payload_len) {
 80a12d6:	b5f8      	push	{r3, r4, r5, r6, r7, lr}
 80a12d8:	460f      	mov	r7, r1
 80a12da:	4616      	mov	r6, r2
 80a12dc:	461d      	mov	r5, r3
 80a12de:	4604      	mov	r4, r0
  if (payload_len > QI_MAX_PAYLOAD_BYTES)
 80a12e0:	2b20      	cmp	r3, #32
 80a12e2:	d81d      	bhi.n	80a1320 <Qi_BuildPacket+0x4c>
  if (payload_len > 0 && payload == NULL)
 80a12e4:	b103      	cbz	r3, 80a12e8 <Qi_BuildPacket+0x14>
 80a12e6:	b1f2      	cbz	r2, 80a1326 <Qi_BuildPacket+0x52>
  packet->header = header;
 80a12e8:	7027      	strb	r7, [r4, #0]
  packet->payload_len = payload_len;
 80a12ea:	f884 5021 	strb.w	r5, [r4, #33]	@ 0x21
  if (payload_len > 0) {
 80a12ee:	b91d      	cbnz	r5, 80a12f8 <Qi_BuildPacket+0x24>
  packet->checksum = header;
 80a12f0:	f884 7022 	strb.w	r7, [r4, #34]	@ 0x22
  for (int i = 0; i < payload_len; i++) {
 80a12f4:	2100      	movs	r1, #0
 80a12f6:	e00c      	b.n	80a1312 <Qi_BuildPacket+0x3e>
    memcpy(packet->payload, payload, payload_len);
 80a12f8:	462a      	mov	r2, r5
 80a12fa:	4631      	mov	r1, r6
 80a12fc:	1c60      	adds	r0, r4, #1
 80a12fe:	f004 fd51 	bl	80a5da4 <memcpy>
 80a1302:	e7f5      	b.n	80a12f0 <Qi_BuildPacket+0x1c>
    packet->checksum ^= payload[i];
 80a1304:	f894 0022 	ldrb.w	r0, [r4, #34]	@ 0x22
 80a1308:	5c73      	ldrb	r3, [r6, r1]
 80a130a:	4058      	eors	r0, r3
 80a130c:	f884 0022 	strb.w	r0, [r4, #34]	@ 0x22
  for (int i = 0; i < payload_len; i++) {
 80a1310:	3101      	adds	r1, #1
 80a1312:	428d      	cmp	r5, r1
 80a1314:	dcf6      	bgt.n	80a1304 <Qi_BuildPacket+0x30>
  return 0;
 80a1316:	2000      	movs	r0, #0
}
 80a1318:	bdf8      	pop	{r3, r4, r5, r6, r7, pc}
    return -1;
 80a131a:	f04f 30ff 	mov.w	r0, #4294967295
}
 80a131e:	4770      	bx	lr
    return -1;
 80a1320:	f04f 30ff 	mov.w	r0, #4294967295
 80a1324:	e7f8      	b.n	80a1318 <Qi_BuildPacket+0x44>
    return -1;
 80a1326:	f04f 30ff 	mov.w	r0, #4294967295
 80a132a:	e7f5      	b.n	80a1318 <Qi_BuildPacket+0x44>

080a132c <Qi_EncodeToSPI>:
                   uint16_t buffer_size) {
 80a132c:	e92d 41f0 	stmdb	sp!, {r4, r5, r6, r7, r8, lr}
  if (packet == NULL || spi_buffer == NULL)
 80a1330:	b3c0      	cbz	r0, 80a13a4 <Qi_EncodeToSPI+0x78>
 80a1332:	460e      	mov	r6, r1
 80a1334:	4617      	mov	r7, r2
 80a1336:	4605      	mov	r5, r0
 80a1338:	b3b9      	cbz	r1, 80a13aa <Qi_EncodeToSPI+0x7e>
  memset(qi_phy.raw_samples, 0, sizeof(qi_phy.raw_samples));
 80a133a:	f8df 807c 	ldr.w	r8, [pc, #124]	@ 80a13b8 <Qi_EncodeToSPI+0x8c>
 80a133e:	2280      	movs	r2, #128	@ 0x80
 80a1340:	2100      	movs	r1, #0
 80a1342:	4640      	mov	r0, r8
 80a1344:	f004 fd02 	bl	80a5d4c <memset>
  qi_phy.b_toggle = 0; // Start with 0
 80a1348:	2400      	movs	r4, #0
 80a134a:	f888 4080 	strb.w	r4, [r8, #128]	@ 0x80
  bit_off = qi_write_preamble(QI_SS_PREAMBLE_BITS);//Change this as per operating phase as preamble bit count changes based on phase(PING/ID/PT/NEG phases)
 80a134e:	200b      	movs	r0, #11
 80a1350:	f7ff ff5c 	bl	80a120c <qi_write_preamble>
  bit_off = qi_encode_byte(bit_off, packet->header);
 80a1354:	7829      	ldrb	r1, [r5, #0]
 80a1356:	f7ff ff65 	bl	80a1224 <qi_encode_byte>
  for (int i = 0; i < packet->payload_len; i++) {
 80a135a:	e004      	b.n	80a1366 <Qi_EncodeToSPI+0x3a>
    bit_off = qi_encode_byte(bit_off, packet->payload[i]);
 80a135c:	192b      	adds	r3, r5, r4
 80a135e:	7859      	ldrb	r1, [r3, #1]
 80a1360:	f7ff ff60 	bl	80a1224 <qi_encode_byte>
  for (int i = 0; i < packet->payload_len; i++) {
 80a1364:	3401      	adds	r4, #1
 80a1366:	f895 3021 	ldrb.w	r3, [r5, #33]	@ 0x21
 80a136a:	42a3      	cmp	r3, r4
 80a136c:	dcf6      	bgt.n	80a135c <Qi_EncodeToSPI+0x30>
  bit_off = qi_encode_byte(bit_off, packet->checksum);
 80a136e:	f895 1022 	ldrb.w	r1, [r5, #34]	@ 0x22
 80a1372:	f7ff ff57 	bl	80a1224 <qi_encode_byte>
  bit_off = qi_write_last_edge(bit_off);
 80a1376:	f7ff ff6f 	bl	80a1258 <qi_write_last_edge>
  int n_bytes = (bit_off + 7) / 8;
 80a137a:	3007      	adds	r0, #7
 80a137c:	d410      	bmi.n	80a13a0 <Qi_EncodeToSPI+0x74>
 80a137e:	10c4      	asrs	r4, r0, #3
  if (n_bytes > buffer_size)
 80a1380:	ebb7 0fe0 	cmp.w	r7, r0, asr #3
 80a1384:	db14      	blt.n	80a13b0 <Qi_EncodeToSPI+0x84>
  memset(spi_buffer, 0, buffer_size);
 80a1386:	463a      	mov	r2, r7
 80a1388:	2100      	movs	r1, #0
 80a138a:	4630      	mov	r0, r6
 80a138c:	f004 fcde 	bl	80a5d4c <memset>
  memcpy(spi_buffer, &qi_phy.raw_samples[0], n_bytes);
 80a1390:	4622      	mov	r2, r4
 80a1392:	4909      	ldr	r1, [pc, #36]	@ (80a13b8 <Qi_EncodeToSPI+0x8c>)
 80a1394:	4630      	mov	r0, r6
 80a1396:	f004 fd05 	bl	80a5da4 <memcpy>
}
 80a139a:	4620      	mov	r0, r4
 80a139c:	e8bd 81f0 	ldmia.w	sp!, {r4, r5, r6, r7, r8, pc}
  int n_bytes = (bit_off + 7) / 8;
 80a13a0:	3007      	adds	r0, #7
 80a13a2:	e7ec      	b.n	80a137e <Qi_EncodeToSPI+0x52>
    return -1;
 80a13a4:	f04f 34ff 	mov.w	r4, #4294967295
 80a13a8:	e7f7      	b.n	80a139a <Qi_EncodeToSPI+0x6e>
 80a13aa:	f04f 34ff 	mov.w	r4, #4294967295
 80a13ae:	e7f4      	b.n	80a139a <Qi_EncodeToSPI+0x6e>
    return -1;
 80a13b0:	f04f 34ff 	mov.w	r4, #4294967295
 80a13b4:	e7f1      	b.n	80a139a <Qi_EncodeToSPI+0x6e>
 80a13b6:	bf00      	nop
 80a13b8:	380023d0 	.word	0x380023d0

080a13bc <MX_SPI1_Init>:
DMA_HandleTypeDef hdma_spi1_rx;
DMA_HandleTypeDef hdma_spi1_tx;

/* SPI1 init function */
void MX_SPI1_Init(void)
{
 80a13bc:	b508      	push	{r3, lr}
  /* USER CODE END SPI1_Init 0 */

  /* USER CODE BEGIN SPI1_Init 1 */

  /* USER CODE END SPI1_Init 1 */
  hspi1.Instance = SPI1;
 80a13be:	4813      	ldr	r0, [pc, #76]	@ (80a140c <MX_SPI1_Init+0x50>)
 80a13c0:	4b13      	ldr	r3, [pc, #76]	@ (80a1410 <MX_SPI1_Init+0x54>)
 80a13c2:	6003      	str	r3, [r0, #0]
  hspi1.Init.Mode = SPI_MODE_SLAVE;
 80a13c4:	2300      	movs	r3, #0
 80a13c6:	6043      	str	r3, [r0, #4]
  hspi1.Init.Direction = SPI_DIRECTION_2LINES;
 80a13c8:	6083      	str	r3, [r0, #8]
//  hspi1.Init.DataSize = SPI_DATASIZE_4BIT;
  hspi1.Init.DataSize = SPI_DATASIZE_8BIT;
 80a13ca:	2207      	movs	r2, #7
 80a13cc:	60c2      	str	r2, [r0, #12]
  hspi1.Init.CLKPolarity = SPI_POLARITY_LOW;
 80a13ce:	6103      	str	r3, [r0, #16]
//  hspi1.Init.CLKPhase = SPI_PHASE_1EDGE;
  hspi1.Init.CLKPhase = SPI_PHASE_2EDGE;
 80a13d0:	f04f 7280 	mov.w	r2, #16777216	@ 0x1000000
 80a13d4:	6142      	str	r2, [r0, #20]
  hspi1.Init.NSS = SPI_NSS_SOFT;
 80a13d6:	f04f 6280 	mov.w	r2, #67108864	@ 0x4000000
 80a13da:	6182      	str	r2, [r0, #24]
//  hspi1.Init.FirstBit = SPI_FIRSTBIT_MSB;
  hspi1.Init.FirstBit = SPI_FIRSTBIT_LSB;
 80a13dc:	f44f 0200 	mov.w	r2, #8388608	@ 0x800000
 80a13e0:	6202      	str	r2, [r0, #32]
  hspi1.Init.TIMode = SPI_TIMODE_DISABLE;
 80a13e2:	6243      	str	r3, [r0, #36]	@ 0x24
  hspi1.Init.CRCCalculation = SPI_CRCCALCULATION_DISABLE;
 80a13e4:	6283      	str	r3, [r0, #40]	@ 0x28
  hspi1.Init.CRCPolynomial = 0x0;
 80a13e6:	62c3      	str	r3, [r0, #44]	@ 0x2c
  hspi1.Init.NSSPMode = SPI_NSS_PULSE_DISABLE;
 80a13e8:	6343      	str	r3, [r0, #52]	@ 0x34
  hspi1.Init.NSSPolarity = SPI_NSS_POLARITY_LOW;
 80a13ea:	6383      	str	r3, [r0, #56]	@ 0x38
  hspi1.Init.FifoThreshold = SPI_FIFO_THRESHOLD_01DATA;
 80a13ec:	63c3      	str	r3, [r0, #60]	@ 0x3c
  hspi1.Init.TxCRCInitializationPattern = SPI_CRC_INITIALIZATION_ALL_ZERO_PATTERN;
 80a13ee:	6403      	str	r3, [r0, #64]	@ 0x40
  hspi1.Init.RxCRCInitializationPattern = SPI_CRC_INITIALIZATION_ALL_ZERO_PATTERN;
 80a13f0:	6443      	str	r3, [r0, #68]	@ 0x44
  hspi1.Init.MasterSSIdleness = SPI_MASTER_SS_IDLENESS_00CYCLE;
 80a13f2:	6483      	str	r3, [r0, #72]	@ 0x48
  hspi1.Init.MasterInterDataIdleness = SPI_MASTER_INTERDATA_IDLENESS_00CYCLE;
 80a13f4:	64c3      	str	r3, [r0, #76]	@ 0x4c
  hspi1.Init.MasterReceiverAutoSusp = SPI_MASTER_RX_AUTOSUSP_DISABLE;
 80a13f6:	6503      	str	r3, [r0, #80]	@ 0x50
  hspi1.Init.MasterKeepIOState = SPI_MASTER_KEEP_IO_STATE_DISABLE;
 80a13f8:	6543      	str	r3, [r0, #84]	@ 0x54
  hspi1.Init.IOSwap = SPI_IO_SWAP_DISABLE;
 80a13fa:	6583      	str	r3, [r0, #88]	@ 0x58
  if (HAL_SPI_Init(&hspi1) != HAL_OK)
 80a13fc:	f003 fc14 	bl	80a4c28 <HAL_SPI_Init>
 80a1400:	b900      	cbnz	r0, 80a1404 <MX_SPI1_Init+0x48>
  }
  /* USER CODE BEGIN SPI1_Init 2 */

  /* USER CODE END SPI1_Init 2 */

}
 80a1402:	bd08      	pop	{r3, pc}
    Error_Handler();
 80a1404:	f7ff febe 	bl	80a1184 <Error_Handler>
}
 80a1408:	e7fb      	b.n	80a1402 <MX_SPI1_Init+0x46>
 80a140a:	bf00      	nop
 80a140c:	38002544 	.word	0x38002544
 80a1410:	40013000 	.word	0x40013000

080a1414 <HAL_SPI_MspInit>:

void HAL_SPI_MspInit(SPI_HandleTypeDef* spiHandle)
{
 80a1414:	b5f0      	push	{r4, r5, r6, r7, lr}
 80a1416:	b0bb      	sub	sp, #236	@ 0xec
 80a1418:	4604      	mov	r4, r0

  GPIO_InitTypeDef GPIO_InitStruct = {0};
 80a141a:	2100      	movs	r1, #0
 80a141c:	9135      	str	r1, [sp, #212]	@ 0xd4
 80a141e:	9136      	str	r1, [sp, #216]	@ 0xd8
 80a1420:	9137      	str	r1, [sp, #220]	@ 0xdc
 80a1422:	9138      	str	r1, [sp, #224]	@ 0xe0
 80a1424:	9139      	str	r1, [sp, #228]	@ 0xe4
  RCC_PeriphCLKInitTypeDef PeriphClkInitStruct = {0};
 80a1426:	22c0      	movs	r2, #192	@ 0xc0
 80a1428:	a804      	add	r0, sp, #16
 80a142a:	f004 fc8f 	bl	80a5d4c <memset>
  if(spiHandle->Instance==SPI1)
 80a142e:	6822      	ldr	r2, [r4, #0]
 80a1430:	4b44      	ldr	r3, [pc, #272]	@ (80a1544 <HAL_SPI_MspInit+0x130>)
 80a1432:	429a      	cmp	r2, r3
 80a1434:	d001      	beq.n	80a143a <HAL_SPI_MspInit+0x26>
    HAL_NVIC_EnableIRQ(SPI1_IRQn);
  /* USER CODE BEGIN SPI1_MspInit 1 */

  /* USER CODE END SPI1_MspInit 1 */
  }
}
 80a1436:	b03b      	add	sp, #236	@ 0xec
 80a1438:	bdf0      	pop	{r4, r5, r6, r7, pc}
    PeriphClkInitStruct.PeriphClockSelection = RCC_PERIPHCLK_SPI1;
 80a143a:	f44f 5280 	mov.w	r2, #4096	@ 0x1000
 80a143e:	2300      	movs	r3, #0
 80a1440:	e9cd 2304 	strd	r2, r3, [sp, #16]
    if (HAL_RCCEx_PeriphCLKConfig(&PeriphClkInitStruct) != HAL_OK)
 80a1444:	a804      	add	r0, sp, #16
 80a1446:	f002 fe2d 	bl	80a40a4 <HAL_RCCEx_PeriphCLKConfig>
 80a144a:	2800      	cmp	r0, #0
 80a144c:	d170      	bne.n	80a1530 <HAL_SPI_MspInit+0x11c>
    __HAL_RCC_SPI1_CLK_ENABLE();
 80a144e:	4b3e      	ldr	r3, [pc, #248]	@ (80a1548 <HAL_SPI_MspInit+0x134>)
 80a1450:	f8d3 20f0 	ldr.w	r2, [r3, #240]	@ 0xf0
 80a1454:	f442 5280 	orr.w	r2, r2, #4096	@ 0x1000
 80a1458:	f8c3 20f0 	str.w	r2, [r3, #240]	@ 0xf0
 80a145c:	f8d3 20f0 	ldr.w	r2, [r3, #240]	@ 0xf0
 80a1460:	f402 5280 	and.w	r2, r2, #4096	@ 0x1000
 80a1464:	9201      	str	r2, [sp, #4]
 80a1466:	9a01      	ldr	r2, [sp, #4]
    __HAL_RCC_GPIOA_CLK_ENABLE();
 80a1468:	f8d3 20e0 	ldr.w	r2, [r3, #224]	@ 0xe0
 80a146c:	f042 0201 	orr.w	r2, r2, #1
 80a1470:	f8c3 20e0 	str.w	r2, [r3, #224]	@ 0xe0
 80a1474:	f8d3 20e0 	ldr.w	r2, [r3, #224]	@ 0xe0
 80a1478:	f002 0201 	and.w	r2, r2, #1
 80a147c:	9202      	str	r2, [sp, #8]
 80a147e:	9a02      	ldr	r2, [sp, #8]
    __HAL_RCC_GPIOD_CLK_ENABLE();
 80a1480:	f8d3 20e0 	ldr.w	r2, [r3, #224]	@ 0xe0
 80a1484:	f042 0208 	orr.w	r2, r2, #8
 80a1488:	f8c3 20e0 	str.w	r2, [r3, #224]	@ 0xe0
 80a148c:	f8d3 30e0 	ldr.w	r3, [r3, #224]	@ 0xe0
 80a1490:	f003 0308 	and.w	r3, r3, #8
 80a1494:	9303      	str	r3, [sp, #12]
 80a1496:	9b03      	ldr	r3, [sp, #12]
    GPIO_InitStruct.Pin = GPIO_PIN_5|GPIO_PIN_6;
 80a1498:	2360      	movs	r3, #96	@ 0x60
 80a149a:	9335      	str	r3, [sp, #212]	@ 0xd4
    GPIO_InitStruct.Mode = GPIO_MODE_AF_PP;
 80a149c:	2702      	movs	r7, #2
 80a149e:	9736      	str	r7, [sp, #216]	@ 0xd8
    GPIO_InitStruct.Pull = GPIO_NOPULL;
 80a14a0:	2500      	movs	r5, #0
 80a14a2:	9537      	str	r5, [sp, #220]	@ 0xdc
    GPIO_InitStruct.Speed = GPIO_SPEED_FREQ_LOW;
 80a14a4:	9538      	str	r5, [sp, #224]	@ 0xe0
    GPIO_InitStruct.Alternate = GPIO_AF5_SPI1;
 80a14a6:	2605      	movs	r6, #5
 80a14a8:	9639      	str	r6, [sp, #228]	@ 0xe4
    HAL_GPIO_Init(GPIOA, &GPIO_InitStruct);
 80a14aa:	a935      	add	r1, sp, #212	@ 0xd4
 80a14ac:	4827      	ldr	r0, [pc, #156]	@ (80a154c <HAL_SPI_MspInit+0x138>)
 80a14ae:	f001 fe71 	bl	80a3194 <HAL_GPIO_Init>
    GPIO_InitStruct.Pin = GPIO_PIN_7;
 80a14b2:	2380      	movs	r3, #128	@ 0x80
 80a14b4:	9335      	str	r3, [sp, #212]	@ 0xd4
    GPIO_InitStruct.Mode = GPIO_MODE_AF_PP;
 80a14b6:	9736      	str	r7, [sp, #216]	@ 0xd8
    GPIO_InitStruct.Pull = GPIO_NOPULL;
 80a14b8:	9537      	str	r5, [sp, #220]	@ 0xdc
    GPIO_InitStruct.Speed = GPIO_SPEED_FREQ_LOW;
 80a14ba:	9538      	str	r5, [sp, #224]	@ 0xe0
    GPIO_InitStruct.Alternate = GPIO_AF5_SPI1;
 80a14bc:	9639      	str	r6, [sp, #228]	@ 0xe4
    HAL_GPIO_Init(GPIOD, &GPIO_InitStruct);
 80a14be:	a935      	add	r1, sp, #212	@ 0xd4
 80a14c0:	4823      	ldr	r0, [pc, #140]	@ (80a1550 <HAL_SPI_MspInit+0x13c>)
 80a14c2:	f001 fe67 	bl	80a3194 <HAL_GPIO_Init>
    hdma_spi1_rx.Instance = DMA1_Stream4;
 80a14c6:	4823      	ldr	r0, [pc, #140]	@ (80a1554 <HAL_SPI_MspInit+0x140>)
 80a14c8:	4b23      	ldr	r3, [pc, #140]	@ (80a1558 <HAL_SPI_MspInit+0x144>)
 80a14ca:	6003      	str	r3, [r0, #0]
    hdma_spi1_rx.Init.Request = DMA_REQUEST_SPI1_RX;
 80a14cc:	2325      	movs	r3, #37	@ 0x25
 80a14ce:	6043      	str	r3, [r0, #4]
    hdma_spi1_rx.Init.Direction = DMA_PERIPH_TO_MEMORY;
 80a14d0:	6085      	str	r5, [r0, #8]
    hdma_spi1_rx.Init.PeriphInc = DMA_PINC_DISABLE;
 80a14d2:	60c5      	str	r5, [r0, #12]
    hdma_spi1_rx.Init.MemInc = DMA_MINC_ENABLE;
 80a14d4:	f44f 6380 	mov.w	r3, #1024	@ 0x400
 80a14d8:	6103      	str	r3, [r0, #16]
    hdma_spi1_rx.Init.PeriphDataAlignment = DMA_PDATAALIGN_BYTE;
 80a14da:	6145      	str	r5, [r0, #20]
    hdma_spi1_rx.Init.MemDataAlignment = DMA_MDATAALIGN_BYTE;
 80a14dc:	6185      	str	r5, [r0, #24]
    hdma_spi1_rx.Init.Mode = DMA_NORMAL;
 80a14de:	61c5      	str	r5, [r0, #28]
    hdma_spi1_rx.Init.Priority = DMA_PRIORITY_LOW;
 80a14e0:	6205      	str	r5, [r0, #32]
    hdma_spi1_rx.Init.FIFOMode = DMA_FIFOMODE_DISABLE;
 80a14e2:	6245      	str	r5, [r0, #36]	@ 0x24
    if (HAL_DMA_Init(&hdma_spi1_rx) != HAL_OK)
 80a14e4:	f000 fcda 	bl	80a1e9c <HAL_DMA_Init>
 80a14e8:	bb28      	cbnz	r0, 80a1536 <HAL_SPI_MspInit+0x122>
    __HAL_LINKDMA(spiHandle,hdmarx,hdma_spi1_rx);
 80a14ea:	4b1a      	ldr	r3, [pc, #104]	@ (80a1554 <HAL_SPI_MspInit+0x140>)
 80a14ec:	67e3      	str	r3, [r4, #124]	@ 0x7c
 80a14ee:	639c      	str	r4, [r3, #56]	@ 0x38
    hdma_spi1_tx.Instance = DMA1_Stream5;
 80a14f0:	481a      	ldr	r0, [pc, #104]	@ (80a155c <HAL_SPI_MspInit+0x148>)
 80a14f2:	4b1b      	ldr	r3, [pc, #108]	@ (80a1560 <HAL_SPI_MspInit+0x14c>)
 80a14f4:	6003      	str	r3, [r0, #0]
    hdma_spi1_tx.Init.Request = DMA_REQUEST_SPI1_TX;
 80a14f6:	2326      	movs	r3, #38	@ 0x26
 80a14f8:	6043      	str	r3, [r0, #4]
    hdma_spi1_tx.Init.Direction = DMA_MEMORY_TO_PERIPH;
 80a14fa:	2340      	movs	r3, #64	@ 0x40
 80a14fc:	6083      	str	r3, [r0, #8]
    hdma_spi1_tx.Init.PeriphInc = DMA_PINC_DISABLE;
 80a14fe:	2300      	movs	r3, #0
 80a1500:	60c3      	str	r3, [r0, #12]
    hdma_spi1_tx.Init.MemInc = DMA_MINC_ENABLE;
 80a1502:	f44f 6280 	mov.w	r2, #1024	@ 0x400
 80a1506:	6102      	str	r2, [r0, #16]
    hdma_spi1_tx.Init.PeriphDataAlignment = DMA_PDATAALIGN_BYTE;
 80a1508:	6143      	str	r3, [r0, #20]
    hdma_spi1_tx.Init.MemDataAlignment = DMA_MDATAALIGN_BYTE;
 80a150a:	6183      	str	r3, [r0, #24]
    hdma_spi1_tx.Init.Mode = DMA_NORMAL;
 80a150c:	61c3      	str	r3, [r0, #28]
    hdma_spi1_tx.Init.Priority = DMA_PRIORITY_LOW;
 80a150e:	6203      	str	r3, [r0, #32]
    hdma_spi1_tx.Init.FIFOMode = DMA_FIFOMODE_DISABLE;
 80a1510:	6243      	str	r3, [r0, #36]	@ 0x24
    if (HAL_DMA_Init(&hdma_spi1_tx) != HAL_OK)
 80a1512:	f000 fcc3 	bl	80a1e9c <HAL_DMA_Init>
 80a1516:	b988      	cbnz	r0, 80a153c <HAL_SPI_MspInit+0x128>
    __HAL_LINKDMA(spiHandle,hdmatx,hdma_spi1_tx);
 80a1518:	4b10      	ldr	r3, [pc, #64]	@ (80a155c <HAL_SPI_MspInit+0x148>)
 80a151a:	67a3      	str	r3, [r4, #120]	@ 0x78
 80a151c:	639c      	str	r4, [r3, #56]	@ 0x38
    HAL_NVIC_SetPriority(SPI1_IRQn, 0, 0);
 80a151e:	2200      	movs	r2, #0
 80a1520:	4611      	mov	r1, r2
 80a1522:	2023      	movs	r0, #35	@ 0x23
 80a1524:	f000 fa80 	bl	80a1a28 <HAL_NVIC_SetPriority>
    HAL_NVIC_EnableIRQ(SPI1_IRQn);
 80a1528:	2023      	movs	r0, #35	@ 0x23
 80a152a:	f000 fa8d 	bl	80a1a48 <HAL_NVIC_EnableIRQ>
}
 80a152e:	e782      	b.n	80a1436 <HAL_SPI_MspInit+0x22>
      Error_Handler();
 80a1530:	f7ff fe28 	bl	80a1184 <Error_Handler>
 80a1534:	e78b      	b.n	80a144e <HAL_SPI_MspInit+0x3a>
      Error_Handler();
 80a1536:	f7ff fe25 	bl	80a1184 <Error_Handler>
 80a153a:	e7d6      	b.n	80a14ea <HAL_SPI_MspInit+0xd6>
      Error_Handler();
 80a153c:	f7ff fe22 	bl	80a1184 <Error_Handler>
 80a1540:	e7ea      	b.n	80a1518 <HAL_SPI_MspInit+0x104>
 80a1542:	bf00      	nop
 80a1544:	40013000 	.word	0x40013000
 80a1548:	58024400 	.word	0x58024400
 80a154c:	58020000 	.word	0x58020000
 80a1550:	58020c00 	.word	0x58020c00
 80a1554:	380024cc 	.word	0x380024cc
 80a1558:	40020070 	.word	0x40020070
 80a155c:	38002454 	.word	0x38002454
 80a1560:	40020088 	.word	0x40020088

080a1564 <HAL_MspInit>:
/* USER CODE END 0 */
/**
  * Initializes the Global MSP.
  */
void HAL_MspInit(void)
{
 80a1564:	b082      	sub	sp, #8

  /* USER CODE BEGIN MspInit 0 */

  /* USER CODE END MspInit 0 */

  __HAL_RCC_SYSCFG_CLK_ENABLE();
 80a1566:	4b07      	ldr	r3, [pc, #28]	@ (80a1584 <HAL_MspInit+0x20>)
 80a1568:	f8d3 20f4 	ldr.w	r2, [r3, #244]	@ 0xf4
 80a156c:	f042 0202 	orr.w	r2, r2, #2
 80a1570:	f8c3 20f4 	str.w	r2, [r3, #244]	@ 0xf4
 80a1574:	f8d3 30f4 	ldr.w	r3, [r3, #244]	@ 0xf4
 80a1578:	f003 0302 	and.w	r3, r3, #2
 80a157c:	9301      	str	r3, [sp, #4]
 80a157e:	9b01      	ldr	r3, [sp, #4]
  /* System interrupt init*/

  /* USER CODE BEGIN MspInit 1 */

  /* USER CODE END MspInit 1 */
}
 80a1580:	b002      	add	sp, #8
 80a1582:	4770      	bx	lr
 80a1584:	58024400 	.word	0x58024400

080a1588 <NMI_Handler>:
{
  /* USER CODE BEGIN NonMaskableInt_IRQn 0 */

  /* USER CODE END NonMaskableInt_IRQn 0 */
  /* USER CODE BEGIN NonMaskableInt_IRQn 1 */
   while (1)
 80a1588:	e7fe      	b.n	80a1588 <NMI_Handler>

080a158a <HardFault_Handler>:
void HardFault_Handler(void)
{
  /* USER CODE BEGIN HardFault_IRQn 0 */

  /* USER CODE END HardFault_IRQn 0 */
  while (1)
 80a158a:	e7fe      	b.n	80a158a <HardFault_Handler>

080a158c <MemManage_Handler>:
void MemManage_Handler(void)
{
  /* USER CODE BEGIN MemoryManagement_IRQn 0 */

  /* USER CODE END MemoryManagement_IRQn 0 */
  while (1)
 80a158c:	e7fe      	b.n	80a158c <MemManage_Handler>

080a158e <BusFault_Handler>:
void BusFault_Handler(void)
{
  /* USER CODE BEGIN BusFault_IRQn 0 */

  /* USER CODE END BusFault_IRQn 0 */
  while (1)
 80a158e:	e7fe      	b.n	80a158e <BusFault_Handler>

080a1590 <UsageFault_Handler>:
void UsageFault_Handler(void)
{
  /* USER CODE BEGIN UsageFault_IRQn 0 */

  /* USER CODE END UsageFault_IRQn 0 */
  while (1)
 80a1590:	e7fe      	b.n	80a1590 <UsageFault_Handler>

080a1592 <SVC_Handler>:

  /* USER CODE END SVCall_IRQn 0 */
  /* USER CODE BEGIN SVCall_IRQn 1 */

  /* USER CODE END SVCall_IRQn 1 */
}
 80a1592:	4770      	bx	lr

080a1594 <DebugMon_Handler>:

  /* USER CODE END DebugMonitor_IRQn 0 */
  /* USER CODE BEGIN DebugMonitor_IRQn 1 */

  /* USER CODE END DebugMonitor_IRQn 1 */
}
 80a1594:	4770      	bx	lr

080a1596 <PendSV_Handler>:

  /* USER CODE END PendSV_IRQn 0 */
  /* USER CODE BEGIN PendSV_IRQn 1 */

  /* USER CODE END PendSV_IRQn 1 */
}
 80a1596:	4770      	bx	lr

080a1598 <SysTick_Handler>:

/**
  * @brief This function handles System tick timer.
  */
void SysTick_Handler(void)
{
 80a1598:	b508      	push	{r3, lr}
  /* USER CODE BEGIN SysTick_IRQn 0 */

  /* USER CODE END SysTick_IRQn 0 */
  HAL_IncTick();
 80a159a:	f000 f9df 	bl	80a195c <HAL_IncTick>
  /* USER CODE BEGIN SysTick_IRQn 1 */

  /* USER CODE END SysTick_IRQn 1 */
}
 80a159e:	bd08      	pop	{r3, pc}

080a15a0 <HSEM2_IRQHandler>:
void HSEM2_IRQHandler(void)
{
 80a15a0:	b508      	push	{r3, lr}
    HAL_HSEM_IRQHandler();
 80a15a2:	f002 fb0b 	bl	80a3bbc <HAL_HSEM_IRQHandler>
}
 80a15a6:	bd08      	pop	{r3, pc}

080a15a8 <DMA1_Stream4_IRQHandler>:

/**
  * @brief This function handles DMA1 stream4 global interrupt.
  */
void DMA1_Stream4_IRQHandler(void)
{
 80a15a8:	b508      	push	{r3, lr}
  /* USER CODE BEGIN DMA1_Stream4_IRQn 0 */

  /* USER CODE END DMA1_Stream4_IRQn 0 */
  HAL_DMA_IRQHandler(&hdma_spi1_rx);
 80a15aa:	4802      	ldr	r0, [pc, #8]	@ (80a15b4 <DMA1_Stream4_IRQHandler+0xc>)
 80a15ac:	f001 fa60 	bl	80a2a70 <HAL_DMA_IRQHandler>
  /* USER CODE BEGIN DMA1_Stream4_IRQn 1 */

  /* USER CODE END DMA1_Stream4_IRQn 1 */
}
 80a15b0:	bd08      	pop	{r3, pc}
 80a15b2:	bf00      	nop
 80a15b4:	380024cc 	.word	0x380024cc

080a15b8 <DMA1_Stream5_IRQHandler>:

/**
  * @brief This function handles DMA1 stream5 global interrupt.
  */
void DMA1_Stream5_IRQHandler(void)
{
 80a15b8:	b508      	push	{r3, lr}
  /* USER CODE BEGIN DMA1_Stream5_IRQn 0 */

  /* USER CODE END DMA1_Stream5_IRQn 0 */
  HAL_DMA_IRQHandler(&hdma_spi1_tx);
 80a15ba:	4802      	ldr	r0, [pc, #8]	@ (80a15c4 <DMA1_Stream5_IRQHandler+0xc>)
 80a15bc:	f001 fa58 	bl	80a2a70 <HAL_DMA_IRQHandler>
  /* USER CODE BEGIN DMA1_Stream5_IRQn 1 */

  /* USER CODE END DMA1_Stream5_IRQn 1 */
}
 80a15c0:	bd08      	pop	{r3, pc}
 80a15c2:	bf00      	nop
 80a15c4:	38002454 	.word	0x38002454

080a15c8 <DMA1_Stream6_IRQHandler>:

/**
  * @brief This function handles DMA1 stream6 global interrupt.
  */
void DMA1_Stream6_IRQHandler(void)
{
 80a15c8:	b508      	push	{r3, lr}
  /* USER CODE BEGIN DMA1_Stream6_IRQn 0 */

  /* USER CODE END DMA1_Stream6_IRQn 0 */
  HAL_DMA_IRQHandler(&hdma_hrtim1_a);
 80a15ca:	4802      	ldr	r0, [pc, #8]	@ (80a15d4 <DMA1_Stream6_IRQHandler+0xc>)
 80a15cc:	f001 fa50 	bl	80a2a70 <HAL_DMA_IRQHandler>
  /* USER CODE BEGIN DMA1_Stream6_IRQn 1 */

  /* USER CODE END DMA1_Stream6_IRQn 1 */
}
 80a15d0:	bd08      	pop	{r3, pc}
 80a15d2:	bf00      	nop
 80a15d4:	380021f4 	.word	0x380021f4

080a15d8 <SPI1_IRQHandler>:

/**
  * @brief This function handles SPI1 global interrupt.
  */
void SPI1_IRQHandler(void)
{
 80a15d8:	b508      	push	{r3, lr}
  /* USER CODE BEGIN SPI1_IRQn 0 */

  /* USER CODE END SPI1_IRQn 0 */
  HAL_SPI_IRQHandler(&hspi1);
 80a15da:	4802      	ldr	r0, [pc, #8]	@ (80a15e4 <SPI1_IRQHandler+0xc>)
 80a15dc:	f003 fd62 	bl	80a50a4 <HAL_SPI_IRQHandler>
  /* USER CODE BEGIN SPI1_IRQn 1 */

  /* USER CODE END SPI1_IRQn 1 */
}
 80a15e0:	bd08      	pop	{r3, pc}
 80a15e2:	bf00      	nop
 80a15e4:	38002544 	.word	0x38002544

080a15e8 <EXTI0_IRQHandler>:

/* USER CODE BEGIN 1 */
void EXTI0_IRQHandler(void)
{
 80a15e8:	b508      	push	{r3, lr}
  HAL_GPIO_EXTI_IRQHandler(FSK_TRIG_Pin);
 80a15ea:	2001      	movs	r0, #1
 80a15ec:	f001 fef1 	bl	80a33d2 <HAL_GPIO_EXTI_IRQHandler>
}
 80a15f0:	bd08      	pop	{r3, pc}
	...

080a15f4 <HAL_TIM_Base_MspInit>:
}

void HAL_TIM_Base_MspInit(TIM_HandleTypeDef* tim_baseHandle)
{

  if(tim_baseHandle->Instance==TIM2)
 80a15f4:	6803      	ldr	r3, [r0, #0]
 80a15f6:	f1b3 4f80 	cmp.w	r3, #1073741824	@ 0x40000000
 80a15fa:	d000      	beq.n	80a15fe <HAL_TIM_Base_MspInit+0xa>
 80a15fc:	4770      	bx	lr
{
 80a15fe:	b082      	sub	sp, #8
  {
  /* USER CODE BEGIN TIM2_MspInit 0 */

  /* USER CODE END TIM2_MspInit 0 */
    /* TIM2 clock enable */
    __HAL_RCC_TIM2_CLK_ENABLE();
 80a1600:	4b07      	ldr	r3, [pc, #28]	@ (80a1620 <HAL_TIM_Base_MspInit+0x2c>)
 80a1602:	f8d3 20e8 	ldr.w	r2, [r3, #232]	@ 0xe8
 80a1606:	f042 0201 	orr.w	r2, r2, #1
 80a160a:	f8c3 20e8 	str.w	r2, [r3, #232]	@ 0xe8
 80a160e:	f8d3 30e8 	ldr.w	r3, [r3, #232]	@ 0xe8
 80a1612:	f003 0301 	and.w	r3, r3, #1
 80a1616:	9301      	str	r3, [sp, #4]
 80a1618:	9b01      	ldr	r3, [sp, #4]
  /* USER CODE BEGIN TIM2_MspInit 1 */

  /* USER CODE END TIM2_MspInit 1 */
  }
}
 80a161a:	b002      	add	sp, #8
 80a161c:	4770      	bx	lr
 80a161e:	bf00      	nop
 80a1620:	58024400 	.word	0x58024400

080a1624 <HAL_TIM_PWM_MspInit>:

void HAL_TIM_PWM_MspInit(TIM_HandleTypeDef* tim_pwmHandle)
{

  if(tim_pwmHandle->Instance==TIM3)
 80a1624:	6802      	ldr	r2, [r0, #0]
 80a1626:	4b0a      	ldr	r3, [pc, #40]	@ (80a1650 <HAL_TIM_PWM_MspInit+0x2c>)
 80a1628:	429a      	cmp	r2, r3
 80a162a:	d000      	beq.n	80a162e <HAL_TIM_PWM_MspInit+0xa>
 80a162c:	4770      	bx	lr
{
 80a162e:	b082      	sub	sp, #8
  {
  /* USER CODE BEGIN TIM3_MspInit 0 */

  /* USER CODE END TIM3_MspInit 0 */
    /* TIM3 clock enable */
    __HAL_RCC_TIM3_CLK_ENABLE();
 80a1630:	4b08      	ldr	r3, [pc, #32]	@ (80a1654 <HAL_TIM_PWM_MspInit+0x30>)
 80a1632:	f8d3 20e8 	ldr.w	r2, [r3, #232]	@ 0xe8
 80a1636:	f042 0202 	orr.w	r2, r2, #2
 80a163a:	f8c3 20e8 	str.w	r2, [r3, #232]	@ 0xe8
 80a163e:	f8d3 30e8 	ldr.w	r3, [r3, #232]	@ 0xe8
 80a1642:	f003 0302 	and.w	r3, r3, #2
 80a1646:	9301      	str	r3, [sp, #4]
 80a1648:	9b01      	ldr	r3, [sp, #4]
  /* USER CODE BEGIN TIM3_MspInit 1 */

  /* USER CODE END TIM3_MspInit 1 */
  }
}
 80a164a:	b002      	add	sp, #8
 80a164c:	4770      	bx	lr
 80a164e:	bf00      	nop
 80a1650:	40000400 	.word	0x40000400
 80a1654:	58024400 	.word	0x58024400

080a1658 <HAL_TIM_MspPostInit>:
void HAL_TIM_MspPostInit(TIM_HandleTypeDef* timHandle)
{
 80a1658:	b500      	push	{lr}
 80a165a:	b089      	sub	sp, #36	@ 0x24

  GPIO_InitTypeDef GPIO_InitStruct = {0};
 80a165c:	2300      	movs	r3, #0
 80a165e:	9303      	str	r3, [sp, #12]
 80a1660:	9304      	str	r3, [sp, #16]
 80a1662:	9305      	str	r3, [sp, #20]
 80a1664:	9306      	str	r3, [sp, #24]
 80a1666:	9307      	str	r3, [sp, #28]
  if(timHandle->Instance==TIM2)
 80a1668:	6803      	ldr	r3, [r0, #0]
 80a166a:	f1b3 4f80 	cmp.w	r3, #1073741824	@ 0x40000000
 80a166e:	d005      	beq.n	80a167c <HAL_TIM_MspPostInit+0x24>

  /* USER CODE BEGIN TIM2_MspPostInit 1 */

  /* USER CODE END TIM2_MspPostInit 1 */
  }
  else if(timHandle->Instance==TIM3)
 80a1670:	4a1a      	ldr	r2, [pc, #104]	@ (80a16dc <HAL_TIM_MspPostInit+0x84>)
 80a1672:	4293      	cmp	r3, r2
 80a1674:	d01b      	beq.n	80a16ae <HAL_TIM_MspPostInit+0x56>
  /* USER CODE BEGIN TIM3_MspPostInit 1 */

  /* USER CODE END TIM3_MspPostInit 1 */
  }

}
 80a1676:	b009      	add	sp, #36	@ 0x24
 80a1678:	f85d fb04 	ldr.w	pc, [sp], #4
    __HAL_RCC_GPIOA_CLK_ENABLE();
 80a167c:	4b18      	ldr	r3, [pc, #96]	@ (80a16e0 <HAL_TIM_MspPostInit+0x88>)
 80a167e:	f8d3 20e0 	ldr.w	r2, [r3, #224]	@ 0xe0
 80a1682:	f042 0201 	orr.w	r2, r2, #1
 80a1686:	f8c3 20e0 	str.w	r2, [r3, #224]	@ 0xe0
 80a168a:	f8d3 30e0 	ldr.w	r3, [r3, #224]	@ 0xe0
 80a168e:	f003 0301 	and.w	r3, r3, #1
 80a1692:	9301      	str	r3, [sp, #4]
 80a1694:	9b01      	ldr	r3, [sp, #4]
    GPIO_InitStruct.Pin = GPIO_PIN_15;
 80a1696:	f44f 4300 	mov.w	r3, #32768	@ 0x8000
 80a169a:	9303      	str	r3, [sp, #12]
    GPIO_InitStruct.Mode = GPIO_MODE_AF_PP;
 80a169c:	2302      	movs	r3, #2
 80a169e:	9304      	str	r3, [sp, #16]
    GPIO_InitStruct.Alternate = GPIO_AF1_TIM2;
 80a16a0:	2301      	movs	r3, #1
 80a16a2:	9307      	str	r3, [sp, #28]
    HAL_GPIO_Init(GPIOA, &GPIO_InitStruct);
 80a16a4:	a903      	add	r1, sp, #12
 80a16a6:	480f      	ldr	r0, [pc, #60]	@ (80a16e4 <HAL_TIM_MspPostInit+0x8c>)
 80a16a8:	f001 fd74 	bl	80a3194 <HAL_GPIO_Init>
 80a16ac:	e7e3      	b.n	80a1676 <HAL_TIM_MspPostInit+0x1e>
    __HAL_RCC_GPIOC_CLK_ENABLE();
 80a16ae:	4b0c      	ldr	r3, [pc, #48]	@ (80a16e0 <HAL_TIM_MspPostInit+0x88>)
 80a16b0:	f8d3 20e0 	ldr.w	r2, [r3, #224]	@ 0xe0
 80a16b4:	f042 0204 	orr.w	r2, r2, #4
 80a16b8:	f8c3 20e0 	str.w	r2, [r3, #224]	@ 0xe0
 80a16bc:	f8d3 30e0 	ldr.w	r3, [r3, #224]	@ 0xe0
 80a16c0:	f003 0304 	and.w	r3, r3, #4
 80a16c4:	9302      	str	r3, [sp, #8]
 80a16c6:	9b02      	ldr	r3, [sp, #8]
    GPIO_InitStruct.Pin = GPIO_PIN_6;
 80a16c8:	2340      	movs	r3, #64	@ 0x40
 80a16ca:	9303      	str	r3, [sp, #12]
    GPIO_InitStruct.Mode = GPIO_MODE_AF_PP;
 80a16cc:	2302      	movs	r3, #2
 80a16ce:	9304      	str	r3, [sp, #16]
    GPIO_InitStruct.Alternate = GPIO_AF2_TIM3;
 80a16d0:	9307      	str	r3, [sp, #28]
    HAL_GPIO_Init(GPIOC, &GPIO_InitStruct);
 80a16d2:	a903      	add	r1, sp, #12
 80a16d4:	4804      	ldr	r0, [pc, #16]	@ (80a16e8 <HAL_TIM_MspPostInit+0x90>)
 80a16d6:	f001 fd5d 	bl	80a3194 <HAL_GPIO_Init>
}
 80a16da:	e7cc      	b.n	80a1676 <HAL_TIM_MspPostInit+0x1e>
 80a16dc:	40000400 	.word	0x40000400
 80a16e0:	58024400 	.word	0x58024400
 80a16e4:	58020000 	.word	0x58020000
 80a16e8:	58020800 	.word	0x58020800

080a16ec <MX_TIM2_Init>:
{
 80a16ec:	b500      	push	{lr}
 80a16ee:	b08f      	sub	sp, #60	@ 0x3c
  TIM_ClockConfigTypeDef sClockSourceConfig = {0};
 80a16f0:	2300      	movs	r3, #0
 80a16f2:	930a      	str	r3, [sp, #40]	@ 0x28
 80a16f4:	930b      	str	r3, [sp, #44]	@ 0x2c
 80a16f6:	930c      	str	r3, [sp, #48]	@ 0x30
 80a16f8:	930d      	str	r3, [sp, #52]	@ 0x34
  TIM_MasterConfigTypeDef sMasterConfig = {0};
 80a16fa:	9307      	str	r3, [sp, #28]
 80a16fc:	9308      	str	r3, [sp, #32]
 80a16fe:	9309      	str	r3, [sp, #36]	@ 0x24
  TIM_OC_InitTypeDef sConfigOC = {0};
 80a1700:	9300      	str	r3, [sp, #0]
 80a1702:	9301      	str	r3, [sp, #4]
 80a1704:	9302      	str	r3, [sp, #8]
 80a1706:	9303      	str	r3, [sp, #12]
 80a1708:	9304      	str	r3, [sp, #16]
 80a170a:	9305      	str	r3, [sp, #20]
 80a170c:	9306      	str	r3, [sp, #24]
  htim2.Instance = TIM2;
 80a170e:	4821      	ldr	r0, [pc, #132]	@ (80a1794 <MX_TIM2_Init+0xa8>)
 80a1710:	f04f 4280 	mov.w	r2, #1073741824	@ 0x40000000
 80a1714:	6002      	str	r2, [r0, #0]
  htim2.Init.Prescaler = 199;
 80a1716:	22c7      	movs	r2, #199	@ 0xc7
 80a1718:	6042      	str	r2, [r0, #4]
  htim2.Init.CounterMode = TIM_COUNTERMODE_UP;
 80a171a:	6083      	str	r3, [r0, #8]
  htim2.Init.Period = 249; //999 for 100khz
 80a171c:	22f9      	movs	r2, #249	@ 0xf9
 80a171e:	60c2      	str	r2, [r0, #12]
  htim2.Init.ClockDivision = TIM_CLOCKDIVISION_DIV1;
 80a1720:	6103      	str	r3, [r0, #16]
  htim2.Init.AutoReloadPreload = TIM_AUTORELOAD_PRELOAD_DISABLE;
 80a1722:	6183      	str	r3, [r0, #24]
  if (HAL_TIM_Base_Init(&htim2) != HAL_OK)
 80a1724:	f003 ffac 	bl	80a5680 <HAL_TIM_Base_Init>
 80a1728:	bb28      	cbnz	r0, 80a1776 <MX_TIM2_Init+0x8a>
  sClockSourceConfig.ClockSource = TIM_CLOCKSOURCE_INTERNAL;
 80a172a:	f44f 5380 	mov.w	r3, #4096	@ 0x1000
 80a172e:	930a      	str	r3, [sp, #40]	@ 0x28
  if (HAL_TIM_ConfigClockSource(&htim2, &sClockSourceConfig) != HAL_OK)
 80a1730:	a90a      	add	r1, sp, #40	@ 0x28
 80a1732:	4818      	ldr	r0, [pc, #96]	@ (80a1794 <MX_TIM2_Init+0xa8>)
 80a1734:	f004 f8f4 	bl	80a5920 <HAL_TIM_ConfigClockSource>
 80a1738:	bb00      	cbnz	r0, 80a177c <MX_TIM2_Init+0x90>
  if (HAL_TIM_PWM_Init(&htim2) != HAL_OK)
 80a173a:	4816      	ldr	r0, [pc, #88]	@ (80a1794 <MX_TIM2_Init+0xa8>)
 80a173c:	f003 ffd0 	bl	80a56e0 <HAL_TIM_PWM_Init>
 80a1740:	b9f8      	cbnz	r0, 80a1782 <MX_TIM2_Init+0x96>
  sMasterConfig.MasterOutputTrigger = TIM_TRGO_RESET;
 80a1742:	2300      	movs	r3, #0
 80a1744:	9307      	str	r3, [sp, #28]
  sMasterConfig.MasterSlaveMode = TIM_MASTERSLAVEMODE_DISABLE;
 80a1746:	9309      	str	r3, [sp, #36]	@ 0x24
  if (HAL_TIMEx_MasterConfigSynchronization(&htim2, &sMasterConfig) != HAL_OK)
 80a1748:	a907      	add	r1, sp, #28
 80a174a:	4812      	ldr	r0, [pc, #72]	@ (80a1794 <MX_TIM2_Init+0xa8>)
 80a174c:	f004 faae 	bl	80a5cac <HAL_TIMEx_MasterConfigSynchronization>
 80a1750:	b9d0      	cbnz	r0, 80a1788 <MX_TIM2_Init+0x9c>
  sConfigOC.OCMode = TIM_OCMODE_PWM1;
 80a1752:	2360      	movs	r3, #96	@ 0x60
 80a1754:	9300      	str	r3, [sp, #0]
  sConfigOC.Pulse = 125;//500 for 100khz
 80a1756:	237d      	movs	r3, #125	@ 0x7d
 80a1758:	9301      	str	r3, [sp, #4]
  sConfigOC.OCPolarity = TIM_OCPOLARITY_HIGH;
 80a175a:	2200      	movs	r2, #0
 80a175c:	9202      	str	r2, [sp, #8]
  sConfigOC.OCFastMode = TIM_OCFAST_DISABLE;
 80a175e:	9204      	str	r2, [sp, #16]
  if (HAL_TIM_PWM_ConfigChannel(&htim2, &sConfigOC, TIM_CHANNEL_1) != HAL_OK)
 80a1760:	4669      	mov	r1, sp
 80a1762:	480c      	ldr	r0, [pc, #48]	@ (80a1794 <MX_TIM2_Init+0xa8>)
 80a1764:	f004 f832 	bl	80a57cc <HAL_TIM_PWM_ConfigChannel>
 80a1768:	b988      	cbnz	r0, 80a178e <MX_TIM2_Init+0xa2>
  HAL_TIM_MspPostInit(&htim2);
 80a176a:	480a      	ldr	r0, [pc, #40]	@ (80a1794 <MX_TIM2_Init+0xa8>)
 80a176c:	f7ff ff74 	bl	80a1658 <HAL_TIM_MspPostInit>
}
 80a1770:	b00f      	add	sp, #60	@ 0x3c
 80a1772:	f85d fb04 	ldr.w	pc, [sp], #4
    Error_Handler();
 80a1776:	f7ff fd05 	bl	80a1184 <Error_Handler>
 80a177a:	e7d6      	b.n	80a172a <MX_TIM2_Init+0x3e>
    Error_Handler();
 80a177c:	f7ff fd02 	bl	80a1184 <Error_Handler>
 80a1780:	e7db      	b.n	80a173a <MX_TIM2_Init+0x4e>
    Error_Handler();
 80a1782:	f7ff fcff 	bl	80a1184 <Error_Handler>
 80a1786:	e7dc      	b.n	80a1742 <MX_TIM2_Init+0x56>
    Error_Handler();
 80a1788:	f7ff fcfc 	bl	80a1184 <Error_Handler>
 80a178c:	e7e1      	b.n	80a1752 <MX_TIM2_Init+0x66>
    Error_Handler();
 80a178e:	f7ff fcf9 	bl	80a1184 <Error_Handler>
 80a1792:	e7ea      	b.n	80a176a <MX_TIM2_Init+0x7e>
 80a1794:	38002618 	.word	0x38002618

080a1798 <MX_TIM3_Init>:
{
 80a1798:	b500      	push	{lr}
 80a179a:	b08b      	sub	sp, #44	@ 0x2c
  TIM_MasterConfigTypeDef sMasterConfig = {0};
 80a179c:	2300      	movs	r3, #0
 80a179e:	9307      	str	r3, [sp, #28]
 80a17a0:	9308      	str	r3, [sp, #32]
 80a17a2:	9309      	str	r3, [sp, #36]	@ 0x24
  TIM_OC_InitTypeDef sConfigOC = {0};
 80a17a4:	9300      	str	r3, [sp, #0]
 80a17a6:	9301      	str	r3, [sp, #4]
 80a17a8:	9302      	str	r3, [sp, #8]
 80a17aa:	9303      	str	r3, [sp, #12]
 80a17ac:	9304      	str	r3, [sp, #16]
 80a17ae:	9305      	str	r3, [sp, #20]
 80a17b0:	9306      	str	r3, [sp, #24]
  htim3.Instance = TIM3;
 80a17b2:	4818      	ldr	r0, [pc, #96]	@ (80a1814 <MX_TIM3_Init+0x7c>)
 80a17b4:	4a18      	ldr	r2, [pc, #96]	@ (80a1818 <MX_TIM3_Init+0x80>)
 80a17b6:	6002      	str	r2, [r0, #0]
  htim3.Init.Prescaler = 0;
 80a17b8:	6043      	str	r3, [r0, #4]
  htim3.Init.CounterMode = TIM_COUNTERMODE_UP;
 80a17ba:	6083      	str	r3, [r0, #8]
  htim3.Init.Period = 1110;
 80a17bc:	f240 4256 	movw	r2, #1110	@ 0x456
 80a17c0:	60c2      	str	r2, [r0, #12]
  htim3.Init.ClockDivision = TIM_CLOCKDIVISION_DIV1;
 80a17c2:	6103      	str	r3, [r0, #16]
  htim3.Init.AutoReloadPreload = TIM_AUTORELOAD_PRELOAD_DISABLE;
 80a17c4:	6183      	str	r3, [r0, #24]
  if (HAL_TIM_PWM_Init(&htim3) != HAL_OK)
 80a17c6:	f003 ff8b 	bl	80a56e0 <HAL_TIM_PWM_Init>
 80a17ca:	b9d0      	cbnz	r0, 80a1802 <MX_TIM3_Init+0x6a>
  sMasterConfig.MasterOutputTrigger = TIM_TRGO_RESET;
 80a17cc:	2300      	movs	r3, #0
 80a17ce:	9307      	str	r3, [sp, #28]
  sMasterConfig.MasterSlaveMode = TIM_MASTERSLAVEMODE_DISABLE;
 80a17d0:	9309      	str	r3, [sp, #36]	@ 0x24
  if (HAL_TIMEx_MasterConfigSynchronization(&htim3, &sMasterConfig) != HAL_OK)
 80a17d2:	a907      	add	r1, sp, #28
 80a17d4:	480f      	ldr	r0, [pc, #60]	@ (80a1814 <MX_TIM3_Init+0x7c>)
 80a17d6:	f004 fa69 	bl	80a5cac <HAL_TIMEx_MasterConfigSynchronization>
 80a17da:	b9a8      	cbnz	r0, 80a1808 <MX_TIM3_Init+0x70>
  sConfigOC.OCMode = TIM_OCMODE_PWM1;
 80a17dc:	2360      	movs	r3, #96	@ 0x60
 80a17de:	9300      	str	r3, [sp, #0]
  sConfigOC.Pulse = 554;
 80a17e0:	f240 232a 	movw	r3, #554	@ 0x22a
 80a17e4:	9301      	str	r3, [sp, #4]
  sConfigOC.OCPolarity = TIM_OCPOLARITY_HIGH;
 80a17e6:	2200      	movs	r2, #0
 80a17e8:	9202      	str	r2, [sp, #8]
  sConfigOC.OCFastMode = TIM_OCFAST_DISABLE;
 80a17ea:	9204      	str	r2, [sp, #16]
  if (HAL_TIM_PWM_ConfigChannel(&htim3, &sConfigOC, TIM_CHANNEL_1) != HAL_OK)
 80a17ec:	4669      	mov	r1, sp
 80a17ee:	4809      	ldr	r0, [pc, #36]	@ (80a1814 <MX_TIM3_Init+0x7c>)
 80a17f0:	f003 ffec 	bl	80a57cc <HAL_TIM_PWM_ConfigChannel>
 80a17f4:	b958      	cbnz	r0, 80a180e <MX_TIM3_Init+0x76>
  HAL_TIM_MspPostInit(&htim3);
 80a17f6:	4807      	ldr	r0, [pc, #28]	@ (80a1814 <MX_TIM3_Init+0x7c>)
 80a17f8:	f7ff ff2e 	bl	80a1658 <HAL_TIM_MspPostInit>
}
 80a17fc:	b00b      	add	sp, #44	@ 0x2c
 80a17fe:	f85d fb04 	ldr.w	pc, [sp], #4
    Error_Handler();
 80a1802:	f7ff fcbf 	bl	80a1184 <Error_Handler>
 80a1806:	e7e1      	b.n	80a17cc <MX_TIM3_Init+0x34>
    Error_Handler();
 80a1808:	f7ff fcbc 	bl	80a1184 <Error_Handler>
 80a180c:	e7e6      	b.n	80a17dc <MX_TIM3_Init+0x44>
    Error_Handler();
 80a180e:	f7ff fcb9 	bl	80a1184 <Error_Handler>
 80a1812:	e7f0      	b.n	80a17f6 <MX_TIM3_Init+0x5e>
 80a1814:	380025cc 	.word	0x380025cc
 80a1818:	40000400 	.word	0x40000400

080a181c <Reset_Handler>:

    .section  .text.Reset_Handler
  .weak  Reset_Handler
  .type  Reset_Handler, %function
Reset_Handler:
  ldr   sp, =_estack      /* set stack pointer */
 80a181c:	f8df d038 	ldr.w	sp, [pc, #56]	@ 80a1858 <LoopFillZerobss+0xe>

/* Call the ExitRun0Mode function to configure the power supply */
  bl  ExitRun0Mode
 80a1820:	f7fe fd68 	bl	80a02f4 <ExitRun0Mode>
/* Call the clock system initialization function.*/
  bl  SystemInit
 80a1824:	f7fe fd58 	bl	80a02d8 <SystemInit>

/* Copy the data segment initializers from flash to SRAM */
  ldr r0, =_sdata
 80a1828:	480c      	ldr	r0, [pc, #48]	@ (80a185c <LoopFillZerobss+0x12>)
  ldr r1, =_edata
 80a182a:	490d      	ldr	r1, [pc, #52]	@ (80a1860 <LoopFillZerobss+0x16>)
  ldr r2, =_sidata
 80a182c:	4a0d      	ldr	r2, [pc, #52]	@ (80a1864 <LoopFillZerobss+0x1a>)
  movs r3, #0
 80a182e:	2300      	movs	r3, #0
  b LoopCopyDataInit
 80a1830:	e002      	b.n	80a1838 <LoopCopyDataInit>

080a1832 <CopyDataInit>:

CopyDataInit:
  ldr r4, [r2, r3]
 80a1832:	58d4      	ldr	r4, [r2, r3]
  str r4, [r0, r3]
 80a1834:	50c4      	str	r4, [r0, r3]
  adds r3, r3, #4
 80a1836:	3304      	adds	r3, #4

080a1838 <LoopCopyDataInit>:

LoopCopyDataInit:
  adds r4, r0, r3
 80a1838:	18c4      	adds	r4, r0, r3
  cmp r4, r1
 80a183a:	428c      	cmp	r4, r1
  bcc CopyDataInit
 80a183c:	d3f9      	bcc.n	80a1832 <CopyDataInit>
/* Zero fill the bss segment. */
  ldr r2, =_sbss
 80a183e:	4a0a      	ldr	r2, [pc, #40]	@ (80a1868 <LoopFillZerobss+0x1e>)
  ldr r4, =_ebss
 80a1840:	4c0a      	ldr	r4, [pc, #40]	@ (80a186c <LoopFillZerobss+0x22>)
  movs r3, #0
 80a1842:	2300      	movs	r3, #0
  b LoopFillZerobss
 80a1844:	e001      	b.n	80a184a <LoopFillZerobss>

080a1846 <FillZerobss>:

FillZerobss:
  str  r3, [r2]
 80a1846:	6013      	str	r3, [r2, #0]
  adds r2, r2, #4
 80a1848:	3204      	adds	r2, #4

080a184a <LoopFillZerobss>:

LoopFillZerobss:
  cmp r2, r4
 80a184a:	42a2      	cmp	r2, r4
  bcc FillZerobss
 80a184c:	d3fb      	bcc.n	80a1846 <FillZerobss>

/* Call static constructors */
    bl __libc_init_array
 80a184e:	f004 fa85 	bl	80a5d5c <__libc_init_array>
/* Call the application's entry point.*/
  bl  main
 80a1852:	f7ff fbcf 	bl	80a0ff4 <main>
  bx  lr
 80a1856:	4770      	bx	lr
  ldr   sp, =_estack      /* set stack pointer */
 80a1858:	38010000 	.word	0x38010000
  ldr r0, =_sdata
 80a185c:	38000000 	.word	0x38000000
  ldr r1, =_edata
 80a1860:	38000010 	.word	0x38000010
  ldr r2, =_sidata
 80a1864:	080a5df8 	.word	0x080a5df8
  ldr r2, =_sbss
 80a1868:	38000010 	.word	0x38000010
  ldr r4, =_ebss
 80a186c:	38002668 	.word	0x38002668

080a1870 <ADC3_IRQHandler>:
 * @retval None
*/
    .section  .text.Default_Handler,"ax",%progbits
Default_Handler:
Infinite_Loop:
  b  Infinite_Loop
 80a1870:	e7fe      	b.n	80a1870 <ADC3_IRQHandler>
	...

080a1874 <HAL_InitTick>:
  * @retval HAL status
  */
__weak HAL_StatusTypeDef HAL_InitTick(uint32_t TickPriority)
{
  /* Check uwTickFreq for MisraC 2012 (even if uwTickFreq is a enum type that don't take the value zero)*/
  if((uint32_t)uwTickFreq == 0UL)
 80a1874:	4b10      	ldr	r3, [pc, #64]	@ (80a18b8 <HAL_InitTick+0x44>)
 80a1876:	781b      	ldrb	r3, [r3, #0]
 80a1878:	b90b      	cbnz	r3, 80a187e <HAL_InitTick+0xa>
  {
    return HAL_ERROR;
 80a187a:	2001      	movs	r0, #1
    return HAL_ERROR;
  }

  /* Return function status */
  return HAL_OK;
}
 80a187c:	4770      	bx	lr
{
 80a187e:	b510      	push	{r4, lr}
 80a1880:	4604      	mov	r4, r0
    if (HAL_SYSTICK_Config(SystemCoreClock / (1000UL / (uint32_t)uwTickFreq)) > 0U)
 80a1882:	f44f 707a 	mov.w	r0, #1000	@ 0x3e8
 80a1886:	fbb0 f3f3 	udiv	r3, r0, r3
 80a188a:	4a0c      	ldr	r2, [pc, #48]	@ (80a18bc <HAL_InitTick+0x48>)
 80a188c:	6810      	ldr	r0, [r2, #0]
 80a188e:	fbb0 f0f3 	udiv	r0, r0, r3
 80a1892:	f000 f8dd 	bl	80a1a50 <HAL_SYSTICK_Config>
 80a1896:	b968      	cbnz	r0, 80a18b4 <HAL_InitTick+0x40>
  if (TickPriority < (1UL << __NVIC_PRIO_BITS))
 80a1898:	2c0f      	cmp	r4, #15
 80a189a:	d901      	bls.n	80a18a0 <HAL_InitTick+0x2c>
    return HAL_ERROR;
 80a189c:	2001      	movs	r0, #1
 80a189e:	e00a      	b.n	80a18b6 <HAL_InitTick+0x42>
    HAL_NVIC_SetPriority(SysTick_IRQn, TickPriority, 0U);
 80a18a0:	2200      	movs	r2, #0
 80a18a2:	4621      	mov	r1, r4
 80a18a4:	f04f 30ff 	mov.w	r0, #4294967295
 80a18a8:	f000 f8be 	bl	80a1a28 <HAL_NVIC_SetPriority>
    uwTickPrio = TickPriority;
 80a18ac:	4b04      	ldr	r3, [pc, #16]	@ (80a18c0 <HAL_InitTick+0x4c>)
 80a18ae:	601c      	str	r4, [r3, #0]
  return HAL_OK;
 80a18b0:	2000      	movs	r0, #0
 80a18b2:	e000      	b.n	80a18b6 <HAL_InitTick+0x42>
      return HAL_ERROR;
 80a18b4:	2001      	movs	r0, #1
}
 80a18b6:	bd10      	pop	{r4, pc}
 80a18b8:	38000008 	.word	0x38000008
 80a18bc:	38000004 	.word	0x38000004
 80a18c0:	3800000c 	.word	0x3800000c

080a18c4 <HAL_Init>:
{
 80a18c4:	b510      	push	{r4, lr}
 80a18c6:	b082      	sub	sp, #8
   __HAL_RCC_ART_CLK_ENABLE();                   /* Enable the Cortex-M4 ART Clock */
 80a18c8:	4c1f      	ldr	r4, [pc, #124]	@ (80a1948 <HAL_Init+0x84>)
 80a18ca:	f8d4 30d8 	ldr.w	r3, [r4, #216]	@ 0xd8
 80a18ce:	f443 4380 	orr.w	r3, r3, #16384	@ 0x4000
 80a18d2:	f8c4 30d8 	str.w	r3, [r4, #216]	@ 0xd8
 80a18d6:	f8d4 30d8 	ldr.w	r3, [r4, #216]	@ 0xd8
 80a18da:	f403 4380 	and.w	r3, r3, #16384	@ 0x4000
 80a18de:	9301      	str	r3, [sp, #4]
 80a18e0:	9b01      	ldr	r3, [sp, #4]
   __HAL_ART_CONFIG_BASE_ADDRESS(0x08100000UL);  /* Configure the Cortex-M4 ART Base address to the Flash Bank 2 : */
 80a18e2:	4a1a      	ldr	r2, [pc, #104]	@ (80a194c <HAL_Init+0x88>)
 80a18e4:	f8d2 3400 	ldr.w	r3, [r2, #1024]	@ 0x400
 80a18e8:	f36f 2313 	bfc	r3, #8, #12
 80a18ec:	f443 4301 	orr.w	r3, r3, #33024	@ 0x8100
 80a18f0:	f8c2 3400 	str.w	r3, [r2, #1024]	@ 0x400
   __HAL_ART_ENABLE();                           /* Enable the Cortex-M4 ART */
 80a18f4:	f8d2 3400 	ldr.w	r3, [r2, #1024]	@ 0x400
 80a18f8:	f043 0301 	orr.w	r3, r3, #1
 80a18fc:	f8c2 3400 	str.w	r3, [r2, #1024]	@ 0x400
  HAL_NVIC_SetPriorityGrouping(NVIC_PRIORITYGROUP_4);
 80a1900:	2003      	movs	r0, #3
 80a1902:	f000 f87f 	bl	80a1a04 <HAL_NVIC_SetPriorityGrouping>
  common_system_clock = HAL_RCC_GetSysClockFreq() >> ((D1CorePrescTable[(RCC->D1CFGR & RCC_D1CFGR_D1CPRE)>> RCC_D1CFGR_D1CPRE_Pos]) & 0x1FU);
 80a1906:	f002 f9c9 	bl	80a3c9c <HAL_RCC_GetSysClockFreq>
 80a190a:	69a3      	ldr	r3, [r4, #24]
 80a190c:	f3c3 2303 	ubfx	r3, r3, #8, #4
 80a1910:	4a0f      	ldr	r2, [pc, #60]	@ (80a1950 <HAL_Init+0x8c>)
 80a1912:	5cd3      	ldrb	r3, [r2, r3]
 80a1914:	f003 031f 	and.w	r3, r3, #31
 80a1918:	40d8      	lsrs	r0, r3
  SystemD2Clock = (common_system_clock >> ((D1CorePrescTable[(RCC->D1CFGR & RCC_D1CFGR_HPRE)>> RCC_D1CFGR_HPRE_Pos]) & 0x1FU));
 80a191a:	69a3      	ldr	r3, [r4, #24]
 80a191c:	f003 030f 	and.w	r3, r3, #15
 80a1920:	5cd3      	ldrb	r3, [r2, r3]
 80a1922:	f003 031f 	and.w	r3, r3, #31
 80a1926:	40d8      	lsrs	r0, r3
 80a1928:	4b0a      	ldr	r3, [pc, #40]	@ (80a1954 <HAL_Init+0x90>)
 80a192a:	6018      	str	r0, [r3, #0]
  SystemCoreClock = SystemD2Clock;
 80a192c:	4b0a      	ldr	r3, [pc, #40]	@ (80a1958 <HAL_Init+0x94>)
 80a192e:	6018      	str	r0, [r3, #0]
  if(HAL_InitTick(TICK_INT_PRIORITY) != HAL_OK)
 80a1930:	2000      	movs	r0, #0
 80a1932:	f7ff ff9f 	bl	80a1874 <HAL_InitTick>
 80a1936:	b118      	cbz	r0, 80a1940 <HAL_Init+0x7c>
    return HAL_ERROR;
 80a1938:	2401      	movs	r4, #1
}
 80a193a:	4620      	mov	r0, r4
 80a193c:	b002      	add	sp, #8
 80a193e:	bd10      	pop	{r4, pc}
 80a1940:	4604      	mov	r4, r0
  HAL_MspInit();
 80a1942:	f7ff fe0f 	bl	80a1564 <HAL_MspInit>
  return HAL_OK;
 80a1946:	e7f8      	b.n	80a193a <HAL_Init+0x76>
 80a1948:	58024400 	.word	0x58024400
 80a194c:	40024000 	.word	0x40024000
 80a1950:	080a5dd8 	.word	0x080a5dd8
 80a1954:	38000000 	.word	0x38000000
 80a1958:	38000004 	.word	0x38000004

080a195c <HAL_IncTick>:
  *      implementations in user file.
  * @retval None
  */
__weak void HAL_IncTick(void)
{
  uwTick += (uint32_t)uwTickFreq;
 80a195c:	4b03      	ldr	r3, [pc, #12]	@ (80a196c <HAL_IncTick+0x10>)
 80a195e:	781b      	ldrb	r3, [r3, #0]
 80a1960:	4a03      	ldr	r2, [pc, #12]	@ (80a1970 <HAL_IncTick+0x14>)
 80a1962:	6811      	ldr	r1, [r2, #0]
 80a1964:	440b      	add	r3, r1
 80a1966:	6013      	str	r3, [r2, #0]
}
 80a1968:	4770      	bx	lr
 80a196a:	bf00      	nop
 80a196c:	38000008 	.word	0x38000008
 80a1970:	38002664 	.word	0x38002664

080a1974 <HAL_GetTick>:
  *       implementations in user file.
  * @retval tick value
  */
__weak uint32_t HAL_GetTick(void)
{
  return uwTick;
 80a1974:	4b01      	ldr	r3, [pc, #4]	@ (80a197c <HAL_GetTick+0x8>)
 80a1976:	6818      	ldr	r0, [r3, #0]
}
 80a1978:	4770      	bx	lr
 80a197a:	bf00      	nop
 80a197c:	38002664 	.word	0x38002664

080a1980 <__NVIC_EnableIRQ>:
  \param [in]      IRQn  Device specific interrupt number.
  \note    IRQn must not be negative.
 */
__STATIC_INLINE void __NVIC_EnableIRQ(IRQn_Type IRQn)
{
  if ((int32_t)(IRQn) >= 0)
 80a1980:	2800      	cmp	r0, #0
 80a1982:	db07      	blt.n	80a1994 <__NVIC_EnableIRQ+0x14>
  {
    __COMPILER_BARRIER();
    NVIC->ISER[(((uint32_t)IRQn) >> 5UL)] = (uint32_t)(1UL << (((uint32_t)IRQn) & 0x1FUL));
 80a1984:	f000 021f 	and.w	r2, r0, #31
 80a1988:	0940      	lsrs	r0, r0, #5
 80a198a:	2301      	movs	r3, #1
 80a198c:	4093      	lsls	r3, r2
 80a198e:	4a02      	ldr	r2, [pc, #8]	@ (80a1998 <__NVIC_EnableIRQ+0x18>)
 80a1990:	f842 3020 	str.w	r3, [r2, r0, lsl #2]
    __COMPILER_BARRIER();
  }
}
 80a1994:	4770      	bx	lr
 80a1996:	bf00      	nop
 80a1998:	e000e100 	.word	0xe000e100

080a199c <__NVIC_SetPriority>:
  \param [in]  priority  Priority to set.
  \note    The priority cannot be set for every processor exception.
 */
__STATIC_INLINE void __NVIC_SetPriority(IRQn_Type IRQn, uint32_t priority)
{
  if ((int32_t)(IRQn) >= 0)
 80a199c:	2800      	cmp	r0, #0
 80a199e:	db08      	blt.n	80a19b2 <__NVIC_SetPriority+0x16>
  {
    NVIC->IP[((uint32_t)IRQn)]               = (uint8_t)((priority << (8U - __NVIC_PRIO_BITS)) & (uint32_t)0xFFUL);
 80a19a0:	0109      	lsls	r1, r1, #4
 80a19a2:	b2c9      	uxtb	r1, r1
 80a19a4:	f100 4060 	add.w	r0, r0, #3758096384	@ 0xe0000000
 80a19a8:	f500 4061 	add.w	r0, r0, #57600	@ 0xe100
 80a19ac:	f880 1300 	strb.w	r1, [r0, #768]	@ 0x300
 80a19b0:	4770      	bx	lr
  }
  else
  {
    SCB->SHP[(((uint32_t)IRQn) & 0xFUL)-4UL] = (uint8_t)((priority << (8U - __NVIC_PRIO_BITS)) & (uint32_t)0xFFUL);
 80a19b2:	f000 000f 	and.w	r0, r0, #15
 80a19b6:	0109      	lsls	r1, r1, #4
 80a19b8:	b2c9      	uxtb	r1, r1
 80a19ba:	4b01      	ldr	r3, [pc, #4]	@ (80a19c0 <__NVIC_SetPriority+0x24>)
 80a19bc:	5419      	strb	r1, [r3, r0]
  }
}
 80a19be:	4770      	bx	lr
 80a19c0:	e000ed14 	.word	0xe000ed14

080a19c4 <NVIC_EncodePriority>:
  \param [in]   PreemptPriority  Preemptive priority value (starting from 0).
  \param [in]       SubPriority  Subpriority value (starting from 0).
  \return                        Encoded priority. Value can be used in the function \ref NVIC_SetPriority().
 */
__STATIC_INLINE uint32_t NVIC_EncodePriority (uint32_t PriorityGroup, uint32_t PreemptPriority, uint32_t SubPriority)
{
 80a19c4:	b500      	push	{lr}
  uint32_t PriorityGroupTmp = (PriorityGroup & (uint32_t)0x07UL);   /* only values 0..7 are used          */
 80a19c6:	f000 0007 	and.w	r0, r0, #7
  uint32_t PreemptPriorityBits;
  uint32_t SubPriorityBits;

  PreemptPriorityBits = ((7UL - PriorityGroupTmp) > (uint32_t)(__NVIC_PRIO_BITS)) ? (uint32_t)(__NVIC_PRIO_BITS) : (uint32_t)(7UL - PriorityGroupTmp);
 80a19ca:	f1c0 0c07 	rsb	ip, r0, #7
 80a19ce:	f1bc 0f04 	cmp.w	ip, #4
 80a19d2:	bf28      	it	cs
 80a19d4:	f04f 0c04 	movcs.w	ip, #4
  SubPriorityBits     = ((PriorityGroupTmp + (uint32_t)(__NVIC_PRIO_BITS)) < (uint32_t)7UL) ? (uint32_t)0UL : (uint32_t)((PriorityGroupTmp - 7UL) + (uint32_t)(__NVIC_PRIO_BITS));
 80a19d8:	1d03      	adds	r3, r0, #4
 80a19da:	2b06      	cmp	r3, #6
 80a19dc:	d90f      	bls.n	80a19fe <NVIC_EncodePriority+0x3a>
 80a19de:	1ec3      	subs	r3, r0, #3

  return (
           ((PreemptPriority & (uint32_t)((1UL << (PreemptPriorityBits)) - 1UL)) << SubPriorityBits) |
 80a19e0:	f04f 3eff 	mov.w	lr, #4294967295
 80a19e4:	fa0e f00c 	lsl.w	r0, lr, ip
 80a19e8:	ea21 0100 	bic.w	r1, r1, r0
 80a19ec:	4099      	lsls	r1, r3
           ((SubPriority     & (uint32_t)((1UL << (SubPriorityBits    )) - 1UL)))
 80a19ee:	fa0e fe03 	lsl.w	lr, lr, r3
 80a19f2:	ea22 020e 	bic.w	r2, r2, lr
         );
}
 80a19f6:	ea41 0002 	orr.w	r0, r1, r2
 80a19fa:	f85d fb04 	ldr.w	pc, [sp], #4
  SubPriorityBits     = ((PriorityGroupTmp + (uint32_t)(__NVIC_PRIO_BITS)) < (uint32_t)7UL) ? (uint32_t)0UL : (uint32_t)((PriorityGroupTmp - 7UL) + (uint32_t)(__NVIC_PRIO_BITS));
 80a19fe:	2300      	movs	r3, #0
 80a1a00:	e7ee      	b.n	80a19e0 <NVIC_EncodePriority+0x1c>
	...

080a1a04 <HAL_NVIC_SetPriorityGrouping>:
  reg_value  =  SCB->AIRCR;                                                   /* read old register configuration    */
 80a1a04:	4a07      	ldr	r2, [pc, #28]	@ (80a1a24 <HAL_NVIC_SetPriorityGrouping+0x20>)
 80a1a06:	68d3      	ldr	r3, [r2, #12]
  reg_value &= ~((uint32_t)(SCB_AIRCR_VECTKEY_Msk | SCB_AIRCR_PRIGROUP_Msk)); /* clear bits to change               */
 80a1a08:	f423 63e0 	bic.w	r3, r3, #1792	@ 0x700
 80a1a0c:	041b      	lsls	r3, r3, #16
 80a1a0e:	0c1b      	lsrs	r3, r3, #16
                (PriorityGroupTmp << SCB_AIRCR_PRIGROUP_Pos)  );              /* Insert write key and priority group */
 80a1a10:	0200      	lsls	r0, r0, #8
 80a1a12:	f400 60e0 	and.w	r0, r0, #1792	@ 0x700
                ((uint32_t)0x5FAUL << SCB_AIRCR_VECTKEY_Pos) |
 80a1a16:	4303      	orrs	r3, r0
  reg_value  =  (reg_value                                   |
 80a1a18:	f043 63bf 	orr.w	r3, r3, #100139008	@ 0x5f80000
 80a1a1c:	f443 3300 	orr.w	r3, r3, #131072	@ 0x20000
  SCB->AIRCR =  reg_value;
 80a1a20:	60d3      	str	r3, [r2, #12]
  /* Check the parameters */
  assert_param(IS_NVIC_PRIORITY_GROUP(PriorityGroup));

  /* Set the PRIGROUP[10:8] bits according to the PriorityGroup parameter value */
  NVIC_SetPriorityGrouping(PriorityGroup);
}
 80a1a22:	4770      	bx	lr
 80a1a24:	e000ed00 	.word	0xe000ed00

080a1a28 <HAL_NVIC_SetPriority>:
  *         This parameter can be a value between 0 and 15
  *         A lower priority value indicates a higher priority.
  * @retval None
  */
void HAL_NVIC_SetPriority(IRQn_Type IRQn, uint32_t PreemptPriority, uint32_t SubPriority)
{
 80a1a28:	b510      	push	{r4, lr}
 80a1a2a:	4604      	mov	r4, r0
  return ((uint32_t)((SCB->AIRCR & SCB_AIRCR_PRIGROUP_Msk) >> SCB_AIRCR_PRIGROUP_Pos));
 80a1a2c:	4b05      	ldr	r3, [pc, #20]	@ (80a1a44 <HAL_NVIC_SetPriority+0x1c>)
 80a1a2e:	68d8      	ldr	r0, [r3, #12]
  assert_param(IS_NVIC_SUB_PRIORITY(SubPriority));
  assert_param(IS_NVIC_PREEMPTION_PRIORITY(PreemptPriority));

  prioritygroup = NVIC_GetPriorityGrouping();

  NVIC_SetPriority(IRQn, NVIC_EncodePriority(prioritygroup, PreemptPriority, SubPriority));
 80a1a30:	f3c0 2002 	ubfx	r0, r0, #8, #3
 80a1a34:	f7ff ffc6 	bl	80a19c4 <NVIC_EncodePriority>
 80a1a38:	4601      	mov	r1, r0
 80a1a3a:	4620      	mov	r0, r4
 80a1a3c:	f7ff ffae 	bl	80a199c <__NVIC_SetPriority>
}
 80a1a40:	bd10      	pop	{r4, pc}
 80a1a42:	bf00      	nop
 80a1a44:	e000ed00 	.word	0xe000ed00

080a1a48 <HAL_NVIC_EnableIRQ>:
  *         This parameter can be an enumerator of IRQn_Type enumeration
  *         (For the complete STM32 Devices IRQ Channels list, please refer to the appropriate CMSIS device file (stm32h7xxxx.h))
  * @retval None
  */
void HAL_NVIC_EnableIRQ(IRQn_Type IRQn)
{
 80a1a48:	b508      	push	{r3, lr}
  /* Check the parameters */
  assert_param(IS_NVIC_DEVICE_IRQ(IRQn));

  /* Enable interrupt */
  NVIC_EnableIRQ(IRQn);
 80a1a4a:	f7ff ff99 	bl	80a1980 <__NVIC_EnableIRQ>
}
 80a1a4e:	bd08      	pop	{r3, pc}

080a1a50 <HAL_SYSTICK_Config>:
           function <b>SysTick_Config</b> is not included. In this case, the file <b><i>device</i>.h</b>
           must contain a vendor-specific implementation of this function.
 */
__STATIC_INLINE uint32_t SysTick_Config(uint32_t ticks)
{
  if ((ticks - 1UL) > SysTick_LOAD_RELOAD_Msk)
 80a1a50:	3801      	subs	r0, #1
 80a1a52:	f1b0 7f80 	cmp.w	r0, #16777216	@ 0x1000000
 80a1a56:	d20b      	bcs.n	80a1a70 <HAL_SYSTICK_Config+0x20>
  {
    return (1UL);                                                   /* Reload value impossible */
  }

  SysTick->LOAD  = (uint32_t)(ticks - 1UL);                         /* set reload register */
 80a1a58:	f04f 23e0 	mov.w	r3, #3758153728	@ 0xe000e000
 80a1a5c:	6158      	str	r0, [r3, #20]
    SCB->SHP[(((uint32_t)IRQn) & 0xFUL)-4UL] = (uint8_t)((priority << (8U - __NVIC_PRIO_BITS)) & (uint32_t)0xFFUL);
 80a1a5e:	4a05      	ldr	r2, [pc, #20]	@ (80a1a74 <HAL_SYSTICK_Config+0x24>)
 80a1a60:	21f0      	movs	r1, #240	@ 0xf0
 80a1a62:	f882 1023 	strb.w	r1, [r2, #35]	@ 0x23
  NVIC_SetPriority (SysTick_IRQn, (1UL << __NVIC_PRIO_BITS) - 1UL); /* set Priority for Systick Interrupt */
  SysTick->VAL   = 0UL;                                             /* Load the SysTick Counter Value */
 80a1a66:	2000      	movs	r0, #0
 80a1a68:	6198      	str	r0, [r3, #24]
  SysTick->CTRL  = SysTick_CTRL_CLKSOURCE_Msk |
 80a1a6a:	2207      	movs	r2, #7
 80a1a6c:	611a      	str	r2, [r3, #16]
                   SysTick_CTRL_TICKINT_Msk   |
                   SysTick_CTRL_ENABLE_Msk;                         /* Enable SysTick IRQ and SysTick Timer */
  return (0UL);                                                     /* Function successful */
 80a1a6e:	4770      	bx	lr
    return (1UL);                                                   /* Reload value impossible */
 80a1a70:	2001      	movs	r0, #1
  *                  - 1  Function failed.
  */
uint32_t HAL_SYSTICK_Config(uint32_t TicksNumb)
{
   return SysTick_Config(TicksNumb);
}
 80a1a72:	4770      	bx	lr
 80a1a74:	e000ed00 	.word	0xe000ed00

080a1a78 <HAL_GetCurrentCPUID>:
  * @brief  Returns the current CPU ID.
  * @retval CPU identifier
  */
uint32_t HAL_GetCurrentCPUID(void)
{
  if (((SCB->CPUID & 0x000000F0U) >> 4 )== 0x7U)
 80a1a78:	4b04      	ldr	r3, [pc, #16]	@ (80a1a8c <HAL_GetCurrentCPUID+0x14>)
 80a1a7a:	681b      	ldr	r3, [r3, #0]
 80a1a7c:	f003 03f0 	and.w	r3, r3, #240	@ 0xf0
 80a1a80:	2b70      	cmp	r3, #112	@ 0x70
 80a1a82:	d001      	beq.n	80a1a88 <HAL_GetCurrentCPUID+0x10>
  {
    return  CM7_CPUID;
  }
  else
  {
    return CM4_CPUID;
 80a1a84:	2001      	movs	r0, #1
  }
}
 80a1a86:	4770      	bx	lr
    return  CM7_CPUID;
 80a1a88:	2003      	movs	r0, #3
 80a1a8a:	4770      	bx	lr
 80a1a8c:	e000ed00 	.word	0xe000ed00

080a1a90 <DMA_SetConfig>:
  * @param  DstAddress: The destination memory Buffer address
  * @param  DataLength: The length of data to be transferred from source to destination
  * @retval None
  */
static void DMA_SetConfig(DMA_HandleTypeDef *hdma, uint32_t SrcAddress, uint32_t DstAddress, uint32_t DataLength)
{
 80a1a90:	b470      	push	{r4, r5, r6}
  /* calculate DMA base and stream number */
  DMA_Base_Registers  *regs_dma  = (DMA_Base_Registers *)hdma->StreamBaseAddress;
 80a1a92:	6d86      	ldr	r6, [r0, #88]	@ 0x58
  BDMA_Base_Registers *regs_bdma = (BDMA_Base_Registers *)hdma->StreamBaseAddress;

  if(IS_DMA_DMAMUX_ALL_INSTANCE(hdma->Instance) != 0U) /* No DMAMUX available for BDMA1 */
 80a1a94:	6804      	ldr	r4, [r0, #0]
 80a1a96:	4d66      	ldr	r5, [pc, #408]	@ (80a1c30 <DMA_SetConfig+0x1a0>)
 80a1a98:	42ac      	cmp	r4, r5
 80a1a9a:	d045      	beq.n	80a1b28 <DMA_SetConfig+0x98>
 80a1a9c:	3518      	adds	r5, #24
 80a1a9e:	42ac      	cmp	r4, r5
 80a1aa0:	d042      	beq.n	80a1b28 <DMA_SetConfig+0x98>
 80a1aa2:	3518      	adds	r5, #24
 80a1aa4:	42ac      	cmp	r4, r5
 80a1aa6:	d03f      	beq.n	80a1b28 <DMA_SetConfig+0x98>
 80a1aa8:	3518      	adds	r5, #24
 80a1aaa:	42ac      	cmp	r4, r5
 80a1aac:	d03c      	beq.n	80a1b28 <DMA_SetConfig+0x98>
 80a1aae:	3518      	adds	r5, #24
 80a1ab0:	42ac      	cmp	r4, r5
 80a1ab2:	d039      	beq.n	80a1b28 <DMA_SetConfig+0x98>
 80a1ab4:	3518      	adds	r5, #24
 80a1ab6:	42ac      	cmp	r4, r5
 80a1ab8:	d036      	beq.n	80a1b28 <DMA_SetConfig+0x98>
 80a1aba:	3518      	adds	r5, #24
 80a1abc:	42ac      	cmp	r4, r5
 80a1abe:	d033      	beq.n	80a1b28 <DMA_SetConfig+0x98>
 80a1ac0:	3518      	adds	r5, #24
 80a1ac2:	42ac      	cmp	r4, r5
 80a1ac4:	d030      	beq.n	80a1b28 <DMA_SetConfig+0x98>
 80a1ac6:	f505 7556 	add.w	r5, r5, #856	@ 0x358
 80a1aca:	42ac      	cmp	r4, r5
 80a1acc:	d02c      	beq.n	80a1b28 <DMA_SetConfig+0x98>
 80a1ace:	3518      	adds	r5, #24
 80a1ad0:	42ac      	cmp	r4, r5
 80a1ad2:	d029      	beq.n	80a1b28 <DMA_SetConfig+0x98>
 80a1ad4:	3518      	adds	r5, #24
 80a1ad6:	42ac      	cmp	r4, r5
 80a1ad8:	d026      	beq.n	80a1b28 <DMA_SetConfig+0x98>
 80a1ada:	3518      	adds	r5, #24
 80a1adc:	42ac      	cmp	r4, r5
 80a1ade:	d023      	beq.n	80a1b28 <DMA_SetConfig+0x98>
 80a1ae0:	3518      	adds	r5, #24
 80a1ae2:	42ac      	cmp	r4, r5
 80a1ae4:	d020      	beq.n	80a1b28 <DMA_SetConfig+0x98>
 80a1ae6:	3518      	adds	r5, #24
 80a1ae8:	42ac      	cmp	r4, r5
 80a1aea:	d01d      	beq.n	80a1b28 <DMA_SetConfig+0x98>
 80a1aec:	3518      	adds	r5, #24
 80a1aee:	42ac      	cmp	r4, r5
 80a1af0:	d01a      	beq.n	80a1b28 <DMA_SetConfig+0x98>
 80a1af2:	3518      	adds	r5, #24
 80a1af4:	42ac      	cmp	r4, r5
 80a1af6:	d017      	beq.n	80a1b28 <DMA_SetConfig+0x98>
 80a1af8:	4d4e      	ldr	r5, [pc, #312]	@ (80a1c34 <DMA_SetConfig+0x1a4>)
 80a1afa:	42ac      	cmp	r4, r5
 80a1afc:	d014      	beq.n	80a1b28 <DMA_SetConfig+0x98>
 80a1afe:	3514      	adds	r5, #20
 80a1b00:	42ac      	cmp	r4, r5
 80a1b02:	d011      	beq.n	80a1b28 <DMA_SetConfig+0x98>
 80a1b04:	3514      	adds	r5, #20
 80a1b06:	42ac      	cmp	r4, r5
 80a1b08:	d00e      	beq.n	80a1b28 <DMA_SetConfig+0x98>
 80a1b0a:	3514      	adds	r5, #20
 80a1b0c:	42ac      	cmp	r4, r5
 80a1b0e:	d00b      	beq.n	80a1b28 <DMA_SetConfig+0x98>
 80a1b10:	3514      	adds	r5, #20
 80a1b12:	42ac      	cmp	r4, r5
 80a1b14:	d008      	beq.n	80a1b28 <DMA_SetConfig+0x98>
 80a1b16:	3514      	adds	r5, #20
 80a1b18:	42ac      	cmp	r4, r5
 80a1b1a:	d005      	beq.n	80a1b28 <DMA_SetConfig+0x98>
 80a1b1c:	3514      	adds	r5, #20
 80a1b1e:	42ac      	cmp	r4, r5
 80a1b20:	d002      	beq.n	80a1b28 <DMA_SetConfig+0x98>
 80a1b22:	3514      	adds	r5, #20
 80a1b24:	42ac      	cmp	r4, r5
 80a1b26:	d107      	bne.n	80a1b38 <DMA_SetConfig+0xa8>
  {
    /* Clear the DMAMUX synchro overrun flag */
    hdma->DMAmuxChannelStatus->CFR = hdma->DMAmuxChannelStatusMask;
 80a1b28:	6e44      	ldr	r4, [r0, #100]	@ 0x64
 80a1b2a:	6e85      	ldr	r5, [r0, #104]	@ 0x68
 80a1b2c:	6065      	str	r5, [r4, #4]

    if(hdma->DMAmuxRequestGen != 0U)
 80a1b2e:	6ec4      	ldr	r4, [r0, #108]	@ 0x6c
 80a1b30:	b114      	cbz	r4, 80a1b38 <DMA_SetConfig+0xa8>
    {
      /* Clear the DMAMUX request generator overrun flag */
      hdma->DMAmuxRequestGenStatus->RGCFR = hdma->DMAmuxRequestGenStatusMask;
 80a1b32:	6f04      	ldr	r4, [r0, #112]	@ 0x70
 80a1b34:	6f45      	ldr	r5, [r0, #116]	@ 0x74
 80a1b36:	6065      	str	r5, [r4, #4]
    }
  }

  if(IS_DMA_STREAM_INSTANCE(hdma->Instance) != 0U) /* DMA1 or DMA2 instance */
 80a1b38:	6804      	ldr	r4, [r0, #0]
 80a1b3a:	4d3d      	ldr	r5, [pc, #244]	@ (80a1c30 <DMA_SetConfig+0x1a0>)
 80a1b3c:	42ac      	cmp	r4, r5
 80a1b3e:	d055      	beq.n	80a1bec <DMA_SetConfig+0x15c>
 80a1b40:	3518      	adds	r5, #24
 80a1b42:	42ac      	cmp	r4, r5
 80a1b44:	d052      	beq.n	80a1bec <DMA_SetConfig+0x15c>
 80a1b46:	3518      	adds	r5, #24
 80a1b48:	42ac      	cmp	r4, r5
 80a1b4a:	d04f      	beq.n	80a1bec <DMA_SetConfig+0x15c>
 80a1b4c:	3518      	adds	r5, #24
 80a1b4e:	42ac      	cmp	r4, r5
 80a1b50:	d04c      	beq.n	80a1bec <DMA_SetConfig+0x15c>
 80a1b52:	3518      	adds	r5, #24
 80a1b54:	42ac      	cmp	r4, r5
 80a1b56:	d049      	beq.n	80a1bec <DMA_SetConfig+0x15c>
 80a1b58:	3518      	adds	r5, #24
 80a1b5a:	42ac      	cmp	r4, r5
 80a1b5c:	d046      	beq.n	80a1bec <DMA_SetConfig+0x15c>
 80a1b5e:	3518      	adds	r5, #24
 80a1b60:	42ac      	cmp	r4, r5
 80a1b62:	d043      	beq.n	80a1bec <DMA_SetConfig+0x15c>
 80a1b64:	3518      	adds	r5, #24
 80a1b66:	42ac      	cmp	r4, r5
 80a1b68:	d040      	beq.n	80a1bec <DMA_SetConfig+0x15c>
 80a1b6a:	f505 7556 	add.w	r5, r5, #856	@ 0x358
 80a1b6e:	42ac      	cmp	r4, r5
 80a1b70:	d03c      	beq.n	80a1bec <DMA_SetConfig+0x15c>
 80a1b72:	3518      	adds	r5, #24
 80a1b74:	42ac      	cmp	r4, r5
 80a1b76:	d039      	beq.n	80a1bec <DMA_SetConfig+0x15c>
 80a1b78:	3518      	adds	r5, #24
 80a1b7a:	42ac      	cmp	r4, r5
 80a1b7c:	d036      	beq.n	80a1bec <DMA_SetConfig+0x15c>
 80a1b7e:	3518      	adds	r5, #24
 80a1b80:	42ac      	cmp	r4, r5
 80a1b82:	d033      	beq.n	80a1bec <DMA_SetConfig+0x15c>
 80a1b84:	3518      	adds	r5, #24
 80a1b86:	42ac      	cmp	r4, r5
 80a1b88:	d030      	beq.n	80a1bec <DMA_SetConfig+0x15c>
 80a1b8a:	3518      	adds	r5, #24
 80a1b8c:	42ac      	cmp	r4, r5
 80a1b8e:	d02d      	beq.n	80a1bec <DMA_SetConfig+0x15c>
 80a1b90:	3518      	adds	r5, #24
 80a1b92:	42ac      	cmp	r4, r5
 80a1b94:	d02a      	beq.n	80a1bec <DMA_SetConfig+0x15c>
 80a1b96:	3518      	adds	r5, #24
 80a1b98:	42ac      	cmp	r4, r5
 80a1b9a:	d027      	beq.n	80a1bec <DMA_SetConfig+0x15c>

      /* Configure DMA Stream destination address */
      ((DMA_Stream_TypeDef *)hdma->Instance)->M0AR = DstAddress;
    }
  }
  else if(IS_BDMA_CHANNEL_INSTANCE(hdma->Instance) != 0U) /* BDMA instance(s) */
 80a1b9c:	4d25      	ldr	r5, [pc, #148]	@ (80a1c34 <DMA_SetConfig+0x1a4>)
 80a1b9e:	42ac      	cmp	r4, r5
 80a1ba0:	d014      	beq.n	80a1bcc <DMA_SetConfig+0x13c>
 80a1ba2:	4d25      	ldr	r5, [pc, #148]	@ (80a1c38 <DMA_SetConfig+0x1a8>)
 80a1ba4:	42ac      	cmp	r4, r5
 80a1ba6:	d011      	beq.n	80a1bcc <DMA_SetConfig+0x13c>
 80a1ba8:	3514      	adds	r5, #20
 80a1baa:	42ac      	cmp	r4, r5
 80a1bac:	d00e      	beq.n	80a1bcc <DMA_SetConfig+0x13c>
 80a1bae:	3514      	adds	r5, #20
 80a1bb0:	42ac      	cmp	r4, r5
 80a1bb2:	d00b      	beq.n	80a1bcc <DMA_SetConfig+0x13c>
 80a1bb4:	3514      	adds	r5, #20
 80a1bb6:	42ac      	cmp	r4, r5
 80a1bb8:	d008      	beq.n	80a1bcc <DMA_SetConfig+0x13c>
 80a1bba:	3514      	adds	r5, #20
 80a1bbc:	42ac      	cmp	r4, r5
 80a1bbe:	d005      	beq.n	80a1bcc <DMA_SetConfig+0x13c>
 80a1bc0:	3514      	adds	r5, #20
 80a1bc2:	42ac      	cmp	r4, r5
 80a1bc4:	d002      	beq.n	80a1bcc <DMA_SetConfig+0x13c>
 80a1bc6:	3514      	adds	r5, #20
 80a1bc8:	42ac      	cmp	r4, r5
 80a1bca:	d124      	bne.n	80a1c16 <DMA_SetConfig+0x186>
  {
    /* Clear all flags */
    regs_bdma->IFCR = (BDMA_ISR_GIF0) << (hdma->StreamIndex & 0x1FU);
 80a1bcc:	6dc4      	ldr	r4, [r0, #92]	@ 0x5c
 80a1bce:	f004 051f 	and.w	r5, r4, #31
 80a1bd2:	2401      	movs	r4, #1
 80a1bd4:	40ac      	lsls	r4, r5
 80a1bd6:	6074      	str	r4, [r6, #4]

    /* Configure DMA Channel data length */
    ((BDMA_Channel_TypeDef *)hdma->Instance)->CNDTR = DataLength;
 80a1bd8:	6804      	ldr	r4, [r0, #0]
 80a1bda:	6063      	str	r3, [r4, #4]

    /* Peripheral to Memory */
    if((hdma->Init.Direction) == DMA_MEMORY_TO_PERIPH)
 80a1bdc:	6883      	ldr	r3, [r0, #8]
 80a1bde:	2b40      	cmp	r3, #64	@ 0x40
 80a1be0:	d020      	beq.n	80a1c24 <DMA_SetConfig+0x194>
    }
    /* Memory to Peripheral */
    else
    {
      /* Configure DMA Channel source address */
      ((BDMA_Channel_TypeDef *)hdma->Instance)->CPAR = SrcAddress;
 80a1be2:	6803      	ldr	r3, [r0, #0]
 80a1be4:	6099      	str	r1, [r3, #8]

      /* Configure DMA Channel destination address */
      ((BDMA_Channel_TypeDef *)hdma->Instance)->CM0AR = DstAddress;
 80a1be6:	6803      	ldr	r3, [r0, #0]
 80a1be8:	60da      	str	r2, [r3, #12]
  }
  else
  {
    /* Nothing To Do */
  }
}
 80a1bea:	e014      	b.n	80a1c16 <DMA_SetConfig+0x186>
    regs_dma->IFCR = 0x3FUL << (hdma->StreamIndex & 0x1FU);
 80a1bec:	6dc4      	ldr	r4, [r0, #92]	@ 0x5c
 80a1bee:	f004 0c1f 	and.w	ip, r4, #31
 80a1bf2:	243f      	movs	r4, #63	@ 0x3f
 80a1bf4:	fa04 f40c 	lsl.w	r4, r4, ip
 80a1bf8:	60b4      	str	r4, [r6, #8]
    ((DMA_Stream_TypeDef *)hdma->Instance)->CR &= (uint32_t)(~DMA_SxCR_DBM);
 80a1bfa:	6805      	ldr	r5, [r0, #0]
 80a1bfc:	682c      	ldr	r4, [r5, #0]
 80a1bfe:	f424 2480 	bic.w	r4, r4, #262144	@ 0x40000
 80a1c02:	602c      	str	r4, [r5, #0]
    ((DMA_Stream_TypeDef *)hdma->Instance)->NDTR = DataLength;
 80a1c04:	6804      	ldr	r4, [r0, #0]
 80a1c06:	6063      	str	r3, [r4, #4]
    if((hdma->Init.Direction) == DMA_MEMORY_TO_PERIPH)
 80a1c08:	6883      	ldr	r3, [r0, #8]
 80a1c0a:	2b40      	cmp	r3, #64	@ 0x40
 80a1c0c:	d005      	beq.n	80a1c1a <DMA_SetConfig+0x18a>
      ((DMA_Stream_TypeDef *)hdma->Instance)->PAR = SrcAddress;
 80a1c0e:	6803      	ldr	r3, [r0, #0]
 80a1c10:	6099      	str	r1, [r3, #8]
      ((DMA_Stream_TypeDef *)hdma->Instance)->M0AR = DstAddress;
 80a1c12:	6803      	ldr	r3, [r0, #0]
 80a1c14:	60da      	str	r2, [r3, #12]
}
 80a1c16:	bc70      	pop	{r4, r5, r6}
 80a1c18:	4770      	bx	lr
      ((DMA_Stream_TypeDef *)hdma->Instance)->PAR = DstAddress;
 80a1c1a:	6803      	ldr	r3, [r0, #0]
 80a1c1c:	609a      	str	r2, [r3, #8]
      ((DMA_Stream_TypeDef *)hdma->Instance)->M0AR = SrcAddress;
 80a1c1e:	6803      	ldr	r3, [r0, #0]
 80a1c20:	60d9      	str	r1, [r3, #12]
 80a1c22:	e7f8      	b.n	80a1c16 <DMA_SetConfig+0x186>
      ((BDMA_Channel_TypeDef *)hdma->Instance)->CPAR = DstAddress;
 80a1c24:	6803      	ldr	r3, [r0, #0]
 80a1c26:	609a      	str	r2, [r3, #8]
      ((BDMA_Channel_TypeDef *)hdma->Instance)->CM0AR = SrcAddress;
 80a1c28:	6803      	ldr	r3, [r0, #0]
 80a1c2a:	60d9      	str	r1, [r3, #12]
 80a1c2c:	e7f3      	b.n	80a1c16 <DMA_SetConfig+0x186>
 80a1c2e:	bf00      	nop
 80a1c30:	40020010 	.word	0x40020010
 80a1c34:	58025408 	.word	0x58025408
 80a1c38:	5802541c 	.word	0x5802541c

080a1c3c <DMA_CalcBaseAndBitshift>:
  *                     the configuration information for the specified DMA Stream.
  * @retval Stream base address
  */
static uint32_t DMA_CalcBaseAndBitshift(DMA_HandleTypeDef *hdma)
{
  if(IS_DMA_STREAM_INSTANCE(hdma->Instance) != 0U) /* DMA1 or DMA2 instance */
 80a1c3c:	6803      	ldr	r3, [r0, #0]
 80a1c3e:	4a27      	ldr	r2, [pc, #156]	@ (80a1cdc <DMA_CalcBaseAndBitshift+0xa0>)
 80a1c40:	4293      	cmp	r3, r2
 80a1c42:	d032      	beq.n	80a1caa <DMA_CalcBaseAndBitshift+0x6e>
 80a1c44:	3218      	adds	r2, #24
 80a1c46:	4293      	cmp	r3, r2
 80a1c48:	d02f      	beq.n	80a1caa <DMA_CalcBaseAndBitshift+0x6e>
 80a1c4a:	3218      	adds	r2, #24
 80a1c4c:	4293      	cmp	r3, r2
 80a1c4e:	d02c      	beq.n	80a1caa <DMA_CalcBaseAndBitshift+0x6e>
 80a1c50:	3218      	adds	r2, #24
 80a1c52:	4293      	cmp	r3, r2
 80a1c54:	d029      	beq.n	80a1caa <DMA_CalcBaseAndBitshift+0x6e>
 80a1c56:	3218      	adds	r2, #24
 80a1c58:	4293      	cmp	r3, r2
 80a1c5a:	d026      	beq.n	80a1caa <DMA_CalcBaseAndBitshift+0x6e>
 80a1c5c:	3218      	adds	r2, #24
 80a1c5e:	4293      	cmp	r3, r2
 80a1c60:	d023      	beq.n	80a1caa <DMA_CalcBaseAndBitshift+0x6e>
 80a1c62:	3218      	adds	r2, #24
 80a1c64:	4293      	cmp	r3, r2
 80a1c66:	d020      	beq.n	80a1caa <DMA_CalcBaseAndBitshift+0x6e>
 80a1c68:	3218      	adds	r2, #24
 80a1c6a:	4293      	cmp	r3, r2
 80a1c6c:	d01d      	beq.n	80a1caa <DMA_CalcBaseAndBitshift+0x6e>
 80a1c6e:	f502 7256 	add.w	r2, r2, #856	@ 0x358
 80a1c72:	4293      	cmp	r3, r2
 80a1c74:	d019      	beq.n	80a1caa <DMA_CalcBaseAndBitshift+0x6e>
 80a1c76:	3218      	adds	r2, #24
 80a1c78:	4293      	cmp	r3, r2
 80a1c7a:	d016      	beq.n	80a1caa <DMA_CalcBaseAndBitshift+0x6e>
 80a1c7c:	3218      	adds	r2, #24
 80a1c7e:	4293      	cmp	r3, r2
 80a1c80:	d013      	beq.n	80a1caa <DMA_CalcBaseAndBitshift+0x6e>
 80a1c82:	3218      	adds	r2, #24
 80a1c84:	4293      	cmp	r3, r2
 80a1c86:	d010      	beq.n	80a1caa <DMA_CalcBaseAndBitshift+0x6e>
 80a1c88:	3218      	adds	r2, #24
 80a1c8a:	4293      	cmp	r3, r2
 80a1c8c:	d00d      	beq.n	80a1caa <DMA_CalcBaseAndBitshift+0x6e>
 80a1c8e:	3218      	adds	r2, #24
 80a1c90:	4293      	cmp	r3, r2
 80a1c92:	d00a      	beq.n	80a1caa <DMA_CalcBaseAndBitshift+0x6e>
 80a1c94:	3218      	adds	r2, #24
 80a1c96:	4293      	cmp	r3, r2
 80a1c98:	d007      	beq.n	80a1caa <DMA_CalcBaseAndBitshift+0x6e>
 80a1c9a:	3218      	adds	r2, #24
 80a1c9c:	4293      	cmp	r3, r2
 80a1c9e:	d004      	beq.n	80a1caa <DMA_CalcBaseAndBitshift+0x6e>
    }
  }
  else /* BDMA instance(s) */
  {
    /* return pointer to ISR and IFCR */
    hdma->StreamBaseAddress = ((uint32_t)((uint32_t*)hdma->Instance) & (uint32_t)(~0xFFU));
 80a1ca0:	f023 03ff 	bic.w	r3, r3, #255	@ 0xff
 80a1ca4:	6583      	str	r3, [r0, #88]	@ 0x58
  }

  return hdma->StreamBaseAddress;
}
 80a1ca6:	6d80      	ldr	r0, [r0, #88]	@ 0x58
 80a1ca8:	4770      	bx	lr
{
 80a1caa:	b410      	push	{r4}
    uint32_t stream_number = (((uint32_t)((uint32_t*)hdma->Instance) & 0xFFU) - 16U) / 24U;
 80a1cac:	b2d9      	uxtb	r1, r3
 80a1cae:	3910      	subs	r1, #16
 80a1cb0:	4a0b      	ldr	r2, [pc, #44]	@ (80a1ce0 <DMA_CalcBaseAndBitshift+0xa4>)
 80a1cb2:	fba2 4201 	umull	r4, r2, r2, r1
    hdma->StreamIndex = flagBitshiftOffset[stream_number & 0x7U];
 80a1cb6:	f3c2 1202 	ubfx	r2, r2, #4, #3
 80a1cba:	4c0a      	ldr	r4, [pc, #40]	@ (80a1ce4 <DMA_CalcBaseAndBitshift+0xa8>)
 80a1cbc:	5ca2      	ldrb	r2, [r4, r2]
 80a1cbe:	65c2      	str	r2, [r0, #92]	@ 0x5c
    if (stream_number > 3U)
 80a1cc0:	295f      	cmp	r1, #95	@ 0x5f
 80a1cc2:	d907      	bls.n	80a1cd4 <DMA_CalcBaseAndBitshift+0x98>
      hdma->StreamBaseAddress = (((uint32_t)((uint32_t*)hdma->Instance) & (uint32_t)(~0x3FFU)) + 4U);
 80a1cc4:	f36f 0309 	bfc	r3, #0, #10
 80a1cc8:	3304      	adds	r3, #4
 80a1cca:	6583      	str	r3, [r0, #88]	@ 0x58
}
 80a1ccc:	6d80      	ldr	r0, [r0, #88]	@ 0x58
 80a1cce:	f85d 4b04 	ldr.w	r4, [sp], #4
 80a1cd2:	4770      	bx	lr
      hdma->StreamBaseAddress = ((uint32_t)((uint32_t*)hdma->Instance) & (uint32_t)(~0x3FFU));
 80a1cd4:	f36f 0309 	bfc	r3, #0, #10
 80a1cd8:	6583      	str	r3, [r0, #88]	@ 0x58
 80a1cda:	e7f7      	b.n	80a1ccc <DMA_CalcBaseAndBitshift+0x90>
 80a1cdc:	40020010 	.word	0x40020010
 80a1ce0:	aaaaaaab 	.word	0xaaaaaaab
 80a1ce4:	080a5de8 	.word	0x080a5de8

080a1ce8 <DMA_CheckFifoParam>:
static HAL_StatusTypeDef DMA_CheckFifoParam(const DMA_HandleTypeDef *hdma)
{
  HAL_StatusTypeDef status = HAL_OK;

  /* Memory Data size equal to Byte */
  if (hdma->Init.MemDataAlignment == DMA_MDATAALIGN_BYTE)
 80a1ce8:	6983      	ldr	r3, [r0, #24]
 80a1cea:	b99b      	cbnz	r3, 80a1d14 <DMA_CheckFifoParam+0x2c>
  {
    switch (hdma->Init.FIFOThreshold)
 80a1cec:	6a83      	ldr	r3, [r0, #40]	@ 0x28
 80a1cee:	2b01      	cmp	r3, #1
 80a1cf0:	d00a      	beq.n	80a1d08 <DMA_CheckFifoParam+0x20>
 80a1cf2:	2b02      	cmp	r3, #2
 80a1cf4:	d002      	beq.n	80a1cfc <DMA_CheckFifoParam+0x14>
 80a1cf6:	b10b      	cbz	r3, 80a1cfc <DMA_CheckFifoParam+0x14>
 80a1cf8:	2000      	movs	r0, #0
 80a1cfa:	4770      	bx	lr
    {
      case DMA_FIFO_THRESHOLD_1QUARTERFULL:
      case DMA_FIFO_THRESHOLD_3QUARTERSFULL:

        if ((hdma->Init.MemBurst & DMA_SxCR_MBURST_1) == DMA_SxCR_MBURST_1)
 80a1cfc:	6ac3      	ldr	r3, [r0, #44]	@ 0x2c
 80a1cfe:	f013 7f80 	tst.w	r3, #16777216	@ 0x1000000
 80a1d02:	d12a      	bne.n	80a1d5a <DMA_CheckFifoParam+0x72>
  HAL_StatusTypeDef status = HAL_OK;
 80a1d04:	2000      	movs	r0, #0
 80a1d06:	4770      	bx	lr
          status = HAL_ERROR;
        }
        break;

      case DMA_FIFO_THRESHOLD_HALFFULL:
        if (hdma->Init.MemBurst == DMA_MBURST_INC16)
 80a1d08:	6ac3      	ldr	r3, [r0, #44]	@ 0x2c
 80a1d0a:	f1b3 7fc0 	cmp.w	r3, #25165824	@ 0x1800000
 80a1d0e:	d026      	beq.n	80a1d5e <DMA_CheckFifoParam+0x76>
  HAL_StatusTypeDef status = HAL_OK;
 80a1d10:	2000      	movs	r0, #0
 80a1d12:	4770      	bx	lr
        break;
    }
  }

  /* Memory Data size equal to Half-Word */
  else if (hdma->Init.MemDataAlignment == DMA_MDATAALIGN_HALFWORD)
 80a1d14:	f5b3 5f00 	cmp.w	r3, #8192	@ 0x2000
 80a1d18:	d00a      	beq.n	80a1d30 <DMA_CheckFifoParam+0x48>
  }

  /* Memory Data size equal to Word */
  else
  {
    switch (hdma->Init.FIFOThreshold)
 80a1d1a:	6a83      	ldr	r3, [r0, #40]	@ 0x28
 80a1d1c:	2b02      	cmp	r3, #2
 80a1d1e:	d926      	bls.n	80a1d6e <DMA_CheckFifoParam+0x86>
 80a1d20:	2b03      	cmp	r3, #3
 80a1d22:	d126      	bne.n	80a1d72 <DMA_CheckFifoParam+0x8a>
      case DMA_FIFO_THRESHOLD_3QUARTERSFULL:
        status = HAL_ERROR;
        break;

      case DMA_FIFO_THRESHOLD_FULL:
        if ((hdma->Init.MemBurst & DMA_SxCR_MBURST_1) == DMA_SxCR_MBURST_1)
 80a1d24:	6ac3      	ldr	r3, [r0, #44]	@ 0x2c
 80a1d26:	f013 7f80 	tst.w	r3, #16777216	@ 0x1000000
 80a1d2a:	d124      	bne.n	80a1d76 <DMA_CheckFifoParam+0x8e>
  HAL_StatusTypeDef status = HAL_OK;
 80a1d2c:	2000      	movs	r0, #0
 80a1d2e:	4770      	bx	lr
    switch (hdma->Init.FIFOThreshold)
 80a1d30:	6a83      	ldr	r3, [r0, #40]	@ 0x28
 80a1d32:	2b03      	cmp	r3, #3
 80a1d34:	d803      	bhi.n	80a1d3e <DMA_CheckFifoParam+0x56>
 80a1d36:	e8df f003 	tbb	[pc, r3]
 80a1d3a:	0414      	.short	0x0414
 80a1d3c:	0a14      	.short	0x0a14
 80a1d3e:	2000      	movs	r0, #0
 80a1d40:	4770      	bx	lr
        if ((hdma->Init.MemBurst & DMA_SxCR_MBURST_1) == DMA_SxCR_MBURST_1)
 80a1d42:	6ac3      	ldr	r3, [r0, #44]	@ 0x2c
 80a1d44:	f013 7f80 	tst.w	r3, #16777216	@ 0x1000000
 80a1d48:	d10d      	bne.n	80a1d66 <DMA_CheckFifoParam+0x7e>
  HAL_StatusTypeDef status = HAL_OK;
 80a1d4a:	2000      	movs	r0, #0
 80a1d4c:	4770      	bx	lr
        if (hdma->Init.MemBurst == DMA_MBURST_INC16)
 80a1d4e:	6ac3      	ldr	r3, [r0, #44]	@ 0x2c
 80a1d50:	f1b3 7fc0 	cmp.w	r3, #25165824	@ 0x1800000
 80a1d54:	d009      	beq.n	80a1d6a <DMA_CheckFifoParam+0x82>
  HAL_StatusTypeDef status = HAL_OK;
 80a1d56:	2000      	movs	r0, #0
 80a1d58:	4770      	bx	lr
          status = HAL_ERROR;
 80a1d5a:	2001      	movs	r0, #1
 80a1d5c:	4770      	bx	lr
          status = HAL_ERROR;
 80a1d5e:	2001      	movs	r0, #1
 80a1d60:	4770      	bx	lr
        status = HAL_ERROR;
 80a1d62:	2001      	movs	r0, #1
 80a1d64:	4770      	bx	lr
          status = HAL_ERROR;
 80a1d66:	2001      	movs	r0, #1
 80a1d68:	4770      	bx	lr
          status = HAL_ERROR;
 80a1d6a:	2001      	movs	r0, #1
 80a1d6c:	4770      	bx	lr
        status = HAL_ERROR;
 80a1d6e:	2001      	movs	r0, #1
 80a1d70:	4770      	bx	lr
    switch (hdma->Init.FIFOThreshold)
 80a1d72:	2000      	movs	r0, #0
 80a1d74:	4770      	bx	lr
        {
          status = HAL_ERROR;
 80a1d76:	2001      	movs	r0, #1
        break;
    }
  }

  return status;
}
 80a1d78:	4770      	bx	lr
	...

080a1d7c <DMA_CalcDMAMUXChannelBaseAndMask>:
  * @retval HAL status
  */
static void DMA_CalcDMAMUXChannelBaseAndMask(DMA_HandleTypeDef *hdma)
{
  uint32_t stream_number;
  uint32_t stream_baseaddress = (uint32_t)((uint32_t*)hdma->Instance);
 80a1d7c:	6803      	ldr	r3, [r0, #0]

  if(IS_BDMA_CHANNEL_DMAMUX_INSTANCE(hdma->Instance) != 0U)
 80a1d7e:	4a23      	ldr	r2, [pc, #140]	@ (80a1e0c <DMA_CalcDMAMUXChannelBaseAndMask+0x90>)
 80a1d80:	4293      	cmp	r3, r2
 80a1d82:	d02c      	beq.n	80a1dde <DMA_CalcDMAMUXChannelBaseAndMask+0x62>
 80a1d84:	3214      	adds	r2, #20
 80a1d86:	4293      	cmp	r3, r2
 80a1d88:	d029      	beq.n	80a1dde <DMA_CalcDMAMUXChannelBaseAndMask+0x62>
 80a1d8a:	3214      	adds	r2, #20
 80a1d8c:	4293      	cmp	r3, r2
 80a1d8e:	d026      	beq.n	80a1dde <DMA_CalcDMAMUXChannelBaseAndMask+0x62>
 80a1d90:	3214      	adds	r2, #20
 80a1d92:	4293      	cmp	r3, r2
 80a1d94:	d023      	beq.n	80a1dde <DMA_CalcDMAMUXChannelBaseAndMask+0x62>
 80a1d96:	3214      	adds	r2, #20
 80a1d98:	4293      	cmp	r3, r2
 80a1d9a:	d020      	beq.n	80a1dde <DMA_CalcDMAMUXChannelBaseAndMask+0x62>
 80a1d9c:	3214      	adds	r2, #20
 80a1d9e:	4293      	cmp	r3, r2
 80a1da0:	d01d      	beq.n	80a1dde <DMA_CalcDMAMUXChannelBaseAndMask+0x62>
 80a1da2:	3214      	adds	r2, #20
 80a1da4:	4293      	cmp	r3, r2
 80a1da6:	d01a      	beq.n	80a1dde <DMA_CalcDMAMUXChannelBaseAndMask+0x62>
 80a1da8:	3214      	adds	r2, #20
 80a1daa:	4293      	cmp	r3, r2
 80a1dac:	d017      	beq.n	80a1dde <DMA_CalcDMAMUXChannelBaseAndMask+0x62>
    hdma->DMAmuxChannelStatusMask = 1UL << (stream_number & 0x1FU);
  }
  else
  {
    /* DMA1/DMA2 Streams are connected to DMAMUX1 channels */
    stream_number = (((uint32_t)((uint32_t*)hdma->Instance) & 0xFFU) - 16U) / 24U;
 80a1dae:	b2da      	uxtb	r2, r3
 80a1db0:	3a10      	subs	r2, #16
 80a1db2:	4917      	ldr	r1, [pc, #92]	@ (80a1e10 <DMA_CalcDMAMUXChannelBaseAndMask+0x94>)
 80a1db4:	fba1 1202 	umull	r1, r2, r1, r2
 80a1db8:	0912      	lsrs	r2, r2, #4

    if((stream_baseaddress <= ((uint32_t)DMA2_Stream7) ) && \
 80a1dba:	4916      	ldr	r1, [pc, #88]	@ (80a1e14 <DMA_CalcDMAMUXChannelBaseAndMask+0x98>)
 80a1dbc:	4419      	add	r1, r3
 80a1dbe:	29a8      	cmp	r1, #168	@ 0xa8
 80a1dc0:	d922      	bls.n	80a1e08 <DMA_CalcDMAMUXChannelBaseAndMask+0x8c>
       (stream_baseaddress >= ((uint32_t)DMA2_Stream0)))
    {
      stream_number += 8U;
    }
    hdma->DMAmuxChannel = (DMAMUX_Channel_TypeDef *)((uint32_t)(((uint32_t)DMAMUX1_Channel0) + (stream_number * 4U)));
 80a1dc2:	f102 5380 	add.w	r3, r2, #268435456	@ 0x10000000
 80a1dc6:	f503 4302 	add.w	r3, r3, #33280	@ 0x8200
 80a1dca:	009b      	lsls	r3, r3, #2
 80a1dcc:	6603      	str	r3, [r0, #96]	@ 0x60
    hdma->DMAmuxChannelStatus = DMAMUX1_ChannelStatus;
 80a1dce:	4b12      	ldr	r3, [pc, #72]	@ (80a1e18 <DMA_CalcDMAMUXChannelBaseAndMask+0x9c>)
 80a1dd0:	6643      	str	r3, [r0, #100]	@ 0x64
    hdma->DMAmuxChannelStatusMask = 1UL << (stream_number & 0x1FU);
 80a1dd2:	f002 021f 	and.w	r2, r2, #31
 80a1dd6:	2301      	movs	r3, #1
 80a1dd8:	4093      	lsls	r3, r2
 80a1dda:	6683      	str	r3, [r0, #104]	@ 0x68
  }
}
 80a1ddc:	4770      	bx	lr
    stream_number = (((uint32_t)((uint32_t*)hdma->Instance) & 0xFFU) - 8U) / 20U;
 80a1dde:	b2db      	uxtb	r3, r3
 80a1de0:	3b08      	subs	r3, #8
 80a1de2:	4a0e      	ldr	r2, [pc, #56]	@ (80a1e1c <DMA_CalcDMAMUXChannelBaseAndMask+0xa0>)
 80a1de4:	fba2 2303 	umull	r2, r3, r2, r3
 80a1de8:	091b      	lsrs	r3, r3, #4
    hdma->DMAmuxChannel = (DMAMUX_Channel_TypeDef *)((uint32_t)(((uint32_t)DMAMUX2_Channel0) + (stream_number * 4U)));
 80a1dea:	f103 52b0 	add.w	r2, r3, #369098752	@ 0x16000000
 80a1dee:	f502 4216 	add.w	r2, r2, #38400	@ 0x9600
 80a1df2:	0092      	lsls	r2, r2, #2
 80a1df4:	6602      	str	r2, [r0, #96]	@ 0x60
    hdma->DMAmuxChannelStatus = DMAMUX2_ChannelStatus;
 80a1df6:	4a0a      	ldr	r2, [pc, #40]	@ (80a1e20 <DMA_CalcDMAMUXChannelBaseAndMask+0xa4>)
 80a1df8:	6642      	str	r2, [r0, #100]	@ 0x64
    hdma->DMAmuxChannelStatusMask = 1UL << (stream_number & 0x1FU);
 80a1dfa:	f003 031f 	and.w	r3, r3, #31
 80a1dfe:	2201      	movs	r2, #1
 80a1e00:	fa02 f303 	lsl.w	r3, r2, r3
 80a1e04:	6683      	str	r3, [r0, #104]	@ 0x68
 80a1e06:	4770      	bx	lr
      stream_number += 8U;
 80a1e08:	3208      	adds	r2, #8
 80a1e0a:	e7da      	b.n	80a1dc2 <DMA_CalcDMAMUXChannelBaseAndMask+0x46>
 80a1e0c:	58025408 	.word	0x58025408
 80a1e10:	aaaaaaab 	.word	0xaaaaaaab
 80a1e14:	bffdfbf0 	.word	0xbffdfbf0
 80a1e18:	40020880 	.word	0x40020880
 80a1e1c:	cccccccd 	.word	0xcccccccd
 80a1e20:	58025880 	.word	0x58025880

080a1e24 <DMA_CalcDMAMUXRequestGenBaseAndMask>:
  *                     the configuration information for the specified DMA Stream.
  * @retval HAL status
  */
static void DMA_CalcDMAMUXRequestGenBaseAndMask(DMA_HandleTypeDef *hdma)
{
  uint32_t request =  hdma->Init.Request & DMAMUX_CxCR_DMAREQ_ID;
 80a1e24:	7901      	ldrb	r1, [r0, #4]

  if((request >= DMA_REQUEST_GENERATOR0) && (request <= DMA_REQUEST_GENERATOR7))
 80a1e26:	1e4a      	subs	r2, r1, #1
 80a1e28:	2a07      	cmp	r2, #7
 80a1e2a:	d82c      	bhi.n	80a1e86 <DMA_CalcDMAMUXRequestGenBaseAndMask+0x62>
{
 80a1e2c:	b410      	push	{r4}
  {
    if(IS_BDMA_CHANNEL_DMAMUX_INSTANCE(hdma->Instance) != 0U)
 80a1e2e:	6803      	ldr	r3, [r0, #0]
 80a1e30:	4c15      	ldr	r4, [pc, #84]	@ (80a1e88 <DMA_CalcDMAMUXRequestGenBaseAndMask+0x64>)
 80a1e32:	42a3      	cmp	r3, r4
 80a1e34:	d01b      	beq.n	80a1e6e <DMA_CalcDMAMUXRequestGenBaseAndMask+0x4a>
 80a1e36:	3414      	adds	r4, #20
 80a1e38:	42a3      	cmp	r3, r4
 80a1e3a:	d018      	beq.n	80a1e6e <DMA_CalcDMAMUXRequestGenBaseAndMask+0x4a>
 80a1e3c:	3414      	adds	r4, #20
 80a1e3e:	42a3      	cmp	r3, r4
 80a1e40:	d015      	beq.n	80a1e6e <DMA_CalcDMAMUXRequestGenBaseAndMask+0x4a>
 80a1e42:	3414      	adds	r4, #20
 80a1e44:	42a3      	cmp	r3, r4
 80a1e46:	d012      	beq.n	80a1e6e <DMA_CalcDMAMUXRequestGenBaseAndMask+0x4a>
 80a1e48:	3414      	adds	r4, #20
 80a1e4a:	42a3      	cmp	r3, r4
 80a1e4c:	d00f      	beq.n	80a1e6e <DMA_CalcDMAMUXRequestGenBaseAndMask+0x4a>
 80a1e4e:	3414      	adds	r4, #20
 80a1e50:	42a3      	cmp	r3, r4
 80a1e52:	d00c      	beq.n	80a1e6e <DMA_CalcDMAMUXRequestGenBaseAndMask+0x4a>
 80a1e54:	3414      	adds	r4, #20
 80a1e56:	42a3      	cmp	r3, r4
 80a1e58:	d009      	beq.n	80a1e6e <DMA_CalcDMAMUXRequestGenBaseAndMask+0x4a>
 80a1e5a:	3414      	adds	r4, #20
 80a1e5c:	42a3      	cmp	r3, r4
 80a1e5e:	d006      	beq.n	80a1e6e <DMA_CalcDMAMUXRequestGenBaseAndMask+0x4a>
      hdma->DMAmuxRequestGenStatus = DMAMUX2_RequestGenStatus;
    }
    else
    {
      /* DMA1 and DMA2 Streams use DMAMUX1 request generator blocks */
      hdma->DMAmuxRequestGen = (DMAMUX_RequestGen_TypeDef *)((uint32_t)(((uint32_t)DMAMUX1_RequestGenerator0) + ((request - 1U) * 4U)));
 80a1e60:	4b0a      	ldr	r3, [pc, #40]	@ (80a1e8c <DMA_CalcDMAMUXRequestGenBaseAndMask+0x68>)
 80a1e62:	440b      	add	r3, r1
 80a1e64:	009b      	lsls	r3, r3, #2
 80a1e66:	66c3      	str	r3, [r0, #108]	@ 0x6c

      hdma->DMAmuxRequestGenStatus = DMAMUX1_RequestGenStatus;
 80a1e68:	4b09      	ldr	r3, [pc, #36]	@ (80a1e90 <DMA_CalcDMAMUXRequestGenBaseAndMask+0x6c>)
 80a1e6a:	6703      	str	r3, [r0, #112]	@ 0x70
 80a1e6c:	e005      	b.n	80a1e7a <DMA_CalcDMAMUXRequestGenBaseAndMask+0x56>
      hdma->DMAmuxRequestGen = (DMAMUX_RequestGen_TypeDef *)((uint32_t)(((uint32_t)DMAMUX2_RequestGenerator0) + ((request - 1U) * 4U)));
 80a1e6e:	4b09      	ldr	r3, [pc, #36]	@ (80a1e94 <DMA_CalcDMAMUXRequestGenBaseAndMask+0x70>)
 80a1e70:	440b      	add	r3, r1
 80a1e72:	009b      	lsls	r3, r3, #2
 80a1e74:	66c3      	str	r3, [r0, #108]	@ 0x6c
      hdma->DMAmuxRequestGenStatus = DMAMUX2_RequestGenStatus;
 80a1e76:	4b08      	ldr	r3, [pc, #32]	@ (80a1e98 <DMA_CalcDMAMUXRequestGenBaseAndMask+0x74>)
 80a1e78:	6703      	str	r3, [r0, #112]	@ 0x70
    }

    hdma->DMAmuxRequestGenStatusMask = 1UL << (request - 1U);
 80a1e7a:	2301      	movs	r3, #1
 80a1e7c:	4093      	lsls	r3, r2
 80a1e7e:	6743      	str	r3, [r0, #116]	@ 0x74
  }
}
 80a1e80:	f85d 4b04 	ldr.w	r4, [sp], #4
 80a1e84:	4770      	bx	lr
 80a1e86:	4770      	bx	lr
 80a1e88:	58025408 	.word	0x58025408
 80a1e8c:	1000823f 	.word	0x1000823f
 80a1e90:	40020940 	.word	0x40020940
 80a1e94:	1600963f 	.word	0x1600963f
 80a1e98:	58025940 	.word	0x58025940

080a1e9c <HAL_DMA_Init>:
{
 80a1e9c:	b570      	push	{r4, r5, r6, lr}
 80a1e9e:	4604      	mov	r4, r0
  uint32_t tickstart = HAL_GetTick();
 80a1ea0:	f7ff fd68 	bl	80a1974 <HAL_GetTick>
  if(hdma == NULL)
 80a1ea4:	2c00      	cmp	r4, #0
 80a1ea6:	f000 81b5 	beq.w	80a2214 <HAL_DMA_Init+0x378>
 80a1eaa:	4605      	mov	r5, r0
  if(IS_DMA_STREAM_INSTANCE(hdma->Instance) != 0U) /* DMA1 or DMA2 instance */
 80a1eac:	6823      	ldr	r3, [r4, #0]
 80a1eae:	4a54      	ldr	r2, [pc, #336]	@ (80a2000 <HAL_DMA_Init+0x164>)
 80a1eb0:	4293      	cmp	r3, r2
 80a1eb2:	d054      	beq.n	80a1f5e <HAL_DMA_Init+0xc2>
 80a1eb4:	3218      	adds	r2, #24
 80a1eb6:	4293      	cmp	r3, r2
 80a1eb8:	d051      	beq.n	80a1f5e <HAL_DMA_Init+0xc2>
 80a1eba:	3218      	adds	r2, #24
 80a1ebc:	4293      	cmp	r3, r2
 80a1ebe:	d04e      	beq.n	80a1f5e <HAL_DMA_Init+0xc2>
 80a1ec0:	3218      	adds	r2, #24
 80a1ec2:	4293      	cmp	r3, r2
 80a1ec4:	d04b      	beq.n	80a1f5e <HAL_DMA_Init+0xc2>
 80a1ec6:	3218      	adds	r2, #24
 80a1ec8:	4293      	cmp	r3, r2
 80a1eca:	d048      	beq.n	80a1f5e <HAL_DMA_Init+0xc2>
 80a1ecc:	3218      	adds	r2, #24
 80a1ece:	4293      	cmp	r3, r2
 80a1ed0:	d045      	beq.n	80a1f5e <HAL_DMA_Init+0xc2>
 80a1ed2:	3218      	adds	r2, #24
 80a1ed4:	4293      	cmp	r3, r2
 80a1ed6:	d042      	beq.n	80a1f5e <HAL_DMA_Init+0xc2>
 80a1ed8:	3218      	adds	r2, #24
 80a1eda:	4293      	cmp	r3, r2
 80a1edc:	d03f      	beq.n	80a1f5e <HAL_DMA_Init+0xc2>
 80a1ede:	f502 7256 	add.w	r2, r2, #856	@ 0x358
 80a1ee2:	4293      	cmp	r3, r2
 80a1ee4:	d03b      	beq.n	80a1f5e <HAL_DMA_Init+0xc2>
 80a1ee6:	3218      	adds	r2, #24
 80a1ee8:	4293      	cmp	r3, r2
 80a1eea:	d038      	beq.n	80a1f5e <HAL_DMA_Init+0xc2>
 80a1eec:	3218      	adds	r2, #24
 80a1eee:	4293      	cmp	r3, r2
 80a1ef0:	d035      	beq.n	80a1f5e <HAL_DMA_Init+0xc2>
 80a1ef2:	3218      	adds	r2, #24
 80a1ef4:	4293      	cmp	r3, r2
 80a1ef6:	d032      	beq.n	80a1f5e <HAL_DMA_Init+0xc2>
 80a1ef8:	3218      	adds	r2, #24
 80a1efa:	4293      	cmp	r3, r2
 80a1efc:	d02f      	beq.n	80a1f5e <HAL_DMA_Init+0xc2>
 80a1efe:	3218      	adds	r2, #24
 80a1f00:	4293      	cmp	r3, r2
 80a1f02:	d02c      	beq.n	80a1f5e <HAL_DMA_Init+0xc2>
 80a1f04:	3218      	adds	r2, #24
 80a1f06:	4293      	cmp	r3, r2
 80a1f08:	d029      	beq.n	80a1f5e <HAL_DMA_Init+0xc2>
 80a1f0a:	3218      	adds	r2, #24
 80a1f0c:	4293      	cmp	r3, r2
 80a1f0e:	d026      	beq.n	80a1f5e <HAL_DMA_Init+0xc2>
  else if(IS_BDMA_CHANNEL_INSTANCE(hdma->Instance) != 0U) /* BDMA instance(s) */
 80a1f10:	4a3c      	ldr	r2, [pc, #240]	@ (80a2004 <HAL_DMA_Init+0x168>)
 80a1f12:	4293      	cmp	r3, r2
 80a1f14:	f000 8136 	beq.w	80a2184 <HAL_DMA_Init+0x2e8>
 80a1f18:	4a3b      	ldr	r2, [pc, #236]	@ (80a2008 <HAL_DMA_Init+0x16c>)
 80a1f1a:	4293      	cmp	r3, r2
 80a1f1c:	f000 8132 	beq.w	80a2184 <HAL_DMA_Init+0x2e8>
 80a1f20:	3214      	adds	r2, #20
 80a1f22:	4293      	cmp	r3, r2
 80a1f24:	f000 812e 	beq.w	80a2184 <HAL_DMA_Init+0x2e8>
 80a1f28:	3214      	adds	r2, #20
 80a1f2a:	4293      	cmp	r3, r2
 80a1f2c:	f000 812a 	beq.w	80a2184 <HAL_DMA_Init+0x2e8>
 80a1f30:	3214      	adds	r2, #20
 80a1f32:	4293      	cmp	r3, r2
 80a1f34:	f000 8126 	beq.w	80a2184 <HAL_DMA_Init+0x2e8>
 80a1f38:	3214      	adds	r2, #20
 80a1f3a:	4293      	cmp	r3, r2
 80a1f3c:	f000 8122 	beq.w	80a2184 <HAL_DMA_Init+0x2e8>
 80a1f40:	3214      	adds	r2, #20
 80a1f42:	4293      	cmp	r3, r2
 80a1f44:	f000 811e 	beq.w	80a2184 <HAL_DMA_Init+0x2e8>
 80a1f48:	3214      	adds	r2, #20
 80a1f4a:	4293      	cmp	r3, r2
 80a1f4c:	f000 811a 	beq.w	80a2184 <HAL_DMA_Init+0x2e8>
    hdma->ErrorCode = HAL_DMA_ERROR_PARAM;
 80a1f50:	2340      	movs	r3, #64	@ 0x40
 80a1f52:	6563      	str	r3, [r4, #84]	@ 0x54
    hdma->State     = HAL_DMA_STATE_ERROR;
 80a1f54:	2303      	movs	r3, #3
 80a1f56:	f884 3035 	strb.w	r3, [r4, #53]	@ 0x35
    return HAL_ERROR;
 80a1f5a:	2001      	movs	r0, #1
 80a1f5c:	e04f      	b.n	80a1ffe <HAL_DMA_Init+0x162>
    hdma->State = HAL_DMA_STATE_BUSY;
 80a1f5e:	2202      	movs	r2, #2
 80a1f60:	f884 2035 	strb.w	r2, [r4, #53]	@ 0x35
    __HAL_UNLOCK(hdma);
 80a1f64:	2200      	movs	r2, #0
 80a1f66:	f884 2034 	strb.w	r2, [r4, #52]	@ 0x34
    __HAL_DMA_DISABLE(hdma);
 80a1f6a:	4a25      	ldr	r2, [pc, #148]	@ (80a2000 <HAL_DMA_Init+0x164>)
 80a1f6c:	4293      	cmp	r3, r2
 80a1f6e:	d032      	beq.n	80a1fd6 <HAL_DMA_Init+0x13a>
 80a1f70:	3218      	adds	r2, #24
 80a1f72:	4293      	cmp	r3, r2
 80a1f74:	d02f      	beq.n	80a1fd6 <HAL_DMA_Init+0x13a>
 80a1f76:	3218      	adds	r2, #24
 80a1f78:	4293      	cmp	r3, r2
 80a1f7a:	d02c      	beq.n	80a1fd6 <HAL_DMA_Init+0x13a>
 80a1f7c:	3218      	adds	r2, #24
 80a1f7e:	4293      	cmp	r3, r2
 80a1f80:	d029      	beq.n	80a1fd6 <HAL_DMA_Init+0x13a>
 80a1f82:	3218      	adds	r2, #24
 80a1f84:	4293      	cmp	r3, r2
 80a1f86:	d026      	beq.n	80a1fd6 <HAL_DMA_Init+0x13a>
 80a1f88:	3218      	adds	r2, #24
 80a1f8a:	4293      	cmp	r3, r2
 80a1f8c:	d023      	beq.n	80a1fd6 <HAL_DMA_Init+0x13a>
 80a1f8e:	3218      	adds	r2, #24
 80a1f90:	4293      	cmp	r3, r2
 80a1f92:	d020      	beq.n	80a1fd6 <HAL_DMA_Init+0x13a>
 80a1f94:	3218      	adds	r2, #24
 80a1f96:	4293      	cmp	r3, r2
 80a1f98:	d01d      	beq.n	80a1fd6 <HAL_DMA_Init+0x13a>
 80a1f9a:	f502 7256 	add.w	r2, r2, #856	@ 0x358
 80a1f9e:	4293      	cmp	r3, r2
 80a1fa0:	d019      	beq.n	80a1fd6 <HAL_DMA_Init+0x13a>
 80a1fa2:	3218      	adds	r2, #24
 80a1fa4:	4293      	cmp	r3, r2
 80a1fa6:	d016      	beq.n	80a1fd6 <HAL_DMA_Init+0x13a>
 80a1fa8:	3218      	adds	r2, #24
 80a1faa:	4293      	cmp	r3, r2
 80a1fac:	d013      	beq.n	80a1fd6 <HAL_DMA_Init+0x13a>
 80a1fae:	3218      	adds	r2, #24
 80a1fb0:	4293      	cmp	r3, r2
 80a1fb2:	d010      	beq.n	80a1fd6 <HAL_DMA_Init+0x13a>
 80a1fb4:	3218      	adds	r2, #24
 80a1fb6:	4293      	cmp	r3, r2
 80a1fb8:	d00d      	beq.n	80a1fd6 <HAL_DMA_Init+0x13a>
 80a1fba:	3218      	adds	r2, #24
 80a1fbc:	4293      	cmp	r3, r2
 80a1fbe:	d00a      	beq.n	80a1fd6 <HAL_DMA_Init+0x13a>
 80a1fc0:	3218      	adds	r2, #24
 80a1fc2:	4293      	cmp	r3, r2
 80a1fc4:	d007      	beq.n	80a1fd6 <HAL_DMA_Init+0x13a>
 80a1fc6:	3218      	adds	r2, #24
 80a1fc8:	4293      	cmp	r3, r2
 80a1fca:	d004      	beq.n	80a1fd6 <HAL_DMA_Init+0x13a>
 80a1fcc:	681a      	ldr	r2, [r3, #0]
 80a1fce:	f022 0201 	bic.w	r2, r2, #1
 80a1fd2:	601a      	str	r2, [r3, #0]
 80a1fd4:	e003      	b.n	80a1fde <HAL_DMA_Init+0x142>
 80a1fd6:	681a      	ldr	r2, [r3, #0]
 80a1fd8:	f022 0201 	bic.w	r2, r2, #1
 80a1fdc:	601a      	str	r2, [r3, #0]
    while((((DMA_Stream_TypeDef   *)hdma->Instance)->CR & DMA_SxCR_EN) != 0U)
 80a1fde:	6823      	ldr	r3, [r4, #0]
 80a1fe0:	681a      	ldr	r2, [r3, #0]
 80a1fe2:	f012 0f01 	tst.w	r2, #1
 80a1fe6:	d011      	beq.n	80a200c <HAL_DMA_Init+0x170>
      if((HAL_GetTick() - tickstart ) > HAL_TIMEOUT_DMA_ABORT)
 80a1fe8:	f7ff fcc4 	bl	80a1974 <HAL_GetTick>
 80a1fec:	1b43      	subs	r3, r0, r5
 80a1fee:	2b05      	cmp	r3, #5
 80a1ff0:	d9f5      	bls.n	80a1fde <HAL_DMA_Init+0x142>
        hdma->ErrorCode = HAL_DMA_ERROR_TIMEOUT;
 80a1ff2:	2320      	movs	r3, #32
 80a1ff4:	6563      	str	r3, [r4, #84]	@ 0x54
        hdma->State = HAL_DMA_STATE_ERROR;
 80a1ff6:	2303      	movs	r3, #3
 80a1ff8:	f884 3035 	strb.w	r3, [r4, #53]	@ 0x35
        return HAL_ERROR;
 80a1ffc:	2001      	movs	r0, #1
}
 80a1ffe:	bd70      	pop	{r4, r5, r6, pc}
 80a2000:	40020010 	.word	0x40020010
 80a2004:	58025408 	.word	0x58025408
 80a2008:	5802541c 	.word	0x5802541c
    registerValue = ((DMA_Stream_TypeDef   *)hdma->Instance)->CR;
 80a200c:	681a      	ldr	r2, [r3, #0]
    registerValue &= ((uint32_t)~(DMA_SxCR_MBURST | DMA_SxCR_PBURST | \
 80a200e:	4982      	ldr	r1, [pc, #520]	@ (80a2218 <HAL_DMA_Init+0x37c>)
 80a2010:	4011      	ands	r1, r2
    registerValue |=  hdma->Init.Direction           |
 80a2012:	68a2      	ldr	r2, [r4, #8]
            hdma->Init.PeriphInc           | hdma->Init.MemInc           |
 80a2014:	68e0      	ldr	r0, [r4, #12]
    registerValue |=  hdma->Init.Direction           |
 80a2016:	4302      	orrs	r2, r0
            hdma->Init.PeriphInc           | hdma->Init.MemInc           |
 80a2018:	6920      	ldr	r0, [r4, #16]
 80a201a:	4302      	orrs	r2, r0
            hdma->Init.PeriphDataAlignment | hdma->Init.MemDataAlignment |
 80a201c:	6960      	ldr	r0, [r4, #20]
            hdma->Init.PeriphInc           | hdma->Init.MemInc           |
 80a201e:	4302      	orrs	r2, r0
            hdma->Init.PeriphDataAlignment | hdma->Init.MemDataAlignment |
 80a2020:	69a0      	ldr	r0, [r4, #24]
 80a2022:	4302      	orrs	r2, r0
            hdma->Init.Mode                | hdma->Init.Priority;
 80a2024:	69e0      	ldr	r0, [r4, #28]
            hdma->Init.PeriphDataAlignment | hdma->Init.MemDataAlignment |
 80a2026:	4302      	orrs	r2, r0
            hdma->Init.Mode                | hdma->Init.Priority;
 80a2028:	6a20      	ldr	r0, [r4, #32]
 80a202a:	4302      	orrs	r2, r0
    registerValue |=  hdma->Init.Direction           |
 80a202c:	430a      	orrs	r2, r1
    if(hdma->Init.FIFOMode == DMA_FIFOMODE_ENABLE)
 80a202e:	6a61      	ldr	r1, [r4, #36]	@ 0x24
 80a2030:	2904      	cmp	r1, #4
 80a2032:	f000 8098 	beq.w	80a2166 <HAL_DMA_Init+0x2ca>
    if((DBGMCU->IDCODE & 0xFFFF0000U) >= 0x20000000U)
 80a2036:	4979      	ldr	r1, [pc, #484]	@ (80a221c <HAL_DMA_Init+0x380>)
 80a2038:	6809      	ldr	r1, [r1, #0]
 80a203a:	f36f 010f 	bfc	r1, #0, #16
 80a203e:	f1b1 5f00 	cmp.w	r1, #536870912	@ 0x20000000
 80a2042:	d310      	bcc.n	80a2066 <HAL_DMA_Init+0x1ca>
      if(IS_DMA_UART_USART_REQUEST(hdma->Init.Request) != 0U)
 80a2044:	6861      	ldr	r1, [r4, #4]
 80a2046:	292e      	cmp	r1, #46	@ 0x2e
 80a2048:	f240 8092 	bls.w	80a2170 <HAL_DMA_Init+0x2d4>
 80a204c:	2952      	cmp	r1, #82	@ 0x52
 80a204e:	d80a      	bhi.n	80a2066 <HAL_DMA_Init+0x1ca>
 80a2050:	293f      	cmp	r1, #63	@ 0x3f
 80a2052:	d308      	bcc.n	80a2066 <HAL_DMA_Init+0x1ca>
 80a2054:	393f      	subs	r1, #63	@ 0x3f
 80a2056:	4872      	ldr	r0, [pc, #456]	@ (80a2220 <HAL_DMA_Init+0x384>)
 80a2058:	fa20 f101 	lsr.w	r1, r0, r1
 80a205c:	f011 0f01 	tst.w	r1, #1
 80a2060:	d001      	beq.n	80a2066 <HAL_DMA_Init+0x1ca>
        registerValue |= DMA_SxCR_TRBUFF;
 80a2062:	f442 1280 	orr.w	r2, r2, #1048576	@ 0x100000
    ((DMA_Stream_TypeDef   *)hdma->Instance)->CR = registerValue;
 80a2066:	601a      	str	r2, [r3, #0]
    registerValue = ((DMA_Stream_TypeDef   *)hdma->Instance)->FCR;
 80a2068:	6826      	ldr	r6, [r4, #0]
 80a206a:	6975      	ldr	r5, [r6, #20]
    registerValue &= (uint32_t)~(DMA_SxFCR_DMDIS | DMA_SxFCR_FTH);
 80a206c:	f025 0507 	bic.w	r5, r5, #7
    registerValue |= hdma->Init.FIFOMode;
 80a2070:	6a63      	ldr	r3, [r4, #36]	@ 0x24
 80a2072:	431d      	orrs	r5, r3
    if(hdma->Init.FIFOMode == DMA_FIFOMODE_ENABLE)
 80a2074:	2b04      	cmp	r3, #4
 80a2076:	d108      	bne.n	80a208a <HAL_DMA_Init+0x1ee>
      registerValue |= hdma->Init.FIFOThreshold;
 80a2078:	6aa3      	ldr	r3, [r4, #40]	@ 0x28
 80a207a:	431d      	orrs	r5, r3
      if(hdma->Init.MemBurst != DMA_MBURST_SINGLE)
 80a207c:	6ae3      	ldr	r3, [r4, #44]	@ 0x2c
 80a207e:	b123      	cbz	r3, 80a208a <HAL_DMA_Init+0x1ee>
        if (DMA_CheckFifoParam(hdma) != HAL_OK)
 80a2080:	4620      	mov	r0, r4
 80a2082:	f7ff fe31 	bl	80a1ce8 <DMA_CheckFifoParam>
 80a2086:	2800      	cmp	r0, #0
 80a2088:	d176      	bne.n	80a2178 <HAL_DMA_Init+0x2dc>
    ((DMA_Stream_TypeDef   *)hdma->Instance)->FCR = registerValue;
 80a208a:	6175      	str	r5, [r6, #20]
    regs_dma = (DMA_Base_Registers *)DMA_CalcBaseAndBitshift(hdma);
 80a208c:	4620      	mov	r0, r4
 80a208e:	f7ff fdd5 	bl	80a1c3c <DMA_CalcBaseAndBitshift>
    regs_dma->IFCR = 0x3FUL << (hdma->StreamIndex & 0x1FU);
 80a2092:	6de3      	ldr	r3, [r4, #92]	@ 0x5c
 80a2094:	f003 021f 	and.w	r2, r3, #31
 80a2098:	233f      	movs	r3, #63	@ 0x3f
 80a209a:	4093      	lsls	r3, r2
 80a209c:	6083      	str	r3, [r0, #8]
  if(IS_DMA_DMAMUX_ALL_INSTANCE(hdma->Instance) != 0U) /* No DMAMUX available for BDMA1 */
 80a209e:	6823      	ldr	r3, [r4, #0]
 80a20a0:	4a60      	ldr	r2, [pc, #384]	@ (80a2224 <HAL_DMA_Init+0x388>)
 80a20a2:	4293      	cmp	r3, r2
 80a20a4:	d045      	beq.n	80a2132 <HAL_DMA_Init+0x296>
 80a20a6:	3218      	adds	r2, #24
 80a20a8:	4293      	cmp	r3, r2
 80a20aa:	d042      	beq.n	80a2132 <HAL_DMA_Init+0x296>
 80a20ac:	3218      	adds	r2, #24
 80a20ae:	4293      	cmp	r3, r2
 80a20b0:	d03f      	beq.n	80a2132 <HAL_DMA_Init+0x296>
 80a20b2:	3218      	adds	r2, #24
 80a20b4:	4293      	cmp	r3, r2
 80a20b6:	d03c      	beq.n	80a2132 <HAL_DMA_Init+0x296>
 80a20b8:	3218      	adds	r2, #24
 80a20ba:	4293      	cmp	r3, r2
 80a20bc:	d039      	beq.n	80a2132 <HAL_DMA_Init+0x296>
 80a20be:	3218      	adds	r2, #24
 80a20c0:	4293      	cmp	r3, r2
 80a20c2:	d036      	beq.n	80a2132 <HAL_DMA_Init+0x296>
 80a20c4:	3218      	adds	r2, #24
 80a20c6:	4293      	cmp	r3, r2
 80a20c8:	d033      	beq.n	80a2132 <HAL_DMA_Init+0x296>
 80a20ca:	3218      	adds	r2, #24
 80a20cc:	4293      	cmp	r3, r2
 80a20ce:	d030      	beq.n	80a2132 <HAL_DMA_Init+0x296>
 80a20d0:	f502 7256 	add.w	r2, r2, #856	@ 0x358
 80a20d4:	4293      	cmp	r3, r2
 80a20d6:	d02c      	beq.n	80a2132 <HAL_DMA_Init+0x296>
 80a20d8:	3218      	adds	r2, #24
 80a20da:	4293      	cmp	r3, r2
 80a20dc:	d029      	beq.n	80a2132 <HAL_DMA_Init+0x296>
 80a20de:	3218      	adds	r2, #24
 80a20e0:	4293      	cmp	r3, r2
 80a20e2:	d026      	beq.n	80a2132 <HAL_DMA_Init+0x296>
 80a20e4:	3218      	adds	r2, #24
 80a20e6:	4293      	cmp	r3, r2
 80a20e8:	d023      	beq.n	80a2132 <HAL_DMA_Init+0x296>
 80a20ea:	3218      	adds	r2, #24
 80a20ec:	4293      	cmp	r3, r2
 80a20ee:	d020      	beq.n	80a2132 <HAL_DMA_Init+0x296>
 80a20f0:	3218      	adds	r2, #24
 80a20f2:	4293      	cmp	r3, r2
 80a20f4:	d01d      	beq.n	80a2132 <HAL_DMA_Init+0x296>
 80a20f6:	3218      	adds	r2, #24
 80a20f8:	4293      	cmp	r3, r2
 80a20fa:	d01a      	beq.n	80a2132 <HAL_DMA_Init+0x296>
 80a20fc:	3218      	adds	r2, #24
 80a20fe:	4293      	cmp	r3, r2
 80a2100:	d017      	beq.n	80a2132 <HAL_DMA_Init+0x296>
 80a2102:	4a49      	ldr	r2, [pc, #292]	@ (80a2228 <HAL_DMA_Init+0x38c>)
 80a2104:	4293      	cmp	r3, r2
 80a2106:	d014      	beq.n	80a2132 <HAL_DMA_Init+0x296>
 80a2108:	3214      	adds	r2, #20
 80a210a:	4293      	cmp	r3, r2
 80a210c:	d011      	beq.n	80a2132 <HAL_DMA_Init+0x296>
 80a210e:	3214      	adds	r2, #20
 80a2110:	4293      	cmp	r3, r2
 80a2112:	d00e      	beq.n	80a2132 <HAL_DMA_Init+0x296>
 80a2114:	3214      	adds	r2, #20
 80a2116:	4293      	cmp	r3, r2
 80a2118:	d00b      	beq.n	80a2132 <HAL_DMA_Init+0x296>
 80a211a:	3214      	adds	r2, #20
 80a211c:	4293      	cmp	r3, r2
 80a211e:	d008      	beq.n	80a2132 <HAL_DMA_Init+0x296>
 80a2120:	3214      	adds	r2, #20
 80a2122:	4293      	cmp	r3, r2
 80a2124:	d005      	beq.n	80a2132 <HAL_DMA_Init+0x296>
 80a2126:	3214      	adds	r2, #20
 80a2128:	4293      	cmp	r3, r2
 80a212a:	d002      	beq.n	80a2132 <HAL_DMA_Init+0x296>
 80a212c:	3214      	adds	r2, #20
 80a212e:	4293      	cmp	r3, r2
 80a2130:	d113      	bne.n	80a215a <HAL_DMA_Init+0x2be>
    DMA_CalcDMAMUXChannelBaseAndMask(hdma);
 80a2132:	4620      	mov	r0, r4
 80a2134:	f7ff fe22 	bl	80a1d7c <DMA_CalcDMAMUXChannelBaseAndMask>
    if(hdma->Init.Direction == DMA_MEMORY_TO_MEMORY)
 80a2138:	68a3      	ldr	r3, [r4, #8]
 80a213a:	2b80      	cmp	r3, #128	@ 0x80
 80a213c:	d05d      	beq.n	80a21fa <HAL_DMA_Init+0x35e>
    hdma->DMAmuxChannel->CCR = (hdma->Init.Request & DMAMUX_CxCR_DMAREQ_ID);
 80a213e:	6e23      	ldr	r3, [r4, #96]	@ 0x60
 80a2140:	7922      	ldrb	r2, [r4, #4]
 80a2142:	601a      	str	r2, [r3, #0]
    hdma->DMAmuxChannelStatus->CFR = hdma->DMAmuxChannelStatusMask;
 80a2144:	6e63      	ldr	r3, [r4, #100]	@ 0x64
 80a2146:	6ea2      	ldr	r2, [r4, #104]	@ 0x68
 80a2148:	605a      	str	r2, [r3, #4]
    if((hdma->Init.Request >= DMA_REQUEST_GENERATOR0) && (hdma->Init.Request <= DMA_REQUEST_GENERATOR7))
 80a214a:	6863      	ldr	r3, [r4, #4]
 80a214c:	3b01      	subs	r3, #1
 80a214e:	2b07      	cmp	r3, #7
 80a2150:	d956      	bls.n	80a2200 <HAL_DMA_Init+0x364>
      hdma->DMAmuxRequestGen = 0U;
 80a2152:	2300      	movs	r3, #0
 80a2154:	66e3      	str	r3, [r4, #108]	@ 0x6c
      hdma->DMAmuxRequestGenStatus = 0U;
 80a2156:	6723      	str	r3, [r4, #112]	@ 0x70
      hdma->DMAmuxRequestGenStatusMask = 0U;
 80a2158:	6763      	str	r3, [r4, #116]	@ 0x74
  hdma->ErrorCode = HAL_DMA_ERROR_NONE;
 80a215a:	2000      	movs	r0, #0
 80a215c:	6560      	str	r0, [r4, #84]	@ 0x54
  hdma->State = HAL_DMA_STATE_READY;
 80a215e:	2301      	movs	r3, #1
 80a2160:	f884 3035 	strb.w	r3, [r4, #53]	@ 0x35
  return HAL_OK;
 80a2164:	e74b      	b.n	80a1ffe <HAL_DMA_Init+0x162>
      registerValue |=  hdma->Init.MemBurst | hdma->Init.PeriphBurst;
 80a2166:	6ae1      	ldr	r1, [r4, #44]	@ 0x2c
 80a2168:	6b20      	ldr	r0, [r4, #48]	@ 0x30
 80a216a:	4301      	orrs	r1, r0
 80a216c:	430a      	orrs	r2, r1
 80a216e:	e762      	b.n	80a2036 <HAL_DMA_Init+0x19a>
 80a2170:	2929      	cmp	r1, #41	@ 0x29
 80a2172:	f4ff af78 	bcc.w	80a2066 <HAL_DMA_Init+0x1ca>
 80a2176:	e774      	b.n	80a2062 <HAL_DMA_Init+0x1c6>
          hdma->ErrorCode = HAL_DMA_ERROR_PARAM;
 80a2178:	2340      	movs	r3, #64	@ 0x40
 80a217a:	6563      	str	r3, [r4, #84]	@ 0x54
          hdma->State = HAL_DMA_STATE_READY;
 80a217c:	2001      	movs	r0, #1
 80a217e:	f884 0035 	strb.w	r0, [r4, #53]	@ 0x35
          return HAL_ERROR;
 80a2182:	e73c      	b.n	80a1ffe <HAL_DMA_Init+0x162>
    hdma->State = HAL_DMA_STATE_BUSY;
 80a2184:	2202      	movs	r2, #2
 80a2186:	f884 2035 	strb.w	r2, [r4, #53]	@ 0x35
    __HAL_UNLOCK(hdma);
 80a218a:	2200      	movs	r2, #0
 80a218c:	f884 2034 	strb.w	r2, [r4, #52]	@ 0x34
    registerValue = ((BDMA_Channel_TypeDef *)hdma->Instance)->CCR;
 80a2190:	6819      	ldr	r1, [r3, #0]
    registerValue &= ((uint32_t)~(BDMA_CCR_PL    | BDMA_CCR_MSIZE   | BDMA_CCR_PSIZE  | \
 80a2192:	f36f 1110 	bfc	r1, #4, #13
    registerValue |=  DMA_TO_BDMA_DIRECTION(hdma->Init.Direction)            |
 80a2196:	68a2      	ldr	r2, [r4, #8]
 80a2198:	2a40      	cmp	r2, #64	@ 0x40
 80a219a:	d02c      	beq.n	80a21f6 <HAL_DMA_Init+0x35a>
 80a219c:	2a80      	cmp	r2, #128	@ 0x80
 80a219e:	d027      	beq.n	80a21f0 <HAL_DMA_Init+0x354>
 80a21a0:	2200      	movs	r2, #0
                      DMA_TO_BDMA_PERIPHERAL_INC(hdma->Init.PeriphInc)       |
 80a21a2:	68e0      	ldr	r0, [r4, #12]
    registerValue |=  DMA_TO_BDMA_DIRECTION(hdma->Init.Direction)            |
 80a21a4:	ea42 02d0 	orr.w	r2, r2, r0, lsr #3
                      DMA_TO_BDMA_MEMORY_INC(hdma->Init.MemInc)              |
 80a21a8:	6920      	ldr	r0, [r4, #16]
                      DMA_TO_BDMA_PERIPHERAL_INC(hdma->Init.PeriphInc)       |
 80a21aa:	ea42 02d0 	orr.w	r2, r2, r0, lsr #3
                      DMA_TO_BDMA_PDATA_SIZE(hdma->Init.PeriphDataAlignment) |
 80a21ae:	6960      	ldr	r0, [r4, #20]
                      DMA_TO_BDMA_MEMORY_INC(hdma->Init.MemInc)              |
 80a21b0:	ea42 02d0 	orr.w	r2, r2, r0, lsr #3
                      DMA_TO_BDMA_MDATA_SIZE(hdma->Init.MemDataAlignment)    |
 80a21b4:	69a0      	ldr	r0, [r4, #24]
                      DMA_TO_BDMA_PDATA_SIZE(hdma->Init.PeriphDataAlignment) |
 80a21b6:	ea42 02d0 	orr.w	r2, r2, r0, lsr #3
                      DMA_TO_BDMA_MODE(hdma->Init.Mode)                      |
 80a21ba:	69e0      	ldr	r0, [r4, #28]
                      DMA_TO_BDMA_MDATA_SIZE(hdma->Init.MemDataAlignment)    |
 80a21bc:	ea42 02d0 	orr.w	r2, r2, r0, lsr #3
                      DMA_TO_BDMA_PRIORITY(hdma->Init.Priority);
 80a21c0:	6a20      	ldr	r0, [r4, #32]
                      DMA_TO_BDMA_MODE(hdma->Init.Mode)                      |
 80a21c2:	ea42 1210 	orr.w	r2, r2, r0, lsr #4
    registerValue |=  DMA_TO_BDMA_DIRECTION(hdma->Init.Direction)            |
 80a21c6:	430a      	orrs	r2, r1
    ((BDMA_Channel_TypeDef *)hdma->Instance)->CCR = registerValue;
 80a21c8:	601a      	str	r2, [r3, #0]
    hdma->StreamIndex = (((uint32_t)((uint32_t*)hdma->Instance) - (uint32_t)BDMA_Channel0) / ((uint32_t)BDMA_Channel1 - (uint32_t)BDMA_Channel0)) << 2U;
 80a21ca:	6822      	ldr	r2, [r4, #0]
 80a21cc:	4b17      	ldr	r3, [pc, #92]	@ (80a222c <HAL_DMA_Init+0x390>)
 80a21ce:	4413      	add	r3, r2
 80a21d0:	4a17      	ldr	r2, [pc, #92]	@ (80a2230 <HAL_DMA_Init+0x394>)
 80a21d2:	fba2 2303 	umull	r2, r3, r2, r3
 80a21d6:	091b      	lsrs	r3, r3, #4
 80a21d8:	009b      	lsls	r3, r3, #2
 80a21da:	65e3      	str	r3, [r4, #92]	@ 0x5c
    regs_bdma = (BDMA_Base_Registers *)DMA_CalcBaseAndBitshift(hdma);
 80a21dc:	4620      	mov	r0, r4
 80a21de:	f7ff fd2d 	bl	80a1c3c <DMA_CalcBaseAndBitshift>
    regs_bdma->IFCR = ((BDMA_IFCR_CGIF0) << (hdma->StreamIndex & 0x1FU));
 80a21e2:	6de2      	ldr	r2, [r4, #92]	@ 0x5c
 80a21e4:	f002 011f 	and.w	r1, r2, #31
 80a21e8:	2201      	movs	r2, #1
 80a21ea:	408a      	lsls	r2, r1
 80a21ec:	6042      	str	r2, [r0, #4]
 80a21ee:	e756      	b.n	80a209e <HAL_DMA_Init+0x202>
    registerValue |=  DMA_TO_BDMA_DIRECTION(hdma->Init.Direction)            |
 80a21f0:	f44f 4280 	mov.w	r2, #16384	@ 0x4000
 80a21f4:	e7d5      	b.n	80a21a2 <HAL_DMA_Init+0x306>
 80a21f6:	2210      	movs	r2, #16
 80a21f8:	e7d3      	b.n	80a21a2 <HAL_DMA_Init+0x306>
      hdma->Init.Request = DMA_REQUEST_MEM2MEM;
 80a21fa:	2300      	movs	r3, #0
 80a21fc:	6063      	str	r3, [r4, #4]
 80a21fe:	e79e      	b.n	80a213e <HAL_DMA_Init+0x2a2>
      DMA_CalcDMAMUXRequestGenBaseAndMask(hdma);
 80a2200:	4620      	mov	r0, r4
 80a2202:	f7ff fe0f 	bl	80a1e24 <DMA_CalcDMAMUXRequestGenBaseAndMask>
      hdma->DMAmuxRequestGen->RGCR = 0U;
 80a2206:	6ee3      	ldr	r3, [r4, #108]	@ 0x6c
 80a2208:	2200      	movs	r2, #0
 80a220a:	601a      	str	r2, [r3, #0]
      hdma->DMAmuxRequestGenStatus->RGCFR = hdma->DMAmuxRequestGenStatusMask;
 80a220c:	6f23      	ldr	r3, [r4, #112]	@ 0x70
 80a220e:	6f62      	ldr	r2, [r4, #116]	@ 0x74
 80a2210:	605a      	str	r2, [r3, #4]
 80a2212:	e7a2      	b.n	80a215a <HAL_DMA_Init+0x2be>
    return HAL_ERROR;
 80a2214:	2001      	movs	r0, #1
 80a2216:	e6f2      	b.n	80a1ffe <HAL_DMA_Init+0x162>
 80a2218:	fe10803f 	.word	0xfe10803f
 80a221c:	5c001000 	.word	0x5c001000
 80a2220:	000f030f 	.word	0x000f030f
 80a2224:	40020010 	.word	0x40020010
 80a2228:	58025408 	.word	0x58025408
 80a222c:	a7fdabf8 	.word	0xa7fdabf8
 80a2230:	cccccccd 	.word	0xcccccccd

080a2234 <HAL_DMA_Start_IT>:
  if(hdma == NULL)
 80a2234:	2800      	cmp	r0, #0
 80a2236:	f000 813e 	beq.w	80a24b6 <HAL_DMA_Start_IT+0x282>
{
 80a223a:	b538      	push	{r3, r4, r5, lr}
 80a223c:	4604      	mov	r4, r0
  __HAL_LOCK(hdma);
 80a223e:	f890 0034 	ldrb.w	r0, [r0, #52]	@ 0x34
 80a2242:	2801      	cmp	r0, #1
 80a2244:	f000 8139 	beq.w	80a24ba <HAL_DMA_Start_IT+0x286>
 80a2248:	2001      	movs	r0, #1
 80a224a:	f884 0034 	strb.w	r0, [r4, #52]	@ 0x34
  if(HAL_DMA_STATE_READY == hdma->State)
 80a224e:	f894 0035 	ldrb.w	r0, [r4, #53]	@ 0x35
 80a2252:	b2c0      	uxtb	r0, r0
 80a2254:	2801      	cmp	r0, #1
 80a2256:	d007      	beq.n	80a2268 <HAL_DMA_Start_IT+0x34>
    hdma->ErrorCode = HAL_DMA_ERROR_BUSY;
 80a2258:	f44f 6300 	mov.w	r3, #2048	@ 0x800
 80a225c:	6563      	str	r3, [r4, #84]	@ 0x54
    __HAL_UNLOCK(hdma);
 80a225e:	2300      	movs	r3, #0
 80a2260:	f884 3034 	strb.w	r3, [r4, #52]	@ 0x34
    status = HAL_ERROR;
 80a2264:	2001      	movs	r0, #1
}
 80a2266:	bd38      	pop	{r3, r4, r5, pc}
    hdma->State = HAL_DMA_STATE_BUSY;
 80a2268:	2002      	movs	r0, #2
 80a226a:	f884 0035 	strb.w	r0, [r4, #53]	@ 0x35
    hdma->ErrorCode = HAL_DMA_ERROR_NONE;
 80a226e:	2000      	movs	r0, #0
 80a2270:	6560      	str	r0, [r4, #84]	@ 0x54
    __HAL_DMA_DISABLE(hdma);
 80a2272:	6820      	ldr	r0, [r4, #0]
 80a2274:	4d92      	ldr	r5, [pc, #584]	@ (80a24c0 <HAL_DMA_Start_IT+0x28c>)
 80a2276:	42a8      	cmp	r0, r5
 80a2278:	d032      	beq.n	80a22e0 <HAL_DMA_Start_IT+0xac>
 80a227a:	3518      	adds	r5, #24
 80a227c:	42a8      	cmp	r0, r5
 80a227e:	d02f      	beq.n	80a22e0 <HAL_DMA_Start_IT+0xac>
 80a2280:	3518      	adds	r5, #24
 80a2282:	42a8      	cmp	r0, r5
 80a2284:	d02c      	beq.n	80a22e0 <HAL_DMA_Start_IT+0xac>
 80a2286:	3518      	adds	r5, #24
 80a2288:	42a8      	cmp	r0, r5
 80a228a:	d029      	beq.n	80a22e0 <HAL_DMA_Start_IT+0xac>
 80a228c:	3518      	adds	r5, #24
 80a228e:	42a8      	cmp	r0, r5
 80a2290:	d026      	beq.n	80a22e0 <HAL_DMA_Start_IT+0xac>
 80a2292:	3518      	adds	r5, #24
 80a2294:	42a8      	cmp	r0, r5
 80a2296:	d023      	beq.n	80a22e0 <HAL_DMA_Start_IT+0xac>
 80a2298:	3518      	adds	r5, #24
 80a229a:	42a8      	cmp	r0, r5
 80a229c:	d020      	beq.n	80a22e0 <HAL_DMA_Start_IT+0xac>
 80a229e:	3518      	adds	r5, #24
 80a22a0:	42a8      	cmp	r0, r5
 80a22a2:	d01d      	beq.n	80a22e0 <HAL_DMA_Start_IT+0xac>
 80a22a4:	f505 7556 	add.w	r5, r5, #856	@ 0x358
 80a22a8:	42a8      	cmp	r0, r5
 80a22aa:	d019      	beq.n	80a22e0 <HAL_DMA_Start_IT+0xac>
 80a22ac:	3518      	adds	r5, #24
 80a22ae:	42a8      	cmp	r0, r5
 80a22b0:	d016      	beq.n	80a22e0 <HAL_DMA_Start_IT+0xac>
 80a22b2:	3518      	adds	r5, #24
 80a22b4:	42a8      	cmp	r0, r5
 80a22b6:	d013      	beq.n	80a22e0 <HAL_DMA_Start_IT+0xac>
 80a22b8:	3518      	adds	r5, #24
 80a22ba:	42a8      	cmp	r0, r5
 80a22bc:	d010      	beq.n	80a22e0 <HAL_DMA_Start_IT+0xac>
 80a22be:	3518      	adds	r5, #24
 80a22c0:	42a8      	cmp	r0, r5
 80a22c2:	d00d      	beq.n	80a22e0 <HAL_DMA_Start_IT+0xac>
 80a22c4:	3518      	adds	r5, #24
 80a22c6:	42a8      	cmp	r0, r5
 80a22c8:	d00a      	beq.n	80a22e0 <HAL_DMA_Start_IT+0xac>
 80a22ca:	3518      	adds	r5, #24
 80a22cc:	42a8      	cmp	r0, r5
 80a22ce:	d007      	beq.n	80a22e0 <HAL_DMA_Start_IT+0xac>
 80a22d0:	3518      	adds	r5, #24
 80a22d2:	42a8      	cmp	r0, r5
 80a22d4:	d004      	beq.n	80a22e0 <HAL_DMA_Start_IT+0xac>
 80a22d6:	6805      	ldr	r5, [r0, #0]
 80a22d8:	f025 0501 	bic.w	r5, r5, #1
 80a22dc:	6005      	str	r5, [r0, #0]
 80a22de:	e003      	b.n	80a22e8 <HAL_DMA_Start_IT+0xb4>
 80a22e0:	6805      	ldr	r5, [r0, #0]
 80a22e2:	f025 0501 	bic.w	r5, r5, #1
 80a22e6:	6005      	str	r5, [r0, #0]
    DMA_SetConfig(hdma, SrcAddress, DstAddress, DataLength);
 80a22e8:	4620      	mov	r0, r4
 80a22ea:	f7ff fbd1 	bl	80a1a90 <DMA_SetConfig>
    if(IS_DMA_STREAM_INSTANCE(hdma->Instance) != 0U) /* DMA1 or DMA2 instance */
 80a22ee:	6823      	ldr	r3, [r4, #0]
 80a22f0:	4a73      	ldr	r2, [pc, #460]	@ (80a24c0 <HAL_DMA_Start_IT+0x28c>)
 80a22f2:	4293      	cmp	r3, r2
 80a22f4:	d03b      	beq.n	80a236e <HAL_DMA_Start_IT+0x13a>
 80a22f6:	3218      	adds	r2, #24
 80a22f8:	4293      	cmp	r3, r2
 80a22fa:	d038      	beq.n	80a236e <HAL_DMA_Start_IT+0x13a>
 80a22fc:	3218      	adds	r2, #24
 80a22fe:	4293      	cmp	r3, r2
 80a2300:	d035      	beq.n	80a236e <HAL_DMA_Start_IT+0x13a>
 80a2302:	3218      	adds	r2, #24
 80a2304:	4293      	cmp	r3, r2
 80a2306:	d032      	beq.n	80a236e <HAL_DMA_Start_IT+0x13a>
 80a2308:	3218      	adds	r2, #24
 80a230a:	4293      	cmp	r3, r2
 80a230c:	d02f      	beq.n	80a236e <HAL_DMA_Start_IT+0x13a>
 80a230e:	3218      	adds	r2, #24
 80a2310:	4293      	cmp	r3, r2
 80a2312:	d02c      	beq.n	80a236e <HAL_DMA_Start_IT+0x13a>
 80a2314:	3218      	adds	r2, #24
 80a2316:	4293      	cmp	r3, r2
 80a2318:	d029      	beq.n	80a236e <HAL_DMA_Start_IT+0x13a>
 80a231a:	3218      	adds	r2, #24
 80a231c:	4293      	cmp	r3, r2
 80a231e:	d026      	beq.n	80a236e <HAL_DMA_Start_IT+0x13a>
 80a2320:	f502 7256 	add.w	r2, r2, #856	@ 0x358
 80a2324:	4293      	cmp	r3, r2
 80a2326:	d022      	beq.n	80a236e <HAL_DMA_Start_IT+0x13a>
 80a2328:	3218      	adds	r2, #24
 80a232a:	4293      	cmp	r3, r2
 80a232c:	d01f      	beq.n	80a236e <HAL_DMA_Start_IT+0x13a>
 80a232e:	3218      	adds	r2, #24
 80a2330:	4293      	cmp	r3, r2
 80a2332:	d01c      	beq.n	80a236e <HAL_DMA_Start_IT+0x13a>
 80a2334:	3218      	adds	r2, #24
 80a2336:	4293      	cmp	r3, r2
 80a2338:	d019      	beq.n	80a236e <HAL_DMA_Start_IT+0x13a>
 80a233a:	3218      	adds	r2, #24
 80a233c:	4293      	cmp	r3, r2
 80a233e:	d016      	beq.n	80a236e <HAL_DMA_Start_IT+0x13a>
 80a2340:	3218      	adds	r2, #24
 80a2342:	4293      	cmp	r3, r2
 80a2344:	d013      	beq.n	80a236e <HAL_DMA_Start_IT+0x13a>
 80a2346:	3218      	adds	r2, #24
 80a2348:	4293      	cmp	r3, r2
 80a234a:	d010      	beq.n	80a236e <HAL_DMA_Start_IT+0x13a>
 80a234c:	3218      	adds	r2, #24
 80a234e:	4293      	cmp	r3, r2
 80a2350:	d00d      	beq.n	80a236e <HAL_DMA_Start_IT+0x13a>
      MODIFY_REG(((BDMA_Channel_TypeDef   *)hdma->Instance)->CCR, (BDMA_CCR_TCIE | BDMA_CCR_HTIE | BDMA_CCR_TEIE), (BDMA_CCR_TCIE | BDMA_CCR_TEIE));
 80a2352:	681a      	ldr	r2, [r3, #0]
 80a2354:	f022 020e 	bic.w	r2, r2, #14
 80a2358:	f042 020a 	orr.w	r2, r2, #10
 80a235c:	601a      	str	r2, [r3, #0]
      if(hdma->XferHalfCpltCallback != NULL)
 80a235e:	6c23      	ldr	r3, [r4, #64]	@ 0x40
 80a2360:	b193      	cbz	r3, 80a2388 <HAL_DMA_Start_IT+0x154>
        ((BDMA_Channel_TypeDef   *)hdma->Instance)->CCR  |= BDMA_CCR_HTIE;
 80a2362:	6822      	ldr	r2, [r4, #0]
 80a2364:	6813      	ldr	r3, [r2, #0]
 80a2366:	f043 0304 	orr.w	r3, r3, #4
 80a236a:	6013      	str	r3, [r2, #0]
 80a236c:	e00c      	b.n	80a2388 <HAL_DMA_Start_IT+0x154>
      MODIFY_REG(((DMA_Stream_TypeDef   *)hdma->Instance)->CR, (DMA_IT_TC | DMA_IT_TE | DMA_IT_DME | DMA_IT_HT), (DMA_IT_TC | DMA_IT_TE | DMA_IT_DME));
 80a236e:	681a      	ldr	r2, [r3, #0]
 80a2370:	f022 021e 	bic.w	r2, r2, #30
 80a2374:	f042 0216 	orr.w	r2, r2, #22
 80a2378:	601a      	str	r2, [r3, #0]
      if(hdma->XferHalfCpltCallback != NULL)
 80a237a:	6c23      	ldr	r3, [r4, #64]	@ 0x40
 80a237c:	b123      	cbz	r3, 80a2388 <HAL_DMA_Start_IT+0x154>
        ((DMA_Stream_TypeDef   *)hdma->Instance)->CR  |= DMA_IT_HT;
 80a237e:	6822      	ldr	r2, [r4, #0]
 80a2380:	6813      	ldr	r3, [r2, #0]
 80a2382:	f043 0308 	orr.w	r3, r3, #8
 80a2386:	6013      	str	r3, [r2, #0]
    if(IS_DMA_DMAMUX_ALL_INSTANCE(hdma->Instance) != 0U) /* No DMAMUX available for BDMA1 */
 80a2388:	6823      	ldr	r3, [r4, #0]
 80a238a:	4a4d      	ldr	r2, [pc, #308]	@ (80a24c0 <HAL_DMA_Start_IT+0x28c>)
 80a238c:	4293      	cmp	r3, r2
 80a238e:	d045      	beq.n	80a241c <HAL_DMA_Start_IT+0x1e8>
 80a2390:	3218      	adds	r2, #24
 80a2392:	4293      	cmp	r3, r2
 80a2394:	d042      	beq.n	80a241c <HAL_DMA_Start_IT+0x1e8>
 80a2396:	3218      	adds	r2, #24
 80a2398:	4293      	cmp	r3, r2
 80a239a:	d03f      	beq.n	80a241c <HAL_DMA_Start_IT+0x1e8>
 80a239c:	3218      	adds	r2, #24
 80a239e:	4293      	cmp	r3, r2
 80a23a0:	d03c      	beq.n	80a241c <HAL_DMA_Start_IT+0x1e8>
 80a23a2:	3218      	adds	r2, #24
 80a23a4:	4293      	cmp	r3, r2
 80a23a6:	d039      	beq.n	80a241c <HAL_DMA_Start_IT+0x1e8>
 80a23a8:	3218      	adds	r2, #24
 80a23aa:	4293      	cmp	r3, r2
 80a23ac:	d036      	beq.n	80a241c <HAL_DMA_Start_IT+0x1e8>
 80a23ae:	3218      	adds	r2, #24
 80a23b0:	4293      	cmp	r3, r2
 80a23b2:	d033      	beq.n	80a241c <HAL_DMA_Start_IT+0x1e8>
 80a23b4:	3218      	adds	r2, #24
 80a23b6:	4293      	cmp	r3, r2
 80a23b8:	d030      	beq.n	80a241c <HAL_DMA_Start_IT+0x1e8>
 80a23ba:	f502 7256 	add.w	r2, r2, #856	@ 0x358
 80a23be:	4293      	cmp	r3, r2
 80a23c0:	d02c      	beq.n	80a241c <HAL_DMA_Start_IT+0x1e8>
 80a23c2:	3218      	adds	r2, #24
 80a23c4:	4293      	cmp	r3, r2
 80a23c6:	d029      	beq.n	80a241c <HAL_DMA_Start_IT+0x1e8>
 80a23c8:	3218      	adds	r2, #24
 80a23ca:	4293      	cmp	r3, r2
 80a23cc:	d026      	beq.n	80a241c <HAL_DMA_Start_IT+0x1e8>
 80a23ce:	3218      	adds	r2, #24
 80a23d0:	4293      	cmp	r3, r2
 80a23d2:	d023      	beq.n	80a241c <HAL_DMA_Start_IT+0x1e8>
 80a23d4:	3218      	adds	r2, #24
 80a23d6:	4293      	cmp	r3, r2
 80a23d8:	d020      	beq.n	80a241c <HAL_DMA_Start_IT+0x1e8>
 80a23da:	3218      	adds	r2, #24
 80a23dc:	4293      	cmp	r3, r2
 80a23de:	d01d      	beq.n	80a241c <HAL_DMA_Start_IT+0x1e8>
 80a23e0:	3218      	adds	r2, #24
 80a23e2:	4293      	cmp	r3, r2
 80a23e4:	d01a      	beq.n	80a241c <HAL_DMA_Start_IT+0x1e8>
 80a23e6:	3218      	adds	r2, #24
 80a23e8:	4293      	cmp	r3, r2
 80a23ea:	d017      	beq.n	80a241c <HAL_DMA_Start_IT+0x1e8>
 80a23ec:	4a35      	ldr	r2, [pc, #212]	@ (80a24c4 <HAL_DMA_Start_IT+0x290>)
 80a23ee:	4293      	cmp	r3, r2
 80a23f0:	d014      	beq.n	80a241c <HAL_DMA_Start_IT+0x1e8>
 80a23f2:	3214      	adds	r2, #20
 80a23f4:	4293      	cmp	r3, r2
 80a23f6:	d011      	beq.n	80a241c <HAL_DMA_Start_IT+0x1e8>
 80a23f8:	3214      	adds	r2, #20
 80a23fa:	4293      	cmp	r3, r2
 80a23fc:	d00e      	beq.n	80a241c <HAL_DMA_Start_IT+0x1e8>
 80a23fe:	3214      	adds	r2, #20
 80a2400:	4293      	cmp	r3, r2
 80a2402:	d00b      	beq.n	80a241c <HAL_DMA_Start_IT+0x1e8>
 80a2404:	3214      	adds	r2, #20
 80a2406:	4293      	cmp	r3, r2
 80a2408:	d008      	beq.n	80a241c <HAL_DMA_Start_IT+0x1e8>
 80a240a:	3214      	adds	r2, #20
 80a240c:	4293      	cmp	r3, r2
 80a240e:	d005      	beq.n	80a241c <HAL_DMA_Start_IT+0x1e8>
 80a2410:	3214      	adds	r2, #20
 80a2412:	4293      	cmp	r3, r2
 80a2414:	d002      	beq.n	80a241c <HAL_DMA_Start_IT+0x1e8>
 80a2416:	3214      	adds	r2, #20
 80a2418:	4293      	cmp	r3, r2
 80a241a:	d10e      	bne.n	80a243a <HAL_DMA_Start_IT+0x206>
      if((hdma->DMAmuxChannel->CCR & DMAMUX_CxCR_SE) != 0U)
 80a241c:	6e23      	ldr	r3, [r4, #96]	@ 0x60
 80a241e:	681a      	ldr	r2, [r3, #0]
 80a2420:	f412 3f80 	tst.w	r2, #65536	@ 0x10000
 80a2424:	d003      	beq.n	80a242e <HAL_DMA_Start_IT+0x1fa>
        hdma->DMAmuxChannel->CCR |= DMAMUX_CxCR_SOIE;
 80a2426:	681a      	ldr	r2, [r3, #0]
 80a2428:	f442 7280 	orr.w	r2, r2, #256	@ 0x100
 80a242c:	601a      	str	r2, [r3, #0]
      if(hdma->DMAmuxRequestGen != 0U)
 80a242e:	6ee3      	ldr	r3, [r4, #108]	@ 0x6c
 80a2430:	b11b      	cbz	r3, 80a243a <HAL_DMA_Start_IT+0x206>
        hdma->DMAmuxRequestGen->RGCR |= DMAMUX_RGxCR_OIE;
 80a2432:	681a      	ldr	r2, [r3, #0]
 80a2434:	f442 7280 	orr.w	r2, r2, #256	@ 0x100
 80a2438:	601a      	str	r2, [r3, #0]
    __HAL_DMA_ENABLE(hdma);
 80a243a:	6823      	ldr	r3, [r4, #0]
 80a243c:	4a20      	ldr	r2, [pc, #128]	@ (80a24c0 <HAL_DMA_Start_IT+0x28c>)
 80a243e:	4293      	cmp	r3, r2
 80a2440:	d033      	beq.n	80a24aa <HAL_DMA_Start_IT+0x276>
 80a2442:	3218      	adds	r2, #24
 80a2444:	4293      	cmp	r3, r2
 80a2446:	d030      	beq.n	80a24aa <HAL_DMA_Start_IT+0x276>
 80a2448:	3218      	adds	r2, #24
 80a244a:	4293      	cmp	r3, r2
 80a244c:	d02d      	beq.n	80a24aa <HAL_DMA_Start_IT+0x276>
 80a244e:	3218      	adds	r2, #24
 80a2450:	4293      	cmp	r3, r2
 80a2452:	d02a      	beq.n	80a24aa <HAL_DMA_Start_IT+0x276>
 80a2454:	3218      	adds	r2, #24
 80a2456:	4293      	cmp	r3, r2
 80a2458:	d027      	beq.n	80a24aa <HAL_DMA_Start_IT+0x276>
 80a245a:	3218      	adds	r2, #24
 80a245c:	4293      	cmp	r3, r2
 80a245e:	d024      	beq.n	80a24aa <HAL_DMA_Start_IT+0x276>
 80a2460:	3218      	adds	r2, #24
 80a2462:	4293      	cmp	r3, r2
 80a2464:	d021      	beq.n	80a24aa <HAL_DMA_Start_IT+0x276>
 80a2466:	3218      	adds	r2, #24
 80a2468:	4293      	cmp	r3, r2
 80a246a:	d01e      	beq.n	80a24aa <HAL_DMA_Start_IT+0x276>
 80a246c:	f502 7256 	add.w	r2, r2, #856	@ 0x358
 80a2470:	4293      	cmp	r3, r2
 80a2472:	d01a      	beq.n	80a24aa <HAL_DMA_Start_IT+0x276>
 80a2474:	3218      	adds	r2, #24
 80a2476:	4293      	cmp	r3, r2
 80a2478:	d017      	beq.n	80a24aa <HAL_DMA_Start_IT+0x276>
 80a247a:	3218      	adds	r2, #24
 80a247c:	4293      	cmp	r3, r2
 80a247e:	d014      	beq.n	80a24aa <HAL_DMA_Start_IT+0x276>
 80a2480:	3218      	adds	r2, #24
 80a2482:	4293      	cmp	r3, r2
 80a2484:	d011      	beq.n	80a24aa <HAL_DMA_Start_IT+0x276>
 80a2486:	3218      	adds	r2, #24
 80a2488:	4293      	cmp	r3, r2
 80a248a:	d00e      	beq.n	80a24aa <HAL_DMA_Start_IT+0x276>
 80a248c:	3218      	adds	r2, #24
 80a248e:	4293      	cmp	r3, r2
 80a2490:	d00b      	beq.n	80a24aa <HAL_DMA_Start_IT+0x276>
 80a2492:	3218      	adds	r2, #24
 80a2494:	4293      	cmp	r3, r2
 80a2496:	d008      	beq.n	80a24aa <HAL_DMA_Start_IT+0x276>
 80a2498:	3218      	adds	r2, #24
 80a249a:	4293      	cmp	r3, r2
 80a249c:	d005      	beq.n	80a24aa <HAL_DMA_Start_IT+0x276>
 80a249e:	681a      	ldr	r2, [r3, #0]
 80a24a0:	f042 0201 	orr.w	r2, r2, #1
 80a24a4:	601a      	str	r2, [r3, #0]
  HAL_StatusTypeDef status = HAL_OK;
 80a24a6:	2000      	movs	r0, #0
 80a24a8:	e6dd      	b.n	80a2266 <HAL_DMA_Start_IT+0x32>
    __HAL_DMA_ENABLE(hdma);
 80a24aa:	681a      	ldr	r2, [r3, #0]
 80a24ac:	f042 0201 	orr.w	r2, r2, #1
 80a24b0:	601a      	str	r2, [r3, #0]
  HAL_StatusTypeDef status = HAL_OK;
 80a24b2:	2000      	movs	r0, #0
    __HAL_DMA_ENABLE(hdma);
 80a24b4:	e6d7      	b.n	80a2266 <HAL_DMA_Start_IT+0x32>
    return HAL_ERROR;
 80a24b6:	2001      	movs	r0, #1
}
 80a24b8:	4770      	bx	lr
  __HAL_LOCK(hdma);
 80a24ba:	2002      	movs	r0, #2
 80a24bc:	e6d3      	b.n	80a2266 <HAL_DMA_Start_IT+0x32>
 80a24be:	bf00      	nop
 80a24c0:	40020010 	.word	0x40020010
 80a24c4:	58025408 	.word	0x58025408

080a24c8 <HAL_DMA_Abort>:
{
 80a24c8:	b570      	push	{r4, r5, r6, lr}
 80a24ca:	4604      	mov	r4, r0
  uint32_t tickstart = HAL_GetTick();
 80a24cc:	f7ff fa52 	bl	80a1974 <HAL_GetTick>
  if(hdma == NULL)
 80a24d0:	2c00      	cmp	r4, #0
 80a24d2:	f000 818f 	beq.w	80a27f4 <HAL_DMA_Abort+0x32c>
 80a24d6:	4605      	mov	r5, r0
  if(hdma->State != HAL_DMA_STATE_BUSY)
 80a24d8:	f894 3035 	ldrb.w	r3, [r4, #53]	@ 0x35
 80a24dc:	b2db      	uxtb	r3, r3
 80a24de:	2b02      	cmp	r3, #2
 80a24e0:	d006      	beq.n	80a24f0 <HAL_DMA_Abort+0x28>
    hdma->ErrorCode = HAL_DMA_ERROR_NO_XFER;
 80a24e2:	2380      	movs	r3, #128	@ 0x80
 80a24e4:	6563      	str	r3, [r4, #84]	@ 0x54
    __HAL_UNLOCK(hdma);
 80a24e6:	2300      	movs	r3, #0
 80a24e8:	f884 3034 	strb.w	r3, [r4, #52]	@ 0x34
    return HAL_ERROR;
 80a24ec:	2001      	movs	r0, #1
}
 80a24ee:	bd70      	pop	{r4, r5, r6, pc}
    if(IS_DMA_STREAM_INSTANCE(hdma->Instance) != 0U) /* DMA1 or DMA2 instance */
 80a24f0:	6823      	ldr	r3, [r4, #0]
 80a24f2:	4a8c      	ldr	r2, [pc, #560]	@ (80a2724 <HAL_DMA_Abort+0x25c>)
 80a24f4:	4293      	cmp	r3, r2
 80a24f6:	d033      	beq.n	80a2560 <HAL_DMA_Abort+0x98>
 80a24f8:	3218      	adds	r2, #24
 80a24fa:	4293      	cmp	r3, r2
 80a24fc:	d030      	beq.n	80a2560 <HAL_DMA_Abort+0x98>
 80a24fe:	3218      	adds	r2, #24
 80a2500:	4293      	cmp	r3, r2
 80a2502:	d02d      	beq.n	80a2560 <HAL_DMA_Abort+0x98>
 80a2504:	3218      	adds	r2, #24
 80a2506:	4293      	cmp	r3, r2
 80a2508:	d02a      	beq.n	80a2560 <HAL_DMA_Abort+0x98>
 80a250a:	3218      	adds	r2, #24
 80a250c:	4293      	cmp	r3, r2
 80a250e:	d027      	beq.n	80a2560 <HAL_DMA_Abort+0x98>
 80a2510:	3218      	adds	r2, #24
 80a2512:	4293      	cmp	r3, r2
 80a2514:	d024      	beq.n	80a2560 <HAL_DMA_Abort+0x98>
 80a2516:	3218      	adds	r2, #24
 80a2518:	4293      	cmp	r3, r2
 80a251a:	d021      	beq.n	80a2560 <HAL_DMA_Abort+0x98>
 80a251c:	3218      	adds	r2, #24
 80a251e:	4293      	cmp	r3, r2
 80a2520:	d01e      	beq.n	80a2560 <HAL_DMA_Abort+0x98>
 80a2522:	f502 7256 	add.w	r2, r2, #856	@ 0x358
 80a2526:	4293      	cmp	r3, r2
 80a2528:	d01a      	beq.n	80a2560 <HAL_DMA_Abort+0x98>
 80a252a:	3218      	adds	r2, #24
 80a252c:	4293      	cmp	r3, r2
 80a252e:	d017      	beq.n	80a2560 <HAL_DMA_Abort+0x98>
 80a2530:	3218      	adds	r2, #24
 80a2532:	4293      	cmp	r3, r2
 80a2534:	d014      	beq.n	80a2560 <HAL_DMA_Abort+0x98>
 80a2536:	3218      	adds	r2, #24
 80a2538:	4293      	cmp	r3, r2
 80a253a:	d011      	beq.n	80a2560 <HAL_DMA_Abort+0x98>
 80a253c:	3218      	adds	r2, #24
 80a253e:	4293      	cmp	r3, r2
 80a2540:	d00e      	beq.n	80a2560 <HAL_DMA_Abort+0x98>
 80a2542:	3218      	adds	r2, #24
 80a2544:	4293      	cmp	r3, r2
 80a2546:	d00b      	beq.n	80a2560 <HAL_DMA_Abort+0x98>
 80a2548:	3218      	adds	r2, #24
 80a254a:	4293      	cmp	r3, r2
 80a254c:	d008      	beq.n	80a2560 <HAL_DMA_Abort+0x98>
 80a254e:	3218      	adds	r2, #24
 80a2550:	4293      	cmp	r3, r2
 80a2552:	d005      	beq.n	80a2560 <HAL_DMA_Abort+0x98>
      ((BDMA_Channel_TypeDef   *)hdma->Instance)->CCR  &= ~(BDMA_CCR_TCIE | BDMA_CCR_HTIE | BDMA_CCR_TEIE);
 80a2554:	681a      	ldr	r2, [r3, #0]
 80a2556:	f022 020e 	bic.w	r2, r2, #14
 80a255a:	601a      	str	r2, [r3, #0]
      enableRegister = (__IO uint32_t *)(&(((BDMA_Channel_TypeDef   *)hdma->Instance)->CCR));
 80a255c:	6826      	ldr	r6, [r4, #0]
 80a255e:	e009      	b.n	80a2574 <HAL_DMA_Abort+0xac>
      ((DMA_Stream_TypeDef   *)hdma->Instance)->CR  &= ~(DMA_IT_TC | DMA_IT_TE | DMA_IT_DME | DMA_IT_HT);
 80a2560:	681a      	ldr	r2, [r3, #0]
 80a2562:	f022 021e 	bic.w	r2, r2, #30
 80a2566:	601a      	str	r2, [r3, #0]
      ((DMA_Stream_TypeDef   *)hdma->Instance)->FCR &= ~(DMA_IT_FE);
 80a2568:	6822      	ldr	r2, [r4, #0]
 80a256a:	6953      	ldr	r3, [r2, #20]
 80a256c:	f023 0380 	bic.w	r3, r3, #128	@ 0x80
 80a2570:	6153      	str	r3, [r2, #20]
      enableRegister = (__IO uint32_t *)(&(((DMA_Stream_TypeDef   *)hdma->Instance)->CR));
 80a2572:	6826      	ldr	r6, [r4, #0]
    if(IS_DMA_DMAMUX_ALL_INSTANCE(hdma->Instance) != 0U) /* No DMAMUX available for BDMA1 */
 80a2574:	6823      	ldr	r3, [r4, #0]
 80a2576:	4a6b      	ldr	r2, [pc, #428]	@ (80a2724 <HAL_DMA_Abort+0x25c>)
 80a2578:	4293      	cmp	r3, r2
 80a257a:	d045      	beq.n	80a2608 <HAL_DMA_Abort+0x140>
 80a257c:	3218      	adds	r2, #24
 80a257e:	4293      	cmp	r3, r2
 80a2580:	d042      	beq.n	80a2608 <HAL_DMA_Abort+0x140>
 80a2582:	3218      	adds	r2, #24
 80a2584:	4293      	cmp	r3, r2
 80a2586:	d03f      	beq.n	80a2608 <HAL_DMA_Abort+0x140>
 80a2588:	3218      	adds	r2, #24
 80a258a:	4293      	cmp	r3, r2
 80a258c:	d03c      	beq.n	80a2608 <HAL_DMA_Abort+0x140>
 80a258e:	3218      	adds	r2, #24
 80a2590:	4293      	cmp	r3, r2
 80a2592:	d039      	beq.n	80a2608 <HAL_DMA_Abort+0x140>
 80a2594:	3218      	adds	r2, #24
 80a2596:	4293      	cmp	r3, r2
 80a2598:	d036      	beq.n	80a2608 <HAL_DMA_Abort+0x140>
 80a259a:	3218      	adds	r2, #24
 80a259c:	4293      	cmp	r3, r2
 80a259e:	d033      	beq.n	80a2608 <HAL_DMA_Abort+0x140>
 80a25a0:	3218      	adds	r2, #24
 80a25a2:	4293      	cmp	r3, r2
 80a25a4:	d030      	beq.n	80a2608 <HAL_DMA_Abort+0x140>
 80a25a6:	f502 7256 	add.w	r2, r2, #856	@ 0x358
 80a25aa:	4293      	cmp	r3, r2
 80a25ac:	d02c      	beq.n	80a2608 <HAL_DMA_Abort+0x140>
 80a25ae:	3218      	adds	r2, #24
 80a25b0:	4293      	cmp	r3, r2
 80a25b2:	d029      	beq.n	80a2608 <HAL_DMA_Abort+0x140>
 80a25b4:	3218      	adds	r2, #24
 80a25b6:	4293      	cmp	r3, r2
 80a25b8:	d026      	beq.n	80a2608 <HAL_DMA_Abort+0x140>
 80a25ba:	3218      	adds	r2, #24
 80a25bc:	4293      	cmp	r3, r2
 80a25be:	d023      	beq.n	80a2608 <HAL_DMA_Abort+0x140>
 80a25c0:	3218      	adds	r2, #24
 80a25c2:	4293      	cmp	r3, r2
 80a25c4:	d020      	beq.n	80a2608 <HAL_DMA_Abort+0x140>
 80a25c6:	3218      	adds	r2, #24
 80a25c8:	4293      	cmp	r3, r2
 80a25ca:	d01d      	beq.n	80a2608 <HAL_DMA_Abort+0x140>
 80a25cc:	3218      	adds	r2, #24
 80a25ce:	4293      	cmp	r3, r2
 80a25d0:	d01a      	beq.n	80a2608 <HAL_DMA_Abort+0x140>
 80a25d2:	3218      	adds	r2, #24
 80a25d4:	4293      	cmp	r3, r2
 80a25d6:	d017      	beq.n	80a2608 <HAL_DMA_Abort+0x140>
 80a25d8:	4a53      	ldr	r2, [pc, #332]	@ (80a2728 <HAL_DMA_Abort+0x260>)
 80a25da:	4293      	cmp	r3, r2
 80a25dc:	d014      	beq.n	80a2608 <HAL_DMA_Abort+0x140>
 80a25de:	3214      	adds	r2, #20
 80a25e0:	4293      	cmp	r3, r2
 80a25e2:	d011      	beq.n	80a2608 <HAL_DMA_Abort+0x140>
 80a25e4:	3214      	adds	r2, #20
 80a25e6:	4293      	cmp	r3, r2
 80a25e8:	d00e      	beq.n	80a2608 <HAL_DMA_Abort+0x140>
 80a25ea:	3214      	adds	r2, #20
 80a25ec:	4293      	cmp	r3, r2
 80a25ee:	d00b      	beq.n	80a2608 <HAL_DMA_Abort+0x140>
 80a25f0:	3214      	adds	r2, #20
 80a25f2:	4293      	cmp	r3, r2
 80a25f4:	d008      	beq.n	80a2608 <HAL_DMA_Abort+0x140>
 80a25f6:	3214      	adds	r2, #20
 80a25f8:	4293      	cmp	r3, r2
 80a25fa:	d005      	beq.n	80a2608 <HAL_DMA_Abort+0x140>
 80a25fc:	3214      	adds	r2, #20
 80a25fe:	4293      	cmp	r3, r2
 80a2600:	d002      	beq.n	80a2608 <HAL_DMA_Abort+0x140>
 80a2602:	3214      	adds	r2, #20
 80a2604:	4293      	cmp	r3, r2
 80a2606:	d104      	bne.n	80a2612 <HAL_DMA_Abort+0x14a>
      hdma->DMAmuxChannel->CCR &= ~DMAMUX_CxCR_SOIE;
 80a2608:	6e22      	ldr	r2, [r4, #96]	@ 0x60
 80a260a:	6813      	ldr	r3, [r2, #0]
 80a260c:	f423 7380 	bic.w	r3, r3, #256	@ 0x100
 80a2610:	6013      	str	r3, [r2, #0]
    __HAL_DMA_DISABLE(hdma);
 80a2612:	6823      	ldr	r3, [r4, #0]
 80a2614:	4a43      	ldr	r2, [pc, #268]	@ (80a2724 <HAL_DMA_Abort+0x25c>)
 80a2616:	4293      	cmp	r3, r2
 80a2618:	d032      	beq.n	80a2680 <HAL_DMA_Abort+0x1b8>
 80a261a:	3218      	adds	r2, #24
 80a261c:	4293      	cmp	r3, r2
 80a261e:	d02f      	beq.n	80a2680 <HAL_DMA_Abort+0x1b8>
 80a2620:	3218      	adds	r2, #24
 80a2622:	4293      	cmp	r3, r2
 80a2624:	d02c      	beq.n	80a2680 <HAL_DMA_Abort+0x1b8>
 80a2626:	3218      	adds	r2, #24
 80a2628:	4293      	cmp	r3, r2
 80a262a:	d029      	beq.n	80a2680 <HAL_DMA_Abort+0x1b8>
 80a262c:	3218      	adds	r2, #24
 80a262e:	4293      	cmp	r3, r2
 80a2630:	d026      	beq.n	80a2680 <HAL_DMA_Abort+0x1b8>
 80a2632:	3218      	adds	r2, #24
 80a2634:	4293      	cmp	r3, r2
 80a2636:	d023      	beq.n	80a2680 <HAL_DMA_Abort+0x1b8>
 80a2638:	3218      	adds	r2, #24
 80a263a:	4293      	cmp	r3, r2
 80a263c:	d020      	beq.n	80a2680 <HAL_DMA_Abort+0x1b8>
 80a263e:	3218      	adds	r2, #24
 80a2640:	4293      	cmp	r3, r2
 80a2642:	d01d      	beq.n	80a2680 <HAL_DMA_Abort+0x1b8>
 80a2644:	f502 7256 	add.w	r2, r2, #856	@ 0x358
 80a2648:	4293      	cmp	r3, r2
 80a264a:	d019      	beq.n	80a2680 <HAL_DMA_Abort+0x1b8>
 80a264c:	3218      	adds	r2, #24
 80a264e:	4293      	cmp	r3, r2
 80a2650:	d016      	beq.n	80a2680 <HAL_DMA_Abort+0x1b8>
 80a2652:	3218      	adds	r2, #24
 80a2654:	4293      	cmp	r3, r2
 80a2656:	d013      	beq.n	80a2680 <HAL_DMA_Abort+0x1b8>
 80a2658:	3218      	adds	r2, #24
 80a265a:	4293      	cmp	r3, r2
 80a265c:	d010      	beq.n	80a2680 <HAL_DMA_Abort+0x1b8>
 80a265e:	3218      	adds	r2, #24
 80a2660:	4293      	cmp	r3, r2
 80a2662:	d00d      	beq.n	80a2680 <HAL_DMA_Abort+0x1b8>
 80a2664:	3218      	adds	r2, #24
 80a2666:	4293      	cmp	r3, r2
 80a2668:	d00a      	beq.n	80a2680 <HAL_DMA_Abort+0x1b8>
 80a266a:	3218      	adds	r2, #24
 80a266c:	4293      	cmp	r3, r2
 80a266e:	d007      	beq.n	80a2680 <HAL_DMA_Abort+0x1b8>
 80a2670:	3218      	adds	r2, #24
 80a2672:	4293      	cmp	r3, r2
 80a2674:	d004      	beq.n	80a2680 <HAL_DMA_Abort+0x1b8>
 80a2676:	681a      	ldr	r2, [r3, #0]
 80a2678:	f022 0201 	bic.w	r2, r2, #1
 80a267c:	601a      	str	r2, [r3, #0]
 80a267e:	e003      	b.n	80a2688 <HAL_DMA_Abort+0x1c0>
 80a2680:	681a      	ldr	r2, [r3, #0]
 80a2682:	f022 0201 	bic.w	r2, r2, #1
 80a2686:	601a      	str	r2, [r3, #0]
    while(((*enableRegister) & DMA_SxCR_EN) != 0U)
 80a2688:	6833      	ldr	r3, [r6, #0]
 80a268a:	f013 0f01 	tst.w	r3, #1
 80a268e:	d00e      	beq.n	80a26ae <HAL_DMA_Abort+0x1e6>
      if((HAL_GetTick() - tickstart ) > HAL_TIMEOUT_DMA_ABORT)
 80a2690:	f7ff f970 	bl	80a1974 <HAL_GetTick>
 80a2694:	1b43      	subs	r3, r0, r5
 80a2696:	2b05      	cmp	r3, #5
 80a2698:	d9f6      	bls.n	80a2688 <HAL_DMA_Abort+0x1c0>
        hdma->ErrorCode = HAL_DMA_ERROR_TIMEOUT;
 80a269a:	2320      	movs	r3, #32
 80a269c:	6563      	str	r3, [r4, #84]	@ 0x54
        hdma->State = HAL_DMA_STATE_ERROR;
 80a269e:	2303      	movs	r3, #3
 80a26a0:	f884 3035 	strb.w	r3, [r4, #53]	@ 0x35
        __HAL_UNLOCK(hdma);
 80a26a4:	2300      	movs	r3, #0
 80a26a6:	f884 3034 	strb.w	r3, [r4, #52]	@ 0x34
        return HAL_ERROR;
 80a26aa:	2001      	movs	r0, #1
 80a26ac:	e71f      	b.n	80a24ee <HAL_DMA_Abort+0x26>
    if(IS_DMA_STREAM_INSTANCE(hdma->Instance) != 0U) /* DMA1 or DMA2 instance */
 80a26ae:	6823      	ldr	r3, [r4, #0]
 80a26b0:	4a1c      	ldr	r2, [pc, #112]	@ (80a2724 <HAL_DMA_Abort+0x25c>)
 80a26b2:	4293      	cmp	r3, r2
 80a26b4:	d03a      	beq.n	80a272c <HAL_DMA_Abort+0x264>
 80a26b6:	3218      	adds	r2, #24
 80a26b8:	4293      	cmp	r3, r2
 80a26ba:	d037      	beq.n	80a272c <HAL_DMA_Abort+0x264>
 80a26bc:	3218      	adds	r2, #24
 80a26be:	4293      	cmp	r3, r2
 80a26c0:	d034      	beq.n	80a272c <HAL_DMA_Abort+0x264>
 80a26c2:	3218      	adds	r2, #24
 80a26c4:	4293      	cmp	r3, r2
 80a26c6:	d031      	beq.n	80a272c <HAL_DMA_Abort+0x264>
 80a26c8:	3218      	adds	r2, #24
 80a26ca:	4293      	cmp	r3, r2
 80a26cc:	d02e      	beq.n	80a272c <HAL_DMA_Abort+0x264>
 80a26ce:	3218      	adds	r2, #24
 80a26d0:	4293      	cmp	r3, r2
 80a26d2:	d02b      	beq.n	80a272c <HAL_DMA_Abort+0x264>
 80a26d4:	3218      	adds	r2, #24
 80a26d6:	4293      	cmp	r3, r2
 80a26d8:	d028      	beq.n	80a272c <HAL_DMA_Abort+0x264>
 80a26da:	3218      	adds	r2, #24
 80a26dc:	4293      	cmp	r3, r2
 80a26de:	d025      	beq.n	80a272c <HAL_DMA_Abort+0x264>
 80a26e0:	f502 7256 	add.w	r2, r2, #856	@ 0x358
 80a26e4:	4293      	cmp	r3, r2
 80a26e6:	d021      	beq.n	80a272c <HAL_DMA_Abort+0x264>
 80a26e8:	3218      	adds	r2, #24
 80a26ea:	4293      	cmp	r3, r2
 80a26ec:	d01e      	beq.n	80a272c <HAL_DMA_Abort+0x264>
 80a26ee:	3218      	adds	r2, #24
 80a26f0:	4293      	cmp	r3, r2
 80a26f2:	d01b      	beq.n	80a272c <HAL_DMA_Abort+0x264>
 80a26f4:	3218      	adds	r2, #24
 80a26f6:	4293      	cmp	r3, r2
 80a26f8:	d018      	beq.n	80a272c <HAL_DMA_Abort+0x264>
 80a26fa:	3218      	adds	r2, #24
 80a26fc:	4293      	cmp	r3, r2
 80a26fe:	d015      	beq.n	80a272c <HAL_DMA_Abort+0x264>
 80a2700:	3218      	adds	r2, #24
 80a2702:	4293      	cmp	r3, r2
 80a2704:	d012      	beq.n	80a272c <HAL_DMA_Abort+0x264>
 80a2706:	3218      	adds	r2, #24
 80a2708:	4293      	cmp	r3, r2
 80a270a:	d00f      	beq.n	80a272c <HAL_DMA_Abort+0x264>
 80a270c:	3218      	adds	r2, #24
 80a270e:	4293      	cmp	r3, r2
 80a2710:	d00c      	beq.n	80a272c <HAL_DMA_Abort+0x264>
      regs_bdma = (BDMA_Base_Registers *)hdma->StreamBaseAddress;
 80a2712:	6da1      	ldr	r1, [r4, #88]	@ 0x58
      regs_bdma->IFCR = ((BDMA_IFCR_CGIF0) << (hdma->StreamIndex & 0x1FU));
 80a2714:	6de3      	ldr	r3, [r4, #92]	@ 0x5c
 80a2716:	f003 021f 	and.w	r2, r3, #31
 80a271a:	2301      	movs	r3, #1
 80a271c:	4093      	lsls	r3, r2
 80a271e:	604b      	str	r3, [r1, #4]
 80a2720:	e00b      	b.n	80a273a <HAL_DMA_Abort+0x272>
 80a2722:	bf00      	nop
 80a2724:	40020010 	.word	0x40020010
 80a2728:	58025408 	.word	0x58025408
      regs_dma = (DMA_Base_Registers *)hdma->StreamBaseAddress;
 80a272c:	6da1      	ldr	r1, [r4, #88]	@ 0x58
      regs_dma->IFCR = 0x3FUL << (hdma->StreamIndex & 0x1FU);
 80a272e:	6de3      	ldr	r3, [r4, #92]	@ 0x5c
 80a2730:	f003 021f 	and.w	r2, r3, #31
 80a2734:	233f      	movs	r3, #63	@ 0x3f
 80a2736:	4093      	lsls	r3, r2
 80a2738:	608b      	str	r3, [r1, #8]
    if(IS_DMA_DMAMUX_ALL_INSTANCE(hdma->Instance) != 0U) /* No DMAMUX available for BDMA1 */
 80a273a:	6823      	ldr	r3, [r4, #0]
 80a273c:	4a2e      	ldr	r2, [pc, #184]	@ (80a27f8 <HAL_DMA_Abort+0x330>)
 80a273e:	4293      	cmp	r3, r2
 80a2740:	d045      	beq.n	80a27ce <HAL_DMA_Abort+0x306>
 80a2742:	3218      	adds	r2, #24
 80a2744:	4293      	cmp	r3, r2
 80a2746:	d042      	beq.n	80a27ce <HAL_DMA_Abort+0x306>
 80a2748:	3218      	adds	r2, #24
 80a274a:	4293      	cmp	r3, r2
 80a274c:	d03f      	beq.n	80a27ce <HAL_DMA_Abort+0x306>
 80a274e:	3218      	adds	r2, #24
 80a2750:	4293      	cmp	r3, r2
 80a2752:	d03c      	beq.n	80a27ce <HAL_DMA_Abort+0x306>
 80a2754:	3218      	adds	r2, #24
 80a2756:	4293      	cmp	r3, r2
 80a2758:	d039      	beq.n	80a27ce <HAL_DMA_Abort+0x306>
 80a275a:	3218      	adds	r2, #24
 80a275c:	4293      	cmp	r3, r2
 80a275e:	d036      	beq.n	80a27ce <HAL_DMA_Abort+0x306>
 80a2760:	3218      	adds	r2, #24
 80a2762:	4293      	cmp	r3, r2
 80a2764:	d033      	beq.n	80a27ce <HAL_DMA_Abort+0x306>
 80a2766:	3218      	adds	r2, #24
 80a2768:	4293      	cmp	r3, r2
 80a276a:	d030      	beq.n	80a27ce <HAL_DMA_Abort+0x306>
 80a276c:	f502 7256 	add.w	r2, r2, #856	@ 0x358
 80a2770:	4293      	cmp	r3, r2
 80a2772:	d02c      	beq.n	80a27ce <HAL_DMA_Abort+0x306>
 80a2774:	3218      	adds	r2, #24
 80a2776:	4293      	cmp	r3, r2
 80a2778:	d029      	beq.n	80a27ce <HAL_DMA_Abort+0x306>
 80a277a:	3218      	adds	r2, #24
 80a277c:	4293      	cmp	r3, r2
 80a277e:	d026      	beq.n	80a27ce <HAL_DMA_Abort+0x306>
 80a2780:	3218      	adds	r2, #24
 80a2782:	4293      	cmp	r3, r2
 80a2784:	d023      	beq.n	80a27ce <HAL_DMA_Abort+0x306>
 80a2786:	3218      	adds	r2, #24
 80a2788:	4293      	cmp	r3, r2
 80a278a:	d020      	beq.n	80a27ce <HAL_DMA_Abort+0x306>
 80a278c:	3218      	adds	r2, #24
 80a278e:	4293      	cmp	r3, r2
 80a2790:	d01d      	beq.n	80a27ce <HAL_DMA_Abort+0x306>
 80a2792:	3218      	adds	r2, #24
 80a2794:	4293      	cmp	r3, r2
 80a2796:	d01a      	beq.n	80a27ce <HAL_DMA_Abort+0x306>
 80a2798:	3218      	adds	r2, #24
 80a279a:	4293      	cmp	r3, r2
 80a279c:	d017      	beq.n	80a27ce <HAL_DMA_Abort+0x306>
 80a279e:	4a17      	ldr	r2, [pc, #92]	@ (80a27fc <HAL_DMA_Abort+0x334>)
 80a27a0:	4293      	cmp	r3, r2
 80a27a2:	d014      	beq.n	80a27ce <HAL_DMA_Abort+0x306>
 80a27a4:	3214      	adds	r2, #20
 80a27a6:	4293      	cmp	r3, r2
 80a27a8:	d011      	beq.n	80a27ce <HAL_DMA_Abort+0x306>
 80a27aa:	3214      	adds	r2, #20
 80a27ac:	4293      	cmp	r3, r2
 80a27ae:	d00e      	beq.n	80a27ce <HAL_DMA_Abort+0x306>
 80a27b0:	3214      	adds	r2, #20
 80a27b2:	4293      	cmp	r3, r2
 80a27b4:	d00b      	beq.n	80a27ce <HAL_DMA_Abort+0x306>
 80a27b6:	3214      	adds	r2, #20
 80a27b8:	4293      	cmp	r3, r2
 80a27ba:	d008      	beq.n	80a27ce <HAL_DMA_Abort+0x306>
 80a27bc:	3214      	adds	r2, #20
 80a27be:	4293      	cmp	r3, r2
 80a27c0:	d005      	beq.n	80a27ce <HAL_DMA_Abort+0x306>
 80a27c2:	3214      	adds	r2, #20
 80a27c4:	4293      	cmp	r3, r2
 80a27c6:	d002      	beq.n	80a27ce <HAL_DMA_Abort+0x306>
 80a27c8:	3214      	adds	r2, #20
 80a27ca:	4293      	cmp	r3, r2
 80a27cc:	d10b      	bne.n	80a27e6 <HAL_DMA_Abort+0x31e>
      hdma->DMAmuxChannelStatus->CFR = hdma->DMAmuxChannelStatusMask;
 80a27ce:	6e63      	ldr	r3, [r4, #100]	@ 0x64
 80a27d0:	6ea2      	ldr	r2, [r4, #104]	@ 0x68
 80a27d2:	605a      	str	r2, [r3, #4]
      if(hdma->DMAmuxRequestGen != 0U)
 80a27d4:	6ee3      	ldr	r3, [r4, #108]	@ 0x6c
 80a27d6:	b133      	cbz	r3, 80a27e6 <HAL_DMA_Abort+0x31e>
        hdma->DMAmuxRequestGen->RGCR &= ~DMAMUX_RGxCR_OIE;
 80a27d8:	681a      	ldr	r2, [r3, #0]
 80a27da:	f422 7280 	bic.w	r2, r2, #256	@ 0x100
 80a27de:	601a      	str	r2, [r3, #0]
        hdma->DMAmuxRequestGenStatus->RGCFR = hdma->DMAmuxRequestGenStatusMask;
 80a27e0:	6f23      	ldr	r3, [r4, #112]	@ 0x70
 80a27e2:	6f62      	ldr	r2, [r4, #116]	@ 0x74
 80a27e4:	605a      	str	r2, [r3, #4]
    hdma->State = HAL_DMA_STATE_READY;
 80a27e6:	2301      	movs	r3, #1
 80a27e8:	f884 3035 	strb.w	r3, [r4, #53]	@ 0x35
    __HAL_UNLOCK(hdma);
 80a27ec:	2000      	movs	r0, #0
 80a27ee:	f884 0034 	strb.w	r0, [r4, #52]	@ 0x34
  return HAL_OK;
 80a27f2:	e67c      	b.n	80a24ee <HAL_DMA_Abort+0x26>
    return HAL_ERROR;
 80a27f4:	2001      	movs	r0, #1
 80a27f6:	e67a      	b.n	80a24ee <HAL_DMA_Abort+0x26>
 80a27f8:	40020010 	.word	0x40020010
 80a27fc:	58025408 	.word	0x58025408

080a2800 <HAL_DMA_Abort_IT>:
  if(hdma == NULL)
 80a2800:	2800      	cmp	r0, #0
 80a2802:	f000 812a 	beq.w	80a2a5a <HAL_DMA_Abort_IT+0x25a>
{
 80a2806:	b508      	push	{r3, lr}
 80a2808:	4602      	mov	r2, r0
  if(hdma->State != HAL_DMA_STATE_BUSY)
 80a280a:	f890 3035 	ldrb.w	r3, [r0, #53]	@ 0x35
 80a280e:	b2db      	uxtb	r3, r3
 80a2810:	2b02      	cmp	r3, #2
 80a2812:	d003      	beq.n	80a281c <HAL_DMA_Abort_IT+0x1c>
    hdma->ErrorCode = HAL_DMA_ERROR_NO_XFER;
 80a2814:	2380      	movs	r3, #128	@ 0x80
 80a2816:	6543      	str	r3, [r0, #84]	@ 0x54
    return HAL_ERROR;
 80a2818:	2001      	movs	r0, #1
}
 80a281a:	bd08      	pop	{r3, pc}
    if(IS_DMA_STREAM_INSTANCE(hdma->Instance) != 0U) /* DMA1 or DMA2 instance */
 80a281c:	6803      	ldr	r3, [r0, #0]
 80a281e:	4991      	ldr	r1, [pc, #580]	@ (80a2a64 <HAL_DMA_Abort_IT+0x264>)
 80a2820:	428b      	cmp	r3, r1
 80a2822:	d068      	beq.n	80a28f6 <HAL_DMA_Abort_IT+0xf6>
 80a2824:	3118      	adds	r1, #24
 80a2826:	428b      	cmp	r3, r1
 80a2828:	d065      	beq.n	80a28f6 <HAL_DMA_Abort_IT+0xf6>
 80a282a:	3118      	adds	r1, #24
 80a282c:	428b      	cmp	r3, r1
 80a282e:	d062      	beq.n	80a28f6 <HAL_DMA_Abort_IT+0xf6>
 80a2830:	3118      	adds	r1, #24
 80a2832:	428b      	cmp	r3, r1
 80a2834:	d05f      	beq.n	80a28f6 <HAL_DMA_Abort_IT+0xf6>
 80a2836:	3118      	adds	r1, #24
 80a2838:	428b      	cmp	r3, r1
 80a283a:	d05c      	beq.n	80a28f6 <HAL_DMA_Abort_IT+0xf6>
 80a283c:	3118      	adds	r1, #24
 80a283e:	428b      	cmp	r3, r1
 80a2840:	d059      	beq.n	80a28f6 <HAL_DMA_Abort_IT+0xf6>
 80a2842:	3118      	adds	r1, #24
 80a2844:	428b      	cmp	r3, r1
 80a2846:	d056      	beq.n	80a28f6 <HAL_DMA_Abort_IT+0xf6>
 80a2848:	3118      	adds	r1, #24
 80a284a:	428b      	cmp	r3, r1
 80a284c:	d053      	beq.n	80a28f6 <HAL_DMA_Abort_IT+0xf6>
 80a284e:	f501 7156 	add.w	r1, r1, #856	@ 0x358
 80a2852:	428b      	cmp	r3, r1
 80a2854:	d04f      	beq.n	80a28f6 <HAL_DMA_Abort_IT+0xf6>
 80a2856:	3118      	adds	r1, #24
 80a2858:	428b      	cmp	r3, r1
 80a285a:	d04c      	beq.n	80a28f6 <HAL_DMA_Abort_IT+0xf6>
 80a285c:	3118      	adds	r1, #24
 80a285e:	428b      	cmp	r3, r1
 80a2860:	d049      	beq.n	80a28f6 <HAL_DMA_Abort_IT+0xf6>
 80a2862:	3118      	adds	r1, #24
 80a2864:	428b      	cmp	r3, r1
 80a2866:	d046      	beq.n	80a28f6 <HAL_DMA_Abort_IT+0xf6>
 80a2868:	3118      	adds	r1, #24
 80a286a:	428b      	cmp	r3, r1
 80a286c:	d043      	beq.n	80a28f6 <HAL_DMA_Abort_IT+0xf6>
 80a286e:	3118      	adds	r1, #24
 80a2870:	428b      	cmp	r3, r1
 80a2872:	d040      	beq.n	80a28f6 <HAL_DMA_Abort_IT+0xf6>
 80a2874:	3118      	adds	r1, #24
 80a2876:	428b      	cmp	r3, r1
 80a2878:	d03d      	beq.n	80a28f6 <HAL_DMA_Abort_IT+0xf6>
 80a287a:	3118      	adds	r1, #24
 80a287c:	428b      	cmp	r3, r1
 80a287e:	d03a      	beq.n	80a28f6 <HAL_DMA_Abort_IT+0xf6>
      ((BDMA_Channel_TypeDef   *)hdma->Instance)->CCR  &= ~(BDMA_CCR_TCIE | BDMA_CCR_HTIE | BDMA_CCR_TEIE);
 80a2880:	6819      	ldr	r1, [r3, #0]
 80a2882:	f021 010e 	bic.w	r1, r1, #14
 80a2886:	6019      	str	r1, [r3, #0]
      __HAL_DMA_DISABLE(hdma);
 80a2888:	6803      	ldr	r3, [r0, #0]
 80a288a:	4976      	ldr	r1, [pc, #472]	@ (80a2a64 <HAL_DMA_Abort_IT+0x264>)
 80a288c:	428b      	cmp	r3, r1
 80a288e:	d072      	beq.n	80a2976 <HAL_DMA_Abort_IT+0x176>
 80a2890:	4975      	ldr	r1, [pc, #468]	@ (80a2a68 <HAL_DMA_Abort_IT+0x268>)
 80a2892:	428b      	cmp	r3, r1
 80a2894:	d06f      	beq.n	80a2976 <HAL_DMA_Abort_IT+0x176>
 80a2896:	3118      	adds	r1, #24
 80a2898:	428b      	cmp	r3, r1
 80a289a:	d06c      	beq.n	80a2976 <HAL_DMA_Abort_IT+0x176>
 80a289c:	3118      	adds	r1, #24
 80a289e:	428b      	cmp	r3, r1
 80a28a0:	d069      	beq.n	80a2976 <HAL_DMA_Abort_IT+0x176>
 80a28a2:	3118      	adds	r1, #24
 80a28a4:	428b      	cmp	r3, r1
 80a28a6:	d066      	beq.n	80a2976 <HAL_DMA_Abort_IT+0x176>
 80a28a8:	3118      	adds	r1, #24
 80a28aa:	428b      	cmp	r3, r1
 80a28ac:	d063      	beq.n	80a2976 <HAL_DMA_Abort_IT+0x176>
 80a28ae:	3118      	adds	r1, #24
 80a28b0:	428b      	cmp	r3, r1
 80a28b2:	d060      	beq.n	80a2976 <HAL_DMA_Abort_IT+0x176>
 80a28b4:	3118      	adds	r1, #24
 80a28b6:	428b      	cmp	r3, r1
 80a28b8:	d05d      	beq.n	80a2976 <HAL_DMA_Abort_IT+0x176>
 80a28ba:	f501 7156 	add.w	r1, r1, #856	@ 0x358
 80a28be:	428b      	cmp	r3, r1
 80a28c0:	d059      	beq.n	80a2976 <HAL_DMA_Abort_IT+0x176>
 80a28c2:	3118      	adds	r1, #24
 80a28c4:	428b      	cmp	r3, r1
 80a28c6:	d056      	beq.n	80a2976 <HAL_DMA_Abort_IT+0x176>
 80a28c8:	3118      	adds	r1, #24
 80a28ca:	428b      	cmp	r3, r1
 80a28cc:	d053      	beq.n	80a2976 <HAL_DMA_Abort_IT+0x176>
 80a28ce:	3118      	adds	r1, #24
 80a28d0:	428b      	cmp	r3, r1
 80a28d2:	d050      	beq.n	80a2976 <HAL_DMA_Abort_IT+0x176>
 80a28d4:	3118      	adds	r1, #24
 80a28d6:	428b      	cmp	r3, r1
 80a28d8:	d04d      	beq.n	80a2976 <HAL_DMA_Abort_IT+0x176>
 80a28da:	3118      	adds	r1, #24
 80a28dc:	428b      	cmp	r3, r1
 80a28de:	d04a      	beq.n	80a2976 <HAL_DMA_Abort_IT+0x176>
 80a28e0:	3118      	adds	r1, #24
 80a28e2:	428b      	cmp	r3, r1
 80a28e4:	d047      	beq.n	80a2976 <HAL_DMA_Abort_IT+0x176>
 80a28e6:	3118      	adds	r1, #24
 80a28e8:	428b      	cmp	r3, r1
 80a28ea:	d044      	beq.n	80a2976 <HAL_DMA_Abort_IT+0x176>
 80a28ec:	6819      	ldr	r1, [r3, #0]
 80a28ee:	f021 0101 	bic.w	r1, r1, #1
 80a28f2:	6019      	str	r1, [r3, #0]
 80a28f4:	e043      	b.n	80a297e <HAL_DMA_Abort_IT+0x17e>
      hdma->State = HAL_DMA_STATE_ABORT;
 80a28f6:	2104      	movs	r1, #4
 80a28f8:	f882 1035 	strb.w	r1, [r2, #53]	@ 0x35
      __HAL_DMA_DISABLE(hdma);
 80a28fc:	4a59      	ldr	r2, [pc, #356]	@ (80a2a64 <HAL_DMA_Abort_IT+0x264>)
 80a28fe:	4293      	cmp	r3, r2
 80a2900:	d033      	beq.n	80a296a <HAL_DMA_Abort_IT+0x16a>
 80a2902:	3218      	adds	r2, #24
 80a2904:	4293      	cmp	r3, r2
 80a2906:	d030      	beq.n	80a296a <HAL_DMA_Abort_IT+0x16a>
 80a2908:	3218      	adds	r2, #24
 80a290a:	4293      	cmp	r3, r2
 80a290c:	d02d      	beq.n	80a296a <HAL_DMA_Abort_IT+0x16a>
 80a290e:	3218      	adds	r2, #24
 80a2910:	4293      	cmp	r3, r2
 80a2912:	d02a      	beq.n	80a296a <HAL_DMA_Abort_IT+0x16a>
 80a2914:	3218      	adds	r2, #24
 80a2916:	4293      	cmp	r3, r2
 80a2918:	d027      	beq.n	80a296a <HAL_DMA_Abort_IT+0x16a>
 80a291a:	3218      	adds	r2, #24
 80a291c:	4293      	cmp	r3, r2
 80a291e:	d024      	beq.n	80a296a <HAL_DMA_Abort_IT+0x16a>
 80a2920:	3218      	adds	r2, #24
 80a2922:	4293      	cmp	r3, r2
 80a2924:	d021      	beq.n	80a296a <HAL_DMA_Abort_IT+0x16a>
 80a2926:	3218      	adds	r2, #24
 80a2928:	4293      	cmp	r3, r2
 80a292a:	d01e      	beq.n	80a296a <HAL_DMA_Abort_IT+0x16a>
 80a292c:	f502 7256 	add.w	r2, r2, #856	@ 0x358
 80a2930:	4293      	cmp	r3, r2
 80a2932:	d01a      	beq.n	80a296a <HAL_DMA_Abort_IT+0x16a>
 80a2934:	3218      	adds	r2, #24
 80a2936:	4293      	cmp	r3, r2
 80a2938:	d017      	beq.n	80a296a <HAL_DMA_Abort_IT+0x16a>
 80a293a:	3218      	adds	r2, #24
 80a293c:	4293      	cmp	r3, r2
 80a293e:	d014      	beq.n	80a296a <HAL_DMA_Abort_IT+0x16a>
 80a2940:	3218      	adds	r2, #24
 80a2942:	4293      	cmp	r3, r2
 80a2944:	d011      	beq.n	80a296a <HAL_DMA_Abort_IT+0x16a>
 80a2946:	3218      	adds	r2, #24
 80a2948:	4293      	cmp	r3, r2
 80a294a:	d00e      	beq.n	80a296a <HAL_DMA_Abort_IT+0x16a>
 80a294c:	3218      	adds	r2, #24
 80a294e:	4293      	cmp	r3, r2
 80a2950:	d00b      	beq.n	80a296a <HAL_DMA_Abort_IT+0x16a>
 80a2952:	3218      	adds	r2, #24
 80a2954:	4293      	cmp	r3, r2
 80a2956:	d008      	beq.n	80a296a <HAL_DMA_Abort_IT+0x16a>
 80a2958:	3218      	adds	r2, #24
 80a295a:	4293      	cmp	r3, r2
 80a295c:	d005      	beq.n	80a296a <HAL_DMA_Abort_IT+0x16a>
 80a295e:	681a      	ldr	r2, [r3, #0]
 80a2960:	f022 0201 	bic.w	r2, r2, #1
 80a2964:	601a      	str	r2, [r3, #0]
  return HAL_OK;
 80a2966:	2000      	movs	r0, #0
 80a2968:	e757      	b.n	80a281a <HAL_DMA_Abort_IT+0x1a>
      __HAL_DMA_DISABLE(hdma);
 80a296a:	681a      	ldr	r2, [r3, #0]
 80a296c:	f022 0201 	bic.w	r2, r2, #1
 80a2970:	601a      	str	r2, [r3, #0]
  return HAL_OK;
 80a2972:	2000      	movs	r0, #0
      __HAL_DMA_DISABLE(hdma);
 80a2974:	e751      	b.n	80a281a <HAL_DMA_Abort_IT+0x1a>
      __HAL_DMA_DISABLE(hdma);
 80a2976:	6819      	ldr	r1, [r3, #0]
 80a2978:	f021 0101 	bic.w	r1, r1, #1
 80a297c:	6019      	str	r1, [r3, #0]
      if(IS_DMA_DMAMUX_ALL_INSTANCE(hdma->Instance) != 0U) /* No DMAMUX available for BDMA1 */
 80a297e:	6813      	ldr	r3, [r2, #0]
 80a2980:	4938      	ldr	r1, [pc, #224]	@ (80a2a64 <HAL_DMA_Abort_IT+0x264>)
 80a2982:	428b      	cmp	r3, r1
 80a2984:	d045      	beq.n	80a2a12 <HAL_DMA_Abort_IT+0x212>
 80a2986:	3118      	adds	r1, #24
 80a2988:	428b      	cmp	r3, r1
 80a298a:	d042      	beq.n	80a2a12 <HAL_DMA_Abort_IT+0x212>
 80a298c:	3118      	adds	r1, #24
 80a298e:	428b      	cmp	r3, r1
 80a2990:	d03f      	beq.n	80a2a12 <HAL_DMA_Abort_IT+0x212>
 80a2992:	3118      	adds	r1, #24
 80a2994:	428b      	cmp	r3, r1
 80a2996:	d03c      	beq.n	80a2a12 <HAL_DMA_Abort_IT+0x212>
 80a2998:	3118      	adds	r1, #24
 80a299a:	428b      	cmp	r3, r1
 80a299c:	d039      	beq.n	80a2a12 <HAL_DMA_Abort_IT+0x212>
 80a299e:	3118      	adds	r1, #24
 80a29a0:	428b      	cmp	r3, r1
 80a29a2:	d036      	beq.n	80a2a12 <HAL_DMA_Abort_IT+0x212>
 80a29a4:	3118      	adds	r1, #24
 80a29a6:	428b      	cmp	r3, r1
 80a29a8:	d033      	beq.n	80a2a12 <HAL_DMA_Abort_IT+0x212>
 80a29aa:	3118      	adds	r1, #24
 80a29ac:	428b      	cmp	r3, r1
 80a29ae:	d030      	beq.n	80a2a12 <HAL_DMA_Abort_IT+0x212>
 80a29b0:	f501 7156 	add.w	r1, r1, #856	@ 0x358
 80a29b4:	428b      	cmp	r3, r1
 80a29b6:	d02c      	beq.n	80a2a12 <HAL_DMA_Abort_IT+0x212>
 80a29b8:	3118      	adds	r1, #24
 80a29ba:	428b      	cmp	r3, r1
 80a29bc:	d029      	beq.n	80a2a12 <HAL_DMA_Abort_IT+0x212>
 80a29be:	3118      	adds	r1, #24
 80a29c0:	428b      	cmp	r3, r1
 80a29c2:	d026      	beq.n	80a2a12 <HAL_DMA_Abort_IT+0x212>
 80a29c4:	3118      	adds	r1, #24
 80a29c6:	428b      	cmp	r3, r1
 80a29c8:	d023      	beq.n	80a2a12 <HAL_DMA_Abort_IT+0x212>
 80a29ca:	3118      	adds	r1, #24
 80a29cc:	428b      	cmp	r3, r1
 80a29ce:	d020      	beq.n	80a2a12 <HAL_DMA_Abort_IT+0x212>
 80a29d0:	3118      	adds	r1, #24
 80a29d2:	428b      	cmp	r3, r1
 80a29d4:	d01d      	beq.n	80a2a12 <HAL_DMA_Abort_IT+0x212>
 80a29d6:	3118      	adds	r1, #24
 80a29d8:	428b      	cmp	r3, r1
 80a29da:	d01a      	beq.n	80a2a12 <HAL_DMA_Abort_IT+0x212>
 80a29dc:	3118      	adds	r1, #24
 80a29de:	428b      	cmp	r3, r1
 80a29e0:	d017      	beq.n	80a2a12 <HAL_DMA_Abort_IT+0x212>
 80a29e2:	4922      	ldr	r1, [pc, #136]	@ (80a2a6c <HAL_DMA_Abort_IT+0x26c>)
 80a29e4:	428b      	cmp	r3, r1
 80a29e6:	d014      	beq.n	80a2a12 <HAL_DMA_Abort_IT+0x212>
 80a29e8:	3114      	adds	r1, #20
 80a29ea:	428b      	cmp	r3, r1
 80a29ec:	d011      	beq.n	80a2a12 <HAL_DMA_Abort_IT+0x212>
 80a29ee:	3114      	adds	r1, #20
 80a29f0:	428b      	cmp	r3, r1
 80a29f2:	d00e      	beq.n	80a2a12 <HAL_DMA_Abort_IT+0x212>
 80a29f4:	3114      	adds	r1, #20
 80a29f6:	428b      	cmp	r3, r1
 80a29f8:	d00b      	beq.n	80a2a12 <HAL_DMA_Abort_IT+0x212>
 80a29fa:	3114      	adds	r1, #20
 80a29fc:	428b      	cmp	r3, r1
 80a29fe:	d008      	beq.n	80a2a12 <HAL_DMA_Abort_IT+0x212>
 80a2a00:	3114      	adds	r1, #20
 80a2a02:	428b      	cmp	r3, r1
 80a2a04:	d005      	beq.n	80a2a12 <HAL_DMA_Abort_IT+0x212>
 80a2a06:	3114      	adds	r1, #20
 80a2a08:	428b      	cmp	r3, r1
 80a2a0a:	d002      	beq.n	80a2a12 <HAL_DMA_Abort_IT+0x212>
 80a2a0c:	3114      	adds	r1, #20
 80a2a0e:	428b      	cmp	r3, r1
 80a2a10:	d117      	bne.n	80a2a42 <HAL_DMA_Abort_IT+0x242>
        hdma->DMAmuxChannel->CCR &= ~DMAMUX_CxCR_SOIE;
 80a2a12:	6e11      	ldr	r1, [r2, #96]	@ 0x60
 80a2a14:	680b      	ldr	r3, [r1, #0]
 80a2a16:	f423 7380 	bic.w	r3, r3, #256	@ 0x100
 80a2a1a:	600b      	str	r3, [r1, #0]
        regs_bdma = (BDMA_Base_Registers *)hdma->StreamBaseAddress;
 80a2a1c:	6d90      	ldr	r0, [r2, #88]	@ 0x58
        regs_bdma->IFCR = ((BDMA_IFCR_CGIF0) << (hdma->StreamIndex & 0x1FU));
 80a2a1e:	6dd3      	ldr	r3, [r2, #92]	@ 0x5c
 80a2a20:	f003 011f 	and.w	r1, r3, #31
 80a2a24:	2301      	movs	r3, #1
 80a2a26:	408b      	lsls	r3, r1
 80a2a28:	6043      	str	r3, [r0, #4]
        hdma->DMAmuxChannelStatus->CFR = hdma->DMAmuxChannelStatusMask;
 80a2a2a:	6e53      	ldr	r3, [r2, #100]	@ 0x64
 80a2a2c:	6e91      	ldr	r1, [r2, #104]	@ 0x68
 80a2a2e:	6059      	str	r1, [r3, #4]
        if(hdma->DMAmuxRequestGen != 0U)
 80a2a30:	6ed3      	ldr	r3, [r2, #108]	@ 0x6c
 80a2a32:	b133      	cbz	r3, 80a2a42 <HAL_DMA_Abort_IT+0x242>
          hdma->DMAmuxRequestGen->RGCR &= ~DMAMUX_RGxCR_OIE;
 80a2a34:	6819      	ldr	r1, [r3, #0]
 80a2a36:	f421 7180 	bic.w	r1, r1, #256	@ 0x100
 80a2a3a:	6019      	str	r1, [r3, #0]
          hdma->DMAmuxRequestGenStatus->RGCFR = hdma->DMAmuxRequestGenStatusMask;
 80a2a3c:	6f13      	ldr	r3, [r2, #112]	@ 0x70
 80a2a3e:	6f51      	ldr	r1, [r2, #116]	@ 0x74
 80a2a40:	6059      	str	r1, [r3, #4]
      hdma->State = HAL_DMA_STATE_READY;
 80a2a42:	2301      	movs	r3, #1
 80a2a44:	f882 3035 	strb.w	r3, [r2, #53]	@ 0x35
      __HAL_UNLOCK(hdma);
 80a2a48:	2300      	movs	r3, #0
 80a2a4a:	f882 3034 	strb.w	r3, [r2, #52]	@ 0x34
      if(hdma->XferAbortCallback != NULL)
 80a2a4e:	6d13      	ldr	r3, [r2, #80]	@ 0x50
 80a2a50:	b12b      	cbz	r3, 80a2a5e <HAL_DMA_Abort_IT+0x25e>
        hdma->XferAbortCallback(hdma);
 80a2a52:	4610      	mov	r0, r2
 80a2a54:	4798      	blx	r3
  return HAL_OK;
 80a2a56:	2000      	movs	r0, #0
 80a2a58:	e6df      	b.n	80a281a <HAL_DMA_Abort_IT+0x1a>
    return HAL_ERROR;
 80a2a5a:	2001      	movs	r0, #1
}
 80a2a5c:	4770      	bx	lr
  return HAL_OK;
 80a2a5e:	2000      	movs	r0, #0
 80a2a60:	e6db      	b.n	80a281a <HAL_DMA_Abort_IT+0x1a>
 80a2a62:	bf00      	nop
 80a2a64:	40020010 	.word	0x40020010
 80a2a68:	40020028 	.word	0x40020028
 80a2a6c:	58025408 	.word	0x58025408

080a2a70 <HAL_DMA_IRQHandler>:
{
 80a2a70:	b5f0      	push	{r4, r5, r6, r7, lr}
 80a2a72:	b083      	sub	sp, #12
 80a2a74:	4604      	mov	r4, r0
  __IO uint32_t count = 0U;
 80a2a76:	2300      	movs	r3, #0
 80a2a78:	9301      	str	r3, [sp, #4]
  uint32_t timeout = SystemCoreClock / 9600U;
 80a2a7a:	4b7d      	ldr	r3, [pc, #500]	@ (80a2c70 <HAL_DMA_IRQHandler+0x200>)
 80a2a7c:	681d      	ldr	r5, [r3, #0]
 80a2a7e:	4b7d      	ldr	r3, [pc, #500]	@ (80a2c74 <HAL_DMA_IRQHandler+0x204>)
 80a2a80:	fba3 3505 	umull	r3, r5, r3, r5
 80a2a84:	0aad      	lsrs	r5, r5, #10
  DMA_Base_Registers  *regs_dma  = (DMA_Base_Registers *)hdma->StreamBaseAddress;
 80a2a86:	6d87      	ldr	r7, [r0, #88]	@ 0x58
  tmpisr_dma  = regs_dma->ISR;
 80a2a88:	683e      	ldr	r6, [r7, #0]
  tmpisr_bdma = regs_bdma->ISR;
 80a2a8a:	6839      	ldr	r1, [r7, #0]
  if(IS_DMA_STREAM_INSTANCE(hdma->Instance) != 0U)  /* DMA1 or DMA2 instance */
 80a2a8c:	6803      	ldr	r3, [r0, #0]
 80a2a8e:	4a7a      	ldr	r2, [pc, #488]	@ (80a2c78 <HAL_DMA_IRQHandler+0x208>)
 80a2a90:	4293      	cmp	r3, r2
 80a2a92:	d063      	beq.n	80a2b5c <HAL_DMA_IRQHandler+0xec>
 80a2a94:	3218      	adds	r2, #24
 80a2a96:	4293      	cmp	r3, r2
 80a2a98:	d060      	beq.n	80a2b5c <HAL_DMA_IRQHandler+0xec>
 80a2a9a:	3218      	adds	r2, #24
 80a2a9c:	4293      	cmp	r3, r2
 80a2a9e:	d05d      	beq.n	80a2b5c <HAL_DMA_IRQHandler+0xec>
 80a2aa0:	3218      	adds	r2, #24
 80a2aa2:	4293      	cmp	r3, r2
 80a2aa4:	d05a      	beq.n	80a2b5c <HAL_DMA_IRQHandler+0xec>
 80a2aa6:	3218      	adds	r2, #24
 80a2aa8:	4293      	cmp	r3, r2
 80a2aaa:	d057      	beq.n	80a2b5c <HAL_DMA_IRQHandler+0xec>
 80a2aac:	3218      	adds	r2, #24
 80a2aae:	4293      	cmp	r3, r2
 80a2ab0:	d054      	beq.n	80a2b5c <HAL_DMA_IRQHandler+0xec>
 80a2ab2:	3218      	adds	r2, #24
 80a2ab4:	4293      	cmp	r3, r2
 80a2ab6:	d051      	beq.n	80a2b5c <HAL_DMA_IRQHandler+0xec>
 80a2ab8:	3218      	adds	r2, #24
 80a2aba:	4293      	cmp	r3, r2
 80a2abc:	d04e      	beq.n	80a2b5c <HAL_DMA_IRQHandler+0xec>
 80a2abe:	f502 7256 	add.w	r2, r2, #856	@ 0x358
 80a2ac2:	4293      	cmp	r3, r2
 80a2ac4:	d04a      	beq.n	80a2b5c <HAL_DMA_IRQHandler+0xec>
 80a2ac6:	3218      	adds	r2, #24
 80a2ac8:	4293      	cmp	r3, r2
 80a2aca:	d047      	beq.n	80a2b5c <HAL_DMA_IRQHandler+0xec>
 80a2acc:	3218      	adds	r2, #24
 80a2ace:	4293      	cmp	r3, r2
 80a2ad0:	d044      	beq.n	80a2b5c <HAL_DMA_IRQHandler+0xec>
 80a2ad2:	3218      	adds	r2, #24
 80a2ad4:	4293      	cmp	r3, r2
 80a2ad6:	d041      	beq.n	80a2b5c <HAL_DMA_IRQHandler+0xec>
 80a2ad8:	3218      	adds	r2, #24
 80a2ada:	4293      	cmp	r3, r2
 80a2adc:	d03e      	beq.n	80a2b5c <HAL_DMA_IRQHandler+0xec>
 80a2ade:	3218      	adds	r2, #24
 80a2ae0:	4293      	cmp	r3, r2
 80a2ae2:	d03b      	beq.n	80a2b5c <HAL_DMA_IRQHandler+0xec>
 80a2ae4:	3218      	adds	r2, #24
 80a2ae6:	4293      	cmp	r3, r2
 80a2ae8:	d038      	beq.n	80a2b5c <HAL_DMA_IRQHandler+0xec>
 80a2aea:	3218      	adds	r2, #24
 80a2aec:	4293      	cmp	r3, r2
 80a2aee:	d035      	beq.n	80a2b5c <HAL_DMA_IRQHandler+0xec>
  else if(IS_BDMA_CHANNEL_INSTANCE(hdma->Instance) != 0U)  /* BDMA instance(s) */
 80a2af0:	4a62      	ldr	r2, [pc, #392]	@ (80a2c7c <HAL_DMA_IRQHandler+0x20c>)
 80a2af2:	4293      	cmp	r3, r2
 80a2af4:	d015      	beq.n	80a2b22 <HAL_DMA_IRQHandler+0xb2>
 80a2af6:	4a62      	ldr	r2, [pc, #392]	@ (80a2c80 <HAL_DMA_IRQHandler+0x210>)
 80a2af8:	4293      	cmp	r3, r2
 80a2afa:	d012      	beq.n	80a2b22 <HAL_DMA_IRQHandler+0xb2>
 80a2afc:	3214      	adds	r2, #20
 80a2afe:	4293      	cmp	r3, r2
 80a2b00:	d00f      	beq.n	80a2b22 <HAL_DMA_IRQHandler+0xb2>
 80a2b02:	3214      	adds	r2, #20
 80a2b04:	4293      	cmp	r3, r2
 80a2b06:	d00c      	beq.n	80a2b22 <HAL_DMA_IRQHandler+0xb2>
 80a2b08:	3214      	adds	r2, #20
 80a2b0a:	4293      	cmp	r3, r2
 80a2b0c:	d009      	beq.n	80a2b22 <HAL_DMA_IRQHandler+0xb2>
 80a2b0e:	3214      	adds	r2, #20
 80a2b10:	4293      	cmp	r3, r2
 80a2b12:	d006      	beq.n	80a2b22 <HAL_DMA_IRQHandler+0xb2>
 80a2b14:	3214      	adds	r2, #20
 80a2b16:	4293      	cmp	r3, r2
 80a2b18:	d003      	beq.n	80a2b22 <HAL_DMA_IRQHandler+0xb2>
 80a2b1a:	3214      	adds	r2, #20
 80a2b1c:	4293      	cmp	r3, r2
 80a2b1e:	f040 825d 	bne.w	80a2fdc <HAL_DMA_IRQHandler+0x56c>
    ccr_reg = (((BDMA_Channel_TypeDef   *)hdma->Instance)->CCR);
 80a2b22:	681a      	ldr	r2, [r3, #0]
    if (((tmpisr_bdma & (BDMA_FLAG_HT0 << (hdma->StreamIndex & 0x1FU))) != 0U) && ((ccr_reg & BDMA_CCR_HTIE) != 0U))
 80a2b24:	6de0      	ldr	r0, [r4, #92]	@ 0x5c
 80a2b26:	f000 001f 	and.w	r0, r0, #31
 80a2b2a:	2504      	movs	r5, #4
 80a2b2c:	4085      	lsls	r5, r0
 80a2b2e:	420d      	tst	r5, r1
 80a2b30:	f000 82a4 	beq.w	80a307c <HAL_DMA_IRQHandler+0x60c>
 80a2b34:	f012 0f04 	tst.w	r2, #4
 80a2b38:	f000 82a0 	beq.w	80a307c <HAL_DMA_IRQHandler+0x60c>
      regs_bdma->IFCR = (BDMA_ISR_HTIF0 << (hdma->StreamIndex & 0x1FU));
 80a2b3c:	607d      	str	r5, [r7, #4]
      if((ccr_reg & BDMA_CCR_DBM) != 0U)
 80a2b3e:	f412 4f00 	tst.w	r2, #32768	@ 0x8000
 80a2b42:	f000 8257 	beq.w	80a2ff4 <HAL_DMA_IRQHandler+0x584>
        if((ccr_reg & BDMA_CCR_CT) == 0U)
 80a2b46:	f412 3f80 	tst.w	r2, #65536	@ 0x10000
 80a2b4a:	f040 824d 	bne.w	80a2fe8 <HAL_DMA_IRQHandler+0x578>
          if(hdma->XferM1HalfCpltCallback != NULL)
 80a2b4e:	6ca3      	ldr	r3, [r4, #72]	@ 0x48
 80a2b50:	2b00      	cmp	r3, #0
 80a2b52:	f000 8243 	beq.w	80a2fdc <HAL_DMA_IRQHandler+0x56c>
            hdma->XferM1HalfCpltCallback(hdma);
 80a2b56:	4620      	mov	r0, r4
 80a2b58:	4798      	blx	r3
 80a2b5a:	e23f      	b.n	80a2fdc <HAL_DMA_IRQHandler+0x56c>
    if ((tmpisr_dma & (DMA_FLAG_TEIF0_4 << (hdma->StreamIndex & 0x1FU))) != 0U)
 80a2b5c:	6de2      	ldr	r2, [r4, #92]	@ 0x5c
 80a2b5e:	f002 011f 	and.w	r1, r2, #31
 80a2b62:	2208      	movs	r2, #8
 80a2b64:	408a      	lsls	r2, r1
 80a2b66:	4232      	tst	r2, r6
 80a2b68:	d046      	beq.n	80a2bf8 <HAL_DMA_IRQHandler+0x188>
      if(__HAL_DMA_GET_IT_SOURCE(hdma, DMA_IT_TE) != 0U)
 80a2b6a:	4a43      	ldr	r2, [pc, #268]	@ (80a2c78 <HAL_DMA_IRQHandler+0x208>)
 80a2b6c:	4293      	cmp	r3, r2
 80a2b6e:	d031      	beq.n	80a2bd4 <HAL_DMA_IRQHandler+0x164>
 80a2b70:	3218      	adds	r2, #24
 80a2b72:	4293      	cmp	r3, r2
 80a2b74:	d02e      	beq.n	80a2bd4 <HAL_DMA_IRQHandler+0x164>
 80a2b76:	3218      	adds	r2, #24
 80a2b78:	4293      	cmp	r3, r2
 80a2b7a:	d02b      	beq.n	80a2bd4 <HAL_DMA_IRQHandler+0x164>
 80a2b7c:	3218      	adds	r2, #24
 80a2b7e:	4293      	cmp	r3, r2
 80a2b80:	d028      	beq.n	80a2bd4 <HAL_DMA_IRQHandler+0x164>
 80a2b82:	3218      	adds	r2, #24
 80a2b84:	4293      	cmp	r3, r2
 80a2b86:	d025      	beq.n	80a2bd4 <HAL_DMA_IRQHandler+0x164>
 80a2b88:	3218      	adds	r2, #24
 80a2b8a:	4293      	cmp	r3, r2
 80a2b8c:	d022      	beq.n	80a2bd4 <HAL_DMA_IRQHandler+0x164>
 80a2b8e:	3218      	adds	r2, #24
 80a2b90:	4293      	cmp	r3, r2
 80a2b92:	d01f      	beq.n	80a2bd4 <HAL_DMA_IRQHandler+0x164>
 80a2b94:	3218      	adds	r2, #24
 80a2b96:	4293      	cmp	r3, r2
 80a2b98:	d01c      	beq.n	80a2bd4 <HAL_DMA_IRQHandler+0x164>
 80a2b9a:	f502 7256 	add.w	r2, r2, #856	@ 0x358
 80a2b9e:	4293      	cmp	r3, r2
 80a2ba0:	d018      	beq.n	80a2bd4 <HAL_DMA_IRQHandler+0x164>
 80a2ba2:	3218      	adds	r2, #24
 80a2ba4:	4293      	cmp	r3, r2
 80a2ba6:	d015      	beq.n	80a2bd4 <HAL_DMA_IRQHandler+0x164>
 80a2ba8:	3218      	adds	r2, #24
 80a2baa:	4293      	cmp	r3, r2
 80a2bac:	d012      	beq.n	80a2bd4 <HAL_DMA_IRQHandler+0x164>
 80a2bae:	3218      	adds	r2, #24
 80a2bb0:	4293      	cmp	r3, r2
 80a2bb2:	d00f      	beq.n	80a2bd4 <HAL_DMA_IRQHandler+0x164>
 80a2bb4:	3218      	adds	r2, #24
 80a2bb6:	4293      	cmp	r3, r2
 80a2bb8:	d00c      	beq.n	80a2bd4 <HAL_DMA_IRQHandler+0x164>
 80a2bba:	3218      	adds	r2, #24
 80a2bbc:	4293      	cmp	r3, r2
 80a2bbe:	d009      	beq.n	80a2bd4 <HAL_DMA_IRQHandler+0x164>
 80a2bc0:	3218      	adds	r2, #24
 80a2bc2:	4293      	cmp	r3, r2
 80a2bc4:	d006      	beq.n	80a2bd4 <HAL_DMA_IRQHandler+0x164>
 80a2bc6:	3218      	adds	r2, #24
 80a2bc8:	4293      	cmp	r3, r2
 80a2bca:	d003      	beq.n	80a2bd4 <HAL_DMA_IRQHandler+0x164>
 80a2bcc:	681a      	ldr	r2, [r3, #0]
 80a2bce:	f3c2 02c0 	ubfx	r2, r2, #3, #1
 80a2bd2:	e002      	b.n	80a2bda <HAL_DMA_IRQHandler+0x16a>
 80a2bd4:	681a      	ldr	r2, [r3, #0]
 80a2bd6:	f3c2 0280 	ubfx	r2, r2, #2, #1
 80a2bda:	b16a      	cbz	r2, 80a2bf8 <HAL_DMA_IRQHandler+0x188>
        ((DMA_Stream_TypeDef   *)hdma->Instance)->CR  &= ~(DMA_IT_TE);
 80a2bdc:	681a      	ldr	r2, [r3, #0]
 80a2bde:	f022 0204 	bic.w	r2, r2, #4
 80a2be2:	601a      	str	r2, [r3, #0]
        regs_dma->IFCR = DMA_FLAG_TEIF0_4 << (hdma->StreamIndex & 0x1FU);
 80a2be4:	6de3      	ldr	r3, [r4, #92]	@ 0x5c
 80a2be6:	f003 021f 	and.w	r2, r3, #31
 80a2bea:	2308      	movs	r3, #8
 80a2bec:	4093      	lsls	r3, r2
 80a2bee:	60bb      	str	r3, [r7, #8]
        hdma->ErrorCode |= HAL_DMA_ERROR_TE;
 80a2bf0:	6d63      	ldr	r3, [r4, #84]	@ 0x54
 80a2bf2:	f043 0301 	orr.w	r3, r3, #1
 80a2bf6:	6563      	str	r3, [r4, #84]	@ 0x54
    if ((tmpisr_dma & (DMA_FLAG_FEIF0_4 << (hdma->StreamIndex & 0x1FU))) != 0U)
 80a2bf8:	6de2      	ldr	r2, [r4, #92]	@ 0x5c
 80a2bfa:	f002 021f 	and.w	r2, r2, #31
 80a2bfe:	fa26 f302 	lsr.w	r3, r6, r2
 80a2c02:	f013 0f01 	tst.w	r3, #1
 80a2c06:	d041      	beq.n	80a2c8c <HAL_DMA_IRQHandler+0x21c>
      if(__HAL_DMA_GET_IT_SOURCE(hdma, DMA_IT_FE) != 0U)
 80a2c08:	6823      	ldr	r3, [r4, #0]
 80a2c0a:	491b      	ldr	r1, [pc, #108]	@ (80a2c78 <HAL_DMA_IRQHandler+0x208>)
 80a2c0c:	428b      	cmp	r3, r1
 80a2c0e:	d039      	beq.n	80a2c84 <HAL_DMA_IRQHandler+0x214>
 80a2c10:	3118      	adds	r1, #24
 80a2c12:	428b      	cmp	r3, r1
 80a2c14:	d036      	beq.n	80a2c84 <HAL_DMA_IRQHandler+0x214>
 80a2c16:	3118      	adds	r1, #24
 80a2c18:	428b      	cmp	r3, r1
 80a2c1a:	d033      	beq.n	80a2c84 <HAL_DMA_IRQHandler+0x214>
 80a2c1c:	3118      	adds	r1, #24
 80a2c1e:	428b      	cmp	r3, r1
 80a2c20:	d030      	beq.n	80a2c84 <HAL_DMA_IRQHandler+0x214>
 80a2c22:	3118      	adds	r1, #24
 80a2c24:	428b      	cmp	r3, r1
 80a2c26:	d02d      	beq.n	80a2c84 <HAL_DMA_IRQHandler+0x214>
 80a2c28:	3118      	adds	r1, #24
 80a2c2a:	428b      	cmp	r3, r1
 80a2c2c:	d02a      	beq.n	80a2c84 <HAL_DMA_IRQHandler+0x214>
 80a2c2e:	3118      	adds	r1, #24
 80a2c30:	428b      	cmp	r3, r1
 80a2c32:	d027      	beq.n	80a2c84 <HAL_DMA_IRQHandler+0x214>
 80a2c34:	3118      	adds	r1, #24
 80a2c36:	428b      	cmp	r3, r1
 80a2c38:	d024      	beq.n	80a2c84 <HAL_DMA_IRQHandler+0x214>
 80a2c3a:	f501 7156 	add.w	r1, r1, #856	@ 0x358
 80a2c3e:	428b      	cmp	r3, r1
 80a2c40:	d020      	beq.n	80a2c84 <HAL_DMA_IRQHandler+0x214>
 80a2c42:	3118      	adds	r1, #24
 80a2c44:	428b      	cmp	r3, r1
 80a2c46:	d01d      	beq.n	80a2c84 <HAL_DMA_IRQHandler+0x214>
 80a2c48:	3118      	adds	r1, #24
 80a2c4a:	428b      	cmp	r3, r1
 80a2c4c:	d01a      	beq.n	80a2c84 <HAL_DMA_IRQHandler+0x214>
 80a2c4e:	3118      	adds	r1, #24
 80a2c50:	428b      	cmp	r3, r1
 80a2c52:	d017      	beq.n	80a2c84 <HAL_DMA_IRQHandler+0x214>
 80a2c54:	3118      	adds	r1, #24
 80a2c56:	428b      	cmp	r3, r1
 80a2c58:	d014      	beq.n	80a2c84 <HAL_DMA_IRQHandler+0x214>
 80a2c5a:	3118      	adds	r1, #24
 80a2c5c:	428b      	cmp	r3, r1
 80a2c5e:	d011      	beq.n	80a2c84 <HAL_DMA_IRQHandler+0x214>
 80a2c60:	3118      	adds	r1, #24
 80a2c62:	428b      	cmp	r3, r1
 80a2c64:	d00e      	beq.n	80a2c84 <HAL_DMA_IRQHandler+0x214>
 80a2c66:	3118      	adds	r1, #24
 80a2c68:	428b      	cmp	r3, r1
 80a2c6a:	d00b      	beq.n	80a2c84 <HAL_DMA_IRQHandler+0x214>
 80a2c6c:	681b      	ldr	r3, [r3, #0]
 80a2c6e:	e00d      	b.n	80a2c8c <HAL_DMA_IRQHandler+0x21c>
 80a2c70:	38000004 	.word	0x38000004
 80a2c74:	1b4e81b5 	.word	0x1b4e81b5
 80a2c78:	40020010 	.word	0x40020010
 80a2c7c:	58025408 	.word	0x58025408
 80a2c80:	5802541c 	.word	0x5802541c
 80a2c84:	695b      	ldr	r3, [r3, #20]
 80a2c86:	f013 0f80 	tst.w	r3, #128	@ 0x80
 80a2c8a:	d13b      	bne.n	80a2d04 <HAL_DMA_IRQHandler+0x294>
    if ((tmpisr_dma & (DMA_FLAG_DMEIF0_4 << (hdma->StreamIndex & 0x1FU))) != 0U)
 80a2c8c:	6de3      	ldr	r3, [r4, #92]	@ 0x5c
 80a2c8e:	f003 031f 	and.w	r3, r3, #31
 80a2c92:	2204      	movs	r2, #4
 80a2c94:	fa02 f303 	lsl.w	r3, r2, r3
 80a2c98:	4233      	tst	r3, r6
 80a2c9a:	d03f      	beq.n	80a2d1c <HAL_DMA_IRQHandler+0x2ac>
      if(__HAL_DMA_GET_IT_SOURCE(hdma, DMA_IT_DME) != 0U)
 80a2c9c:	6822      	ldr	r2, [r4, #0]
 80a2c9e:	4996      	ldr	r1, [pc, #600]	@ (80a2ef8 <HAL_DMA_IRQHandler+0x488>)
 80a2ca0:	428a      	cmp	r2, r1
 80a2ca2:	d037      	beq.n	80a2d14 <HAL_DMA_IRQHandler+0x2a4>
 80a2ca4:	3118      	adds	r1, #24
 80a2ca6:	428a      	cmp	r2, r1
 80a2ca8:	d034      	beq.n	80a2d14 <HAL_DMA_IRQHandler+0x2a4>
 80a2caa:	3118      	adds	r1, #24
 80a2cac:	428a      	cmp	r2, r1
 80a2cae:	d031      	beq.n	80a2d14 <HAL_DMA_IRQHandler+0x2a4>
 80a2cb0:	3118      	adds	r1, #24
 80a2cb2:	428a      	cmp	r2, r1
 80a2cb4:	d02e      	beq.n	80a2d14 <HAL_DMA_IRQHandler+0x2a4>
 80a2cb6:	3118      	adds	r1, #24
 80a2cb8:	428a      	cmp	r2, r1
 80a2cba:	d02b      	beq.n	80a2d14 <HAL_DMA_IRQHandler+0x2a4>
 80a2cbc:	3118      	adds	r1, #24
 80a2cbe:	428a      	cmp	r2, r1
 80a2cc0:	d028      	beq.n	80a2d14 <HAL_DMA_IRQHandler+0x2a4>
 80a2cc2:	3118      	adds	r1, #24
 80a2cc4:	428a      	cmp	r2, r1
 80a2cc6:	d025      	beq.n	80a2d14 <HAL_DMA_IRQHandler+0x2a4>
 80a2cc8:	3118      	adds	r1, #24
 80a2cca:	428a      	cmp	r2, r1
 80a2ccc:	d022      	beq.n	80a2d14 <HAL_DMA_IRQHandler+0x2a4>
 80a2cce:	f501 7156 	add.w	r1, r1, #856	@ 0x358
 80a2cd2:	428a      	cmp	r2, r1
 80a2cd4:	d01e      	beq.n	80a2d14 <HAL_DMA_IRQHandler+0x2a4>
 80a2cd6:	3118      	adds	r1, #24
 80a2cd8:	428a      	cmp	r2, r1
 80a2cda:	d01b      	beq.n	80a2d14 <HAL_DMA_IRQHandler+0x2a4>
 80a2cdc:	3118      	adds	r1, #24
 80a2cde:	428a      	cmp	r2, r1
 80a2ce0:	d018      	beq.n	80a2d14 <HAL_DMA_IRQHandler+0x2a4>
 80a2ce2:	3118      	adds	r1, #24
 80a2ce4:	428a      	cmp	r2, r1
 80a2ce6:	d015      	beq.n	80a2d14 <HAL_DMA_IRQHandler+0x2a4>
 80a2ce8:	3118      	adds	r1, #24
 80a2cea:	428a      	cmp	r2, r1
 80a2cec:	d012      	beq.n	80a2d14 <HAL_DMA_IRQHandler+0x2a4>
 80a2cee:	3118      	adds	r1, #24
 80a2cf0:	428a      	cmp	r2, r1
 80a2cf2:	d00f      	beq.n	80a2d14 <HAL_DMA_IRQHandler+0x2a4>
 80a2cf4:	3118      	adds	r1, #24
 80a2cf6:	428a      	cmp	r2, r1
 80a2cf8:	d00c      	beq.n	80a2d14 <HAL_DMA_IRQHandler+0x2a4>
 80a2cfa:	3118      	adds	r1, #24
 80a2cfc:	428a      	cmp	r2, r1
 80a2cfe:	d009      	beq.n	80a2d14 <HAL_DMA_IRQHandler+0x2a4>
 80a2d00:	6813      	ldr	r3, [r2, #0]
 80a2d02:	e00b      	b.n	80a2d1c <HAL_DMA_IRQHandler+0x2ac>
        regs_dma->IFCR = DMA_FLAG_FEIF0_4 << (hdma->StreamIndex & 0x1FU);
 80a2d04:	2301      	movs	r3, #1
 80a2d06:	4093      	lsls	r3, r2
 80a2d08:	60bb      	str	r3, [r7, #8]
        hdma->ErrorCode |= HAL_DMA_ERROR_FE;
 80a2d0a:	6d63      	ldr	r3, [r4, #84]	@ 0x54
 80a2d0c:	f043 0302 	orr.w	r3, r3, #2
 80a2d10:	6563      	str	r3, [r4, #84]	@ 0x54
 80a2d12:	e7bb      	b.n	80a2c8c <HAL_DMA_IRQHandler+0x21c>
      if(__HAL_DMA_GET_IT_SOURCE(hdma, DMA_IT_DME) != 0U)
 80a2d14:	6812      	ldr	r2, [r2, #0]
 80a2d16:	f012 0f02 	tst.w	r2, #2
 80a2d1a:	d13d      	bne.n	80a2d98 <HAL_DMA_IRQHandler+0x328>
    if ((tmpisr_dma & (DMA_FLAG_HTIF0_4 << (hdma->StreamIndex & 0x1FU))) != 0U)
 80a2d1c:	6de3      	ldr	r3, [r4, #92]	@ 0x5c
 80a2d1e:	f003 031f 	and.w	r3, r3, #31
 80a2d22:	2210      	movs	r2, #16
 80a2d24:	fa02 f303 	lsl.w	r3, r2, r3
 80a2d28:	4233      	tst	r3, r6
 80a2d2a:	d05f      	beq.n	80a2dec <HAL_DMA_IRQHandler+0x37c>
      if(__HAL_DMA_GET_IT_SOURCE(hdma, DMA_IT_HT) != 0U)
 80a2d2c:	6822      	ldr	r2, [r4, #0]
 80a2d2e:	4972      	ldr	r1, [pc, #456]	@ (80a2ef8 <HAL_DMA_IRQHandler+0x488>)
 80a2d30:	428a      	cmp	r2, r1
 80a2d32:	d037      	beq.n	80a2da4 <HAL_DMA_IRQHandler+0x334>
 80a2d34:	3118      	adds	r1, #24
 80a2d36:	428a      	cmp	r2, r1
 80a2d38:	d034      	beq.n	80a2da4 <HAL_DMA_IRQHandler+0x334>
 80a2d3a:	3118      	adds	r1, #24
 80a2d3c:	428a      	cmp	r2, r1
 80a2d3e:	d031      	beq.n	80a2da4 <HAL_DMA_IRQHandler+0x334>
 80a2d40:	3118      	adds	r1, #24
 80a2d42:	428a      	cmp	r2, r1
 80a2d44:	d02e      	beq.n	80a2da4 <HAL_DMA_IRQHandler+0x334>
 80a2d46:	3118      	adds	r1, #24
 80a2d48:	428a      	cmp	r2, r1
 80a2d4a:	d02b      	beq.n	80a2da4 <HAL_DMA_IRQHandler+0x334>
 80a2d4c:	3118      	adds	r1, #24
 80a2d4e:	428a      	cmp	r2, r1
 80a2d50:	d028      	beq.n	80a2da4 <HAL_DMA_IRQHandler+0x334>
 80a2d52:	3118      	adds	r1, #24
 80a2d54:	428a      	cmp	r2, r1
 80a2d56:	d025      	beq.n	80a2da4 <HAL_DMA_IRQHandler+0x334>
 80a2d58:	3118      	adds	r1, #24
 80a2d5a:	428a      	cmp	r2, r1
 80a2d5c:	d022      	beq.n	80a2da4 <HAL_DMA_IRQHandler+0x334>
 80a2d5e:	f501 7156 	add.w	r1, r1, #856	@ 0x358
 80a2d62:	428a      	cmp	r2, r1
 80a2d64:	d01e      	beq.n	80a2da4 <HAL_DMA_IRQHandler+0x334>
 80a2d66:	3118      	adds	r1, #24
 80a2d68:	428a      	cmp	r2, r1
 80a2d6a:	d01b      	beq.n	80a2da4 <HAL_DMA_IRQHandler+0x334>
 80a2d6c:	3118      	adds	r1, #24
 80a2d6e:	428a      	cmp	r2, r1
 80a2d70:	d018      	beq.n	80a2da4 <HAL_DMA_IRQHandler+0x334>
 80a2d72:	3118      	adds	r1, #24
 80a2d74:	428a      	cmp	r2, r1
 80a2d76:	d015      	beq.n	80a2da4 <HAL_DMA_IRQHandler+0x334>
 80a2d78:	3118      	adds	r1, #24
 80a2d7a:	428a      	cmp	r2, r1
 80a2d7c:	d012      	beq.n	80a2da4 <HAL_DMA_IRQHandler+0x334>
 80a2d7e:	3118      	adds	r1, #24
 80a2d80:	428a      	cmp	r2, r1
 80a2d82:	d00f      	beq.n	80a2da4 <HAL_DMA_IRQHandler+0x334>
 80a2d84:	3118      	adds	r1, #24
 80a2d86:	428a      	cmp	r2, r1
 80a2d88:	d00c      	beq.n	80a2da4 <HAL_DMA_IRQHandler+0x334>
 80a2d8a:	3118      	adds	r1, #24
 80a2d8c:	428a      	cmp	r2, r1
 80a2d8e:	d009      	beq.n	80a2da4 <HAL_DMA_IRQHandler+0x334>
 80a2d90:	6812      	ldr	r2, [r2, #0]
 80a2d92:	f3c2 0280 	ubfx	r2, r2, #2, #1
 80a2d96:	e008      	b.n	80a2daa <HAL_DMA_IRQHandler+0x33a>
        regs_dma->IFCR = DMA_FLAG_DMEIF0_4 << (hdma->StreamIndex & 0x1FU);
 80a2d98:	60bb      	str	r3, [r7, #8]
        hdma->ErrorCode |= HAL_DMA_ERROR_DME;
 80a2d9a:	6d63      	ldr	r3, [r4, #84]	@ 0x54
 80a2d9c:	f043 0304 	orr.w	r3, r3, #4
 80a2da0:	6563      	str	r3, [r4, #84]	@ 0x54
 80a2da2:	e7bb      	b.n	80a2d1c <HAL_DMA_IRQHandler+0x2ac>
      if(__HAL_DMA_GET_IT_SOURCE(hdma, DMA_IT_HT) != 0U)
 80a2da4:	6812      	ldr	r2, [r2, #0]
 80a2da6:	f3c2 02c0 	ubfx	r2, r2, #3, #1
 80a2daa:	b1fa      	cbz	r2, 80a2dec <HAL_DMA_IRQHandler+0x37c>
        regs_dma->IFCR = DMA_FLAG_HTIF0_4 << (hdma->StreamIndex & 0x1FU);
 80a2dac:	60bb      	str	r3, [r7, #8]
        if(((((DMA_Stream_TypeDef   *)hdma->Instance)->CR) & (uint32_t)(DMA_SxCR_DBM)) != 0U)
 80a2dae:	6823      	ldr	r3, [r4, #0]
 80a2db0:	681a      	ldr	r2, [r3, #0]
 80a2db2:	f412 2f80 	tst.w	r2, #262144	@ 0x40000
 80a2db6:	d00d      	beq.n	80a2dd4 <HAL_DMA_IRQHandler+0x364>
          if((((DMA_Stream_TypeDef   *)hdma->Instance)->CR & DMA_SxCR_CT) == 0U)
 80a2db8:	681b      	ldr	r3, [r3, #0]
 80a2dba:	f413 2f00 	tst.w	r3, #524288	@ 0x80000
 80a2dbe:	d104      	bne.n	80a2dca <HAL_DMA_IRQHandler+0x35a>
            if(hdma->XferHalfCpltCallback != NULL)
 80a2dc0:	6c23      	ldr	r3, [r4, #64]	@ 0x40
 80a2dc2:	b19b      	cbz	r3, 80a2dec <HAL_DMA_IRQHandler+0x37c>
              hdma->XferHalfCpltCallback(hdma);
 80a2dc4:	4620      	mov	r0, r4
 80a2dc6:	4798      	blx	r3
 80a2dc8:	e010      	b.n	80a2dec <HAL_DMA_IRQHandler+0x37c>
            if(hdma->XferM1HalfCpltCallback != NULL)
 80a2dca:	6ca3      	ldr	r3, [r4, #72]	@ 0x48
 80a2dcc:	b173      	cbz	r3, 80a2dec <HAL_DMA_IRQHandler+0x37c>
              hdma->XferM1HalfCpltCallback(hdma);
 80a2dce:	4620      	mov	r0, r4
 80a2dd0:	4798      	blx	r3
 80a2dd2:	e00b      	b.n	80a2dec <HAL_DMA_IRQHandler+0x37c>
          if((((DMA_Stream_TypeDef   *)hdma->Instance)->CR & DMA_SxCR_CIRC) == 0U)
 80a2dd4:	681a      	ldr	r2, [r3, #0]
 80a2dd6:	f412 7f80 	tst.w	r2, #256	@ 0x100
 80a2dda:	d103      	bne.n	80a2de4 <HAL_DMA_IRQHandler+0x374>
            ((DMA_Stream_TypeDef   *)hdma->Instance)->CR  &= ~(DMA_IT_HT);
 80a2ddc:	681a      	ldr	r2, [r3, #0]
 80a2dde:	f022 0208 	bic.w	r2, r2, #8
 80a2de2:	601a      	str	r2, [r3, #0]
          if(hdma->XferHalfCpltCallback != NULL)
 80a2de4:	6c23      	ldr	r3, [r4, #64]	@ 0x40
 80a2de6:	b10b      	cbz	r3, 80a2dec <HAL_DMA_IRQHandler+0x37c>
            hdma->XferHalfCpltCallback(hdma);
 80a2de8:	4620      	mov	r0, r4
 80a2dea:	4798      	blx	r3
    if ((tmpisr_dma & (DMA_FLAG_TCIF0_4 << (hdma->StreamIndex & 0x1FU))) != 0U)
 80a2dec:	6de3      	ldr	r3, [r4, #92]	@ 0x5c
 80a2dee:	f003 031f 	and.w	r3, r3, #31
 80a2df2:	2220      	movs	r2, #32
 80a2df4:	fa02 f303 	lsl.w	r3, r2, r3
 80a2df8:	4233      	tst	r3, r6
 80a2dfa:	f000 8091 	beq.w	80a2f20 <HAL_DMA_IRQHandler+0x4b0>
      if(__HAL_DMA_GET_IT_SOURCE(hdma, DMA_IT_TC) != 0U)
 80a2dfe:	6822      	ldr	r2, [r4, #0]
 80a2e00:	493d      	ldr	r1, [pc, #244]	@ (80a2ef8 <HAL_DMA_IRQHandler+0x488>)
 80a2e02:	428a      	cmp	r2, r1
 80a2e04:	d031      	beq.n	80a2e6a <HAL_DMA_IRQHandler+0x3fa>
 80a2e06:	3118      	adds	r1, #24
 80a2e08:	428a      	cmp	r2, r1
 80a2e0a:	d02e      	beq.n	80a2e6a <HAL_DMA_IRQHandler+0x3fa>
 80a2e0c:	3118      	adds	r1, #24
 80a2e0e:	428a      	cmp	r2, r1
 80a2e10:	d02b      	beq.n	80a2e6a <HAL_DMA_IRQHandler+0x3fa>
 80a2e12:	3118      	adds	r1, #24
 80a2e14:	428a      	cmp	r2, r1
 80a2e16:	d028      	beq.n	80a2e6a <HAL_DMA_IRQHandler+0x3fa>
 80a2e18:	3118      	adds	r1, #24
 80a2e1a:	428a      	cmp	r2, r1
 80a2e1c:	d025      	beq.n	80a2e6a <HAL_DMA_IRQHandler+0x3fa>
 80a2e1e:	3118      	adds	r1, #24
 80a2e20:	428a      	cmp	r2, r1
 80a2e22:	d022      	beq.n	80a2e6a <HAL_DMA_IRQHandler+0x3fa>
 80a2e24:	3118      	adds	r1, #24
 80a2e26:	428a      	cmp	r2, r1
 80a2e28:	d01f      	beq.n	80a2e6a <HAL_DMA_IRQHandler+0x3fa>
 80a2e2a:	3118      	adds	r1, #24
 80a2e2c:	428a      	cmp	r2, r1
 80a2e2e:	d01c      	beq.n	80a2e6a <HAL_DMA_IRQHandler+0x3fa>
 80a2e30:	f501 7156 	add.w	r1, r1, #856	@ 0x358
 80a2e34:	428a      	cmp	r2, r1
 80a2e36:	d018      	beq.n	80a2e6a <HAL_DMA_IRQHandler+0x3fa>
 80a2e38:	3118      	adds	r1, #24
 80a2e3a:	428a      	cmp	r2, r1
 80a2e3c:	d015      	beq.n	80a2e6a <HAL_DMA_IRQHandler+0x3fa>
 80a2e3e:	3118      	adds	r1, #24
 80a2e40:	428a      	cmp	r2, r1
 80a2e42:	d012      	beq.n	80a2e6a <HAL_DMA_IRQHandler+0x3fa>
 80a2e44:	3118      	adds	r1, #24
 80a2e46:	428a      	cmp	r2, r1
 80a2e48:	d00f      	beq.n	80a2e6a <HAL_DMA_IRQHandler+0x3fa>
 80a2e4a:	3118      	adds	r1, #24
 80a2e4c:	428a      	cmp	r2, r1
 80a2e4e:	d00c      	beq.n	80a2e6a <HAL_DMA_IRQHandler+0x3fa>
 80a2e50:	3118      	adds	r1, #24
 80a2e52:	428a      	cmp	r2, r1
 80a2e54:	d009      	beq.n	80a2e6a <HAL_DMA_IRQHandler+0x3fa>
 80a2e56:	3118      	adds	r1, #24
 80a2e58:	428a      	cmp	r2, r1
 80a2e5a:	d006      	beq.n	80a2e6a <HAL_DMA_IRQHandler+0x3fa>
 80a2e5c:	3118      	adds	r1, #24
 80a2e5e:	428a      	cmp	r2, r1
 80a2e60:	d003      	beq.n	80a2e6a <HAL_DMA_IRQHandler+0x3fa>
 80a2e62:	6812      	ldr	r2, [r2, #0]
 80a2e64:	f3c2 0240 	ubfx	r2, r2, #1, #1
 80a2e68:	e002      	b.n	80a2e70 <HAL_DMA_IRQHandler+0x400>
 80a2e6a:	6812      	ldr	r2, [r2, #0]
 80a2e6c:	f3c2 1200 	ubfx	r2, r2, #4, #1
 80a2e70:	2a00      	cmp	r2, #0
 80a2e72:	d055      	beq.n	80a2f20 <HAL_DMA_IRQHandler+0x4b0>
        regs_dma->IFCR = DMA_FLAG_TCIF0_4 << (hdma->StreamIndex & 0x1FU);
 80a2e74:	60bb      	str	r3, [r7, #8]
        if(HAL_DMA_STATE_ABORT == hdma->State)
 80a2e76:	f894 3035 	ldrb.w	r3, [r4, #53]	@ 0x35
 80a2e7a:	b2db      	uxtb	r3, r3
 80a2e7c:	2b04      	cmp	r3, #4
 80a2e7e:	d00e      	beq.n	80a2e9e <HAL_DMA_IRQHandler+0x42e>
        if(((((DMA_Stream_TypeDef   *)hdma->Instance)->CR) & (uint32_t)(DMA_SxCR_DBM)) != 0U)
 80a2e80:	6823      	ldr	r3, [r4, #0]
 80a2e82:	681a      	ldr	r2, [r3, #0]
 80a2e84:	f412 2f80 	tst.w	r2, #262144	@ 0x40000
 80a2e88:	d038      	beq.n	80a2efc <HAL_DMA_IRQHandler+0x48c>
          if((((DMA_Stream_TypeDef   *)hdma->Instance)->CR & DMA_SxCR_CT) == 0U)
 80a2e8a:	681b      	ldr	r3, [r3, #0]
 80a2e8c:	f413 2f00 	tst.w	r3, #524288	@ 0x80000
 80a2e90:	d12c      	bne.n	80a2eec <HAL_DMA_IRQHandler+0x47c>
            if(hdma->XferM1CpltCallback != NULL)
 80a2e92:	6c63      	ldr	r3, [r4, #68]	@ 0x44
 80a2e94:	2b00      	cmp	r3, #0
 80a2e96:	d043      	beq.n	80a2f20 <HAL_DMA_IRQHandler+0x4b0>
              hdma->XferM1CpltCallback(hdma);
 80a2e98:	4620      	mov	r0, r4
 80a2e9a:	4798      	blx	r3
 80a2e9c:	e040      	b.n	80a2f20 <HAL_DMA_IRQHandler+0x4b0>
          ((DMA_Stream_TypeDef   *)hdma->Instance)->CR  &= ~(DMA_IT_TC | DMA_IT_TE | DMA_IT_DME);
 80a2e9e:	6822      	ldr	r2, [r4, #0]
 80a2ea0:	6813      	ldr	r3, [r2, #0]
 80a2ea2:	f023 0316 	bic.w	r3, r3, #22
 80a2ea6:	6013      	str	r3, [r2, #0]
          ((DMA_Stream_TypeDef   *)hdma->Instance)->FCR &= ~(DMA_IT_FE);
 80a2ea8:	6822      	ldr	r2, [r4, #0]
 80a2eaa:	6953      	ldr	r3, [r2, #20]
 80a2eac:	f023 0380 	bic.w	r3, r3, #128	@ 0x80
 80a2eb0:	6153      	str	r3, [r2, #20]
          if((hdma->XferHalfCpltCallback != NULL) || (hdma->XferM1HalfCpltCallback != NULL))
 80a2eb2:	6c23      	ldr	r3, [r4, #64]	@ 0x40
 80a2eb4:	b1b3      	cbz	r3, 80a2ee4 <HAL_DMA_IRQHandler+0x474>
            ((DMA_Stream_TypeDef   *)hdma->Instance)->CR  &= ~(DMA_IT_HT);
 80a2eb6:	6822      	ldr	r2, [r4, #0]
 80a2eb8:	6813      	ldr	r3, [r2, #0]
 80a2eba:	f023 0308 	bic.w	r3, r3, #8
 80a2ebe:	6013      	str	r3, [r2, #0]
          regs_dma->IFCR = 0x3FUL << (hdma->StreamIndex & 0x1FU);
 80a2ec0:	6de3      	ldr	r3, [r4, #92]	@ 0x5c
 80a2ec2:	f003 021f 	and.w	r2, r3, #31
 80a2ec6:	233f      	movs	r3, #63	@ 0x3f
 80a2ec8:	4093      	lsls	r3, r2
 80a2eca:	60bb      	str	r3, [r7, #8]
          hdma->State = HAL_DMA_STATE_READY;
 80a2ecc:	2301      	movs	r3, #1
 80a2ece:	f884 3035 	strb.w	r3, [r4, #53]	@ 0x35
          __HAL_UNLOCK(hdma);
 80a2ed2:	2300      	movs	r3, #0
 80a2ed4:	f884 3034 	strb.w	r3, [r4, #52]	@ 0x34
          if(hdma->XferAbortCallback != NULL)
 80a2ed8:	6d23      	ldr	r3, [r4, #80]	@ 0x50
 80a2eda:	2b00      	cmp	r3, #0
 80a2edc:	d07e      	beq.n	80a2fdc <HAL_DMA_IRQHandler+0x56c>
            hdma->XferAbortCallback(hdma);
 80a2ede:	4620      	mov	r0, r4
 80a2ee0:	4798      	blx	r3
          return;
 80a2ee2:	e07b      	b.n	80a2fdc <HAL_DMA_IRQHandler+0x56c>
          if((hdma->XferHalfCpltCallback != NULL) || (hdma->XferM1HalfCpltCallback != NULL))
 80a2ee4:	6ca3      	ldr	r3, [r4, #72]	@ 0x48
 80a2ee6:	2b00      	cmp	r3, #0
 80a2ee8:	d1e5      	bne.n	80a2eb6 <HAL_DMA_IRQHandler+0x446>
 80a2eea:	e7e9      	b.n	80a2ec0 <HAL_DMA_IRQHandler+0x450>
            if(hdma->XferCpltCallback != NULL)
 80a2eec:	6be3      	ldr	r3, [r4, #60]	@ 0x3c
 80a2eee:	b1bb      	cbz	r3, 80a2f20 <HAL_DMA_IRQHandler+0x4b0>
              hdma->XferCpltCallback(hdma);
 80a2ef0:	4620      	mov	r0, r4
 80a2ef2:	4798      	blx	r3
 80a2ef4:	e014      	b.n	80a2f20 <HAL_DMA_IRQHandler+0x4b0>
 80a2ef6:	bf00      	nop
 80a2ef8:	40020010 	.word	0x40020010
          if((((DMA_Stream_TypeDef   *)hdma->Instance)->CR & DMA_SxCR_CIRC) == 0U)
 80a2efc:	681a      	ldr	r2, [r3, #0]
 80a2efe:	f412 7f80 	tst.w	r2, #256	@ 0x100
 80a2f02:	d109      	bne.n	80a2f18 <HAL_DMA_IRQHandler+0x4a8>
            ((DMA_Stream_TypeDef   *)hdma->Instance)->CR  &= ~(DMA_IT_TC);
 80a2f04:	681a      	ldr	r2, [r3, #0]
 80a2f06:	f022 0210 	bic.w	r2, r2, #16
 80a2f0a:	601a      	str	r2, [r3, #0]
            hdma->State = HAL_DMA_STATE_READY;
 80a2f0c:	2301      	movs	r3, #1
 80a2f0e:	f884 3035 	strb.w	r3, [r4, #53]	@ 0x35
            __HAL_UNLOCK(hdma);
 80a2f12:	2300      	movs	r3, #0
 80a2f14:	f884 3034 	strb.w	r3, [r4, #52]	@ 0x34
          if(hdma->XferCpltCallback != NULL)
 80a2f18:	6be3      	ldr	r3, [r4, #60]	@ 0x3c
 80a2f1a:	b10b      	cbz	r3, 80a2f20 <HAL_DMA_IRQHandler+0x4b0>
            hdma->XferCpltCallback(hdma);
 80a2f1c:	4620      	mov	r0, r4
 80a2f1e:	4798      	blx	r3
    if(hdma->ErrorCode != HAL_DMA_ERROR_NONE)
 80a2f20:	6d63      	ldr	r3, [r4, #84]	@ 0x54
 80a2f22:	2b00      	cmp	r3, #0
 80a2f24:	d05a      	beq.n	80a2fdc <HAL_DMA_IRQHandler+0x56c>
      if((hdma->ErrorCode & HAL_DMA_ERROR_TE) != 0U)
 80a2f26:	6d63      	ldr	r3, [r4, #84]	@ 0x54
 80a2f28:	f013 0f01 	tst.w	r3, #1
 80a2f2c:	d052      	beq.n	80a2fd4 <HAL_DMA_IRQHandler+0x564>
        hdma->State = HAL_DMA_STATE_ABORT;
 80a2f2e:	2304      	movs	r3, #4
 80a2f30:	f884 3035 	strb.w	r3, [r4, #53]	@ 0x35
        __HAL_DMA_DISABLE(hdma);
 80a2f34:	6823      	ldr	r3, [r4, #0]
 80a2f36:	4a95      	ldr	r2, [pc, #596]	@ (80a318c <HAL_DMA_IRQHandler+0x71c>)
 80a2f38:	4293      	cmp	r3, r2
 80a2f3a:	d032      	beq.n	80a2fa2 <HAL_DMA_IRQHandler+0x532>
 80a2f3c:	3218      	adds	r2, #24
 80a2f3e:	4293      	cmp	r3, r2
 80a2f40:	d02f      	beq.n	80a2fa2 <HAL_DMA_IRQHandler+0x532>
 80a2f42:	3218      	adds	r2, #24
 80a2f44:	4293      	cmp	r3, r2
 80a2f46:	d02c      	beq.n	80a2fa2 <HAL_DMA_IRQHandler+0x532>
 80a2f48:	3218      	adds	r2, #24
 80a2f4a:	4293      	cmp	r3, r2
 80a2f4c:	d029      	beq.n	80a2fa2 <HAL_DMA_IRQHandler+0x532>
 80a2f4e:	3218      	adds	r2, #24
 80a2f50:	4293      	cmp	r3, r2
 80a2f52:	d026      	beq.n	80a2fa2 <HAL_DMA_IRQHandler+0x532>
 80a2f54:	3218      	adds	r2, #24
 80a2f56:	4293      	cmp	r3, r2
 80a2f58:	d023      	beq.n	80a2fa2 <HAL_DMA_IRQHandler+0x532>
 80a2f5a:	3218      	adds	r2, #24
 80a2f5c:	4293      	cmp	r3, r2
 80a2f5e:	d020      	beq.n	80a2fa2 <HAL_DMA_IRQHandler+0x532>
 80a2f60:	3218      	adds	r2, #24
 80a2f62:	4293      	cmp	r3, r2
 80a2f64:	d01d      	beq.n	80a2fa2 <HAL_DMA_IRQHandler+0x532>
 80a2f66:	f502 7256 	add.w	r2, r2, #856	@ 0x358
 80a2f6a:	4293      	cmp	r3, r2
 80a2f6c:	d019      	beq.n	80a2fa2 <HAL_DMA_IRQHandler+0x532>
 80a2f6e:	3218      	adds	r2, #24
 80a2f70:	4293      	cmp	r3, r2
 80a2f72:	d016      	beq.n	80a2fa2 <HAL_DMA_IRQHandler+0x532>
 80a2f74:	3218      	adds	r2, #24
 80a2f76:	4293      	cmp	r3, r2
 80a2f78:	d013      	beq.n	80a2fa2 <HAL_DMA_IRQHandler+0x532>
 80a2f7a:	3218      	adds	r2, #24
 80a2f7c:	4293      	cmp	r3, r2
 80a2f7e:	d010      	beq.n	80a2fa2 <HAL_DMA_IRQHandler+0x532>
 80a2f80:	3218      	adds	r2, #24
 80a2f82:	4293      	cmp	r3, r2
 80a2f84:	d00d      	beq.n	80a2fa2 <HAL_DMA_IRQHandler+0x532>
 80a2f86:	3218      	adds	r2, #24
 80a2f88:	4293      	cmp	r3, r2
 80a2f8a:	d00a      	beq.n	80a2fa2 <HAL_DMA_IRQHandler+0x532>
 80a2f8c:	3218      	adds	r2, #24
 80a2f8e:	4293      	cmp	r3, r2
 80a2f90:	d007      	beq.n	80a2fa2 <HAL_DMA_IRQHandler+0x532>
 80a2f92:	3218      	adds	r2, #24
 80a2f94:	4293      	cmp	r3, r2
 80a2f96:	d004      	beq.n	80a2fa2 <HAL_DMA_IRQHandler+0x532>
 80a2f98:	681a      	ldr	r2, [r3, #0]
 80a2f9a:	f022 0201 	bic.w	r2, r2, #1
 80a2f9e:	601a      	str	r2, [r3, #0]
 80a2fa0:	e003      	b.n	80a2faa <HAL_DMA_IRQHandler+0x53a>
 80a2fa2:	681a      	ldr	r2, [r3, #0]
 80a2fa4:	f022 0201 	bic.w	r2, r2, #1
 80a2fa8:	601a      	str	r2, [r3, #0]
          if (++count > timeout)
 80a2faa:	9b01      	ldr	r3, [sp, #4]
 80a2fac:	3301      	adds	r3, #1
 80a2fae:	9301      	str	r3, [sp, #4]
 80a2fb0:	42ab      	cmp	r3, r5
 80a2fb2:	d804      	bhi.n	80a2fbe <HAL_DMA_IRQHandler+0x54e>
        while((((DMA_Stream_TypeDef   *)hdma->Instance)->CR & DMA_SxCR_EN) != 0U);
 80a2fb4:	6823      	ldr	r3, [r4, #0]
 80a2fb6:	681b      	ldr	r3, [r3, #0]
 80a2fb8:	f013 0f01 	tst.w	r3, #1
 80a2fbc:	d1f5      	bne.n	80a2faa <HAL_DMA_IRQHandler+0x53a>
        if((((DMA_Stream_TypeDef   *)hdma->Instance)->CR & DMA_SxCR_EN) != 0U)
 80a2fbe:	6823      	ldr	r3, [r4, #0]
 80a2fc0:	681b      	ldr	r3, [r3, #0]
 80a2fc2:	f013 0f01 	tst.w	r3, #1
 80a2fc6:	d00b      	beq.n	80a2fe0 <HAL_DMA_IRQHandler+0x570>
          hdma->State = HAL_DMA_STATE_ERROR;
 80a2fc8:	2303      	movs	r3, #3
 80a2fca:	f884 3035 	strb.w	r3, [r4, #53]	@ 0x35
        __HAL_UNLOCK(hdma);
 80a2fce:	2300      	movs	r3, #0
 80a2fd0:	f884 3034 	strb.w	r3, [r4, #52]	@ 0x34
      if(hdma->XferErrorCallback != NULL)
 80a2fd4:	6ce3      	ldr	r3, [r4, #76]	@ 0x4c
 80a2fd6:	b10b      	cbz	r3, 80a2fdc <HAL_DMA_IRQHandler+0x56c>
        hdma->XferErrorCallback(hdma);
 80a2fd8:	4620      	mov	r0, r4
 80a2fda:	4798      	blx	r3
}
 80a2fdc:	b003      	add	sp, #12
 80a2fde:	bdf0      	pop	{r4, r5, r6, r7, pc}
          hdma->State = HAL_DMA_STATE_READY;
 80a2fe0:	2301      	movs	r3, #1
 80a2fe2:	f884 3035 	strb.w	r3, [r4, #53]	@ 0x35
 80a2fe6:	e7f2      	b.n	80a2fce <HAL_DMA_IRQHandler+0x55e>
          if(hdma->XferHalfCpltCallback != NULL)
 80a2fe8:	6c23      	ldr	r3, [r4, #64]	@ 0x40
 80a2fea:	2b00      	cmp	r3, #0
 80a2fec:	d0f6      	beq.n	80a2fdc <HAL_DMA_IRQHandler+0x56c>
            hdma->XferHalfCpltCallback(hdma);
 80a2fee:	4620      	mov	r0, r4
 80a2ff0:	4798      	blx	r3
 80a2ff2:	e7f3      	b.n	80a2fdc <HAL_DMA_IRQHandler+0x56c>
        if((ccr_reg & BDMA_CCR_CIRC) == 0U)
 80a2ff4:	f012 0f20 	tst.w	r2, #32
 80a2ff8:	d13a      	bne.n	80a3070 <HAL_DMA_IRQHandler+0x600>
          __HAL_DMA_DISABLE_IT(hdma, DMA_IT_HT);
 80a2ffa:	6823      	ldr	r3, [r4, #0]
 80a2ffc:	4a63      	ldr	r2, [pc, #396]	@ (80a318c <HAL_DMA_IRQHandler+0x71c>)
 80a2ffe:	4293      	cmp	r3, r2
 80a3000:	d032      	beq.n	80a3068 <HAL_DMA_IRQHandler+0x5f8>
 80a3002:	3218      	adds	r2, #24
 80a3004:	4293      	cmp	r3, r2
 80a3006:	d02f      	beq.n	80a3068 <HAL_DMA_IRQHandler+0x5f8>
 80a3008:	3218      	adds	r2, #24
 80a300a:	4293      	cmp	r3, r2
 80a300c:	d02c      	beq.n	80a3068 <HAL_DMA_IRQHandler+0x5f8>
 80a300e:	3218      	adds	r2, #24
 80a3010:	4293      	cmp	r3, r2
 80a3012:	d029      	beq.n	80a3068 <HAL_DMA_IRQHandler+0x5f8>
 80a3014:	3218      	adds	r2, #24
 80a3016:	4293      	cmp	r3, r2
 80a3018:	d026      	beq.n	80a3068 <HAL_DMA_IRQHandler+0x5f8>
 80a301a:	3218      	adds	r2, #24
 80a301c:	4293      	cmp	r3, r2
 80a301e:	d023      	beq.n	80a3068 <HAL_DMA_IRQHandler+0x5f8>
 80a3020:	3218      	adds	r2, #24
 80a3022:	4293      	cmp	r3, r2
 80a3024:	d020      	beq.n	80a3068 <HAL_DMA_IRQHandler+0x5f8>
 80a3026:	3218      	adds	r2, #24
 80a3028:	4293      	cmp	r3, r2
 80a302a:	d01d      	beq.n	80a3068 <HAL_DMA_IRQHandler+0x5f8>
 80a302c:	f502 7256 	add.w	r2, r2, #856	@ 0x358
 80a3030:	4293      	cmp	r3, r2
 80a3032:	d019      	beq.n	80a3068 <HAL_DMA_IRQHandler+0x5f8>
 80a3034:	3218      	adds	r2, #24
 80a3036:	4293      	cmp	r3, r2
 80a3038:	d016      	beq.n	80a3068 <HAL_DMA_IRQHandler+0x5f8>
 80a303a:	3218      	adds	r2, #24
 80a303c:	4293      	cmp	r3, r2
 80a303e:	d013      	beq.n	80a3068 <HAL_DMA_IRQHandler+0x5f8>
 80a3040:	3218      	adds	r2, #24
 80a3042:	4293      	cmp	r3, r2
 80a3044:	d010      	beq.n	80a3068 <HAL_DMA_IRQHandler+0x5f8>
 80a3046:	3218      	adds	r2, #24
 80a3048:	4293      	cmp	r3, r2
 80a304a:	d00d      	beq.n	80a3068 <HAL_DMA_IRQHandler+0x5f8>
 80a304c:	3218      	adds	r2, #24
 80a304e:	4293      	cmp	r3, r2
 80a3050:	d00a      	beq.n	80a3068 <HAL_DMA_IRQHandler+0x5f8>
 80a3052:	3218      	adds	r2, #24
 80a3054:	4293      	cmp	r3, r2
 80a3056:	d007      	beq.n	80a3068 <HAL_DMA_IRQHandler+0x5f8>
 80a3058:	3218      	adds	r2, #24
 80a305a:	4293      	cmp	r3, r2
 80a305c:	d004      	beq.n	80a3068 <HAL_DMA_IRQHandler+0x5f8>
 80a305e:	681a      	ldr	r2, [r3, #0]
 80a3060:	f022 0204 	bic.w	r2, r2, #4
 80a3064:	601a      	str	r2, [r3, #0]
 80a3066:	e003      	b.n	80a3070 <HAL_DMA_IRQHandler+0x600>
 80a3068:	681a      	ldr	r2, [r3, #0]
 80a306a:	f022 0208 	bic.w	r2, r2, #8
 80a306e:	601a      	str	r2, [r3, #0]
       if(hdma->XferHalfCpltCallback != NULL)
 80a3070:	6c23      	ldr	r3, [r4, #64]	@ 0x40
 80a3072:	2b00      	cmp	r3, #0
 80a3074:	d0b2      	beq.n	80a2fdc <HAL_DMA_IRQHandler+0x56c>
          hdma->XferHalfCpltCallback(hdma);
 80a3076:	4620      	mov	r0, r4
 80a3078:	4798      	blx	r3
 80a307a:	e7af      	b.n	80a2fdc <HAL_DMA_IRQHandler+0x56c>
    else if (((tmpisr_bdma & (BDMA_FLAG_TC0 << (hdma->StreamIndex & 0x1FU))) != 0U) && ((ccr_reg & BDMA_CCR_TCIE) != 0U))
 80a307c:	2502      	movs	r5, #2
 80a307e:	4085      	lsls	r5, r0
 80a3080:	420d      	tst	r5, r1
 80a3082:	d060      	beq.n	80a3146 <HAL_DMA_IRQHandler+0x6d6>
 80a3084:	f012 0f02 	tst.w	r2, #2
 80a3088:	d05d      	beq.n	80a3146 <HAL_DMA_IRQHandler+0x6d6>
      regs_bdma->IFCR = (BDMA_ISR_TCIF0) << (hdma->StreamIndex & 0x1FU);
 80a308a:	607d      	str	r5, [r7, #4]
      if((ccr_reg & BDMA_CCR_DBM) != 0U)
 80a308c:	f412 4f00 	tst.w	r2, #32768	@ 0x8000
 80a3090:	d00e      	beq.n	80a30b0 <HAL_DMA_IRQHandler+0x640>
        if((ccr_reg & BDMA_CCR_CT) == 0U)
 80a3092:	f412 3f80 	tst.w	r2, #65536	@ 0x10000
 80a3096:	d105      	bne.n	80a30a4 <HAL_DMA_IRQHandler+0x634>
          if(hdma->XferM1CpltCallback != NULL)
 80a3098:	6c63      	ldr	r3, [r4, #68]	@ 0x44
 80a309a:	2b00      	cmp	r3, #0
 80a309c:	d09e      	beq.n	80a2fdc <HAL_DMA_IRQHandler+0x56c>
            hdma->XferM1CpltCallback(hdma);
 80a309e:	4620      	mov	r0, r4
 80a30a0:	4798      	blx	r3
 80a30a2:	e79b      	b.n	80a2fdc <HAL_DMA_IRQHandler+0x56c>
          if(hdma->XferCpltCallback != NULL)
 80a30a4:	6be3      	ldr	r3, [r4, #60]	@ 0x3c
 80a30a6:	2b00      	cmp	r3, #0
 80a30a8:	d098      	beq.n	80a2fdc <HAL_DMA_IRQHandler+0x56c>
            hdma->XferCpltCallback(hdma);
 80a30aa:	4620      	mov	r0, r4
 80a30ac:	4798      	blx	r3
 80a30ae:	e795      	b.n	80a2fdc <HAL_DMA_IRQHandler+0x56c>
        if((ccr_reg & BDMA_CCR_CIRC) == 0U)
 80a30b0:	f012 0f20 	tst.w	r2, #32
 80a30b4:	d140      	bne.n	80a3138 <HAL_DMA_IRQHandler+0x6c8>
          __HAL_DMA_DISABLE_IT(hdma, DMA_IT_TE | DMA_IT_TC);
 80a30b6:	6823      	ldr	r3, [r4, #0]
 80a30b8:	4a34      	ldr	r2, [pc, #208]	@ (80a318c <HAL_DMA_IRQHandler+0x71c>)
 80a30ba:	4293      	cmp	r3, r2
 80a30bc:	d032      	beq.n	80a3124 <HAL_DMA_IRQHandler+0x6b4>
 80a30be:	3218      	adds	r2, #24
 80a30c0:	4293      	cmp	r3, r2
 80a30c2:	d02f      	beq.n	80a3124 <HAL_DMA_IRQHandler+0x6b4>
 80a30c4:	3218      	adds	r2, #24
 80a30c6:	4293      	cmp	r3, r2
 80a30c8:	d02c      	beq.n	80a3124 <HAL_DMA_IRQHandler+0x6b4>
 80a30ca:	3218      	adds	r2, #24
 80a30cc:	4293      	cmp	r3, r2
 80a30ce:	d029      	beq.n	80a3124 <HAL_DMA_IRQHandler+0x6b4>
 80a30d0:	3218      	adds	r2, #24
 80a30d2:	4293      	cmp	r3, r2
 80a30d4:	d026      	beq.n	80a3124 <HAL_DMA_IRQHandler+0x6b4>
 80a30d6:	3218      	adds	r2, #24
 80a30d8:	4293      	cmp	r3, r2
 80a30da:	d023      	beq.n	80a3124 <HAL_DMA_IRQHandler+0x6b4>
 80a30dc:	3218      	adds	r2, #24
 80a30de:	4293      	cmp	r3, r2
 80a30e0:	d020      	beq.n	80a3124 <HAL_DMA_IRQHandler+0x6b4>
 80a30e2:	3218      	adds	r2, #24
 80a30e4:	4293      	cmp	r3, r2
 80a30e6:	d01d      	beq.n	80a3124 <HAL_DMA_IRQHandler+0x6b4>
 80a30e8:	f502 7256 	add.w	r2, r2, #856	@ 0x358
 80a30ec:	4293      	cmp	r3, r2
 80a30ee:	d019      	beq.n	80a3124 <HAL_DMA_IRQHandler+0x6b4>
 80a30f0:	3218      	adds	r2, #24
 80a30f2:	4293      	cmp	r3, r2
 80a30f4:	d016      	beq.n	80a3124 <HAL_DMA_IRQHandler+0x6b4>
 80a30f6:	3218      	adds	r2, #24
 80a30f8:	4293      	cmp	r3, r2
 80a30fa:	d013      	beq.n	80a3124 <HAL_DMA_IRQHandler+0x6b4>
 80a30fc:	3218      	adds	r2, #24
 80a30fe:	4293      	cmp	r3, r2
 80a3100:	d010      	beq.n	80a3124 <HAL_DMA_IRQHandler+0x6b4>
 80a3102:	3218      	adds	r2, #24
 80a3104:	4293      	cmp	r3, r2
 80a3106:	d00d      	beq.n	80a3124 <HAL_DMA_IRQHandler+0x6b4>
 80a3108:	3218      	adds	r2, #24
 80a310a:	4293      	cmp	r3, r2
 80a310c:	d00a      	beq.n	80a3124 <HAL_DMA_IRQHandler+0x6b4>
 80a310e:	3218      	adds	r2, #24
 80a3110:	4293      	cmp	r3, r2
 80a3112:	d007      	beq.n	80a3124 <HAL_DMA_IRQHandler+0x6b4>
 80a3114:	3218      	adds	r2, #24
 80a3116:	4293      	cmp	r3, r2
 80a3118:	d004      	beq.n	80a3124 <HAL_DMA_IRQHandler+0x6b4>
 80a311a:	681a      	ldr	r2, [r3, #0]
 80a311c:	f022 020a 	bic.w	r2, r2, #10
 80a3120:	601a      	str	r2, [r3, #0]
 80a3122:	e003      	b.n	80a312c <HAL_DMA_IRQHandler+0x6bc>
 80a3124:	681a      	ldr	r2, [r3, #0]
 80a3126:	f022 0214 	bic.w	r2, r2, #20
 80a312a:	601a      	str	r2, [r3, #0]
          hdma->State = HAL_DMA_STATE_READY;
 80a312c:	2301      	movs	r3, #1
 80a312e:	f884 3035 	strb.w	r3, [r4, #53]	@ 0x35
          __HAL_UNLOCK(hdma);
 80a3132:	2300      	movs	r3, #0
 80a3134:	f884 3034 	strb.w	r3, [r4, #52]	@ 0x34
        if(hdma->XferCpltCallback != NULL)
 80a3138:	6be3      	ldr	r3, [r4, #60]	@ 0x3c
 80a313a:	2b00      	cmp	r3, #0
 80a313c:	f43f af4e 	beq.w	80a2fdc <HAL_DMA_IRQHandler+0x56c>
          hdma->XferCpltCallback(hdma);
 80a3140:	4620      	mov	r0, r4
 80a3142:	4798      	blx	r3
 80a3144:	e74a      	b.n	80a2fdc <HAL_DMA_IRQHandler+0x56c>
    else if (((tmpisr_bdma & (BDMA_FLAG_TE0 << (hdma->StreamIndex & 0x1FU))) != 0U) && ((ccr_reg & BDMA_CCR_TEIE) != 0U))
 80a3146:	2508      	movs	r5, #8
 80a3148:	fa05 f000 	lsl.w	r0, r5, r0
 80a314c:	4208      	tst	r0, r1
 80a314e:	f43f af45 	beq.w	80a2fdc <HAL_DMA_IRQHandler+0x56c>
 80a3152:	f012 0f08 	tst.w	r2, #8
 80a3156:	f43f af41 	beq.w	80a2fdc <HAL_DMA_IRQHandler+0x56c>
      __HAL_DMA_DISABLE_IT(hdma, (DMA_IT_TC | DMA_IT_HT | DMA_IT_TE));
 80a315a:	681a      	ldr	r2, [r3, #0]
 80a315c:	f022 020e 	bic.w	r2, r2, #14
 80a3160:	601a      	str	r2, [r3, #0]
      regs_bdma->IFCR = (BDMA_ISR_GIF0) << (hdma->StreamIndex & 0x1FU);
 80a3162:	6de3      	ldr	r3, [r4, #92]	@ 0x5c
 80a3164:	f003 031f 	and.w	r3, r3, #31
 80a3168:	2201      	movs	r2, #1
 80a316a:	fa02 f303 	lsl.w	r3, r2, r3
 80a316e:	607b      	str	r3, [r7, #4]
      hdma->ErrorCode = HAL_DMA_ERROR_TE;
 80a3170:	6562      	str	r2, [r4, #84]	@ 0x54
      hdma->State = HAL_DMA_STATE_READY;
 80a3172:	f884 2035 	strb.w	r2, [r4, #53]	@ 0x35
      __HAL_UNLOCK(hdma);
 80a3176:	2300      	movs	r3, #0
 80a3178:	f884 3034 	strb.w	r3, [r4, #52]	@ 0x34
      if (hdma->XferErrorCallback != NULL)
 80a317c:	6ce3      	ldr	r3, [r4, #76]	@ 0x4c
 80a317e:	2b00      	cmp	r3, #0
 80a3180:	f43f af2c 	beq.w	80a2fdc <HAL_DMA_IRQHandler+0x56c>
        hdma->XferErrorCallback(hdma);
 80a3184:	4620      	mov	r0, r4
 80a3186:	4798      	blx	r3
  }
 80a3188:	e728      	b.n	80a2fdc <HAL_DMA_IRQHandler+0x56c>
 80a318a:	bf00      	nop
 80a318c:	40020010 	.word	0x40020010

080a3190 <HAL_DMA_GetError>:
  return hdma->ErrorCode;
 80a3190:	6d40      	ldr	r0, [r0, #84]	@ 0x54
}
 80a3192:	4770      	bx	lr

080a3194 <HAL_GPIO_Init>:
  * @param  GPIO_Init: pointer to a GPIO_InitTypeDef structure that contains
  *         the configuration information for the specified GPIO peripheral.
  * @retval None
  */
void HAL_GPIO_Init(GPIO_TypeDef  *GPIOx, const GPIO_InitTypeDef *GPIO_Init)
{
 80a3194:	b5f0      	push	{r4, r5, r6, r7, lr}
 80a3196:	b083      	sub	sp, #12
  uint32_t position = 0x00U;
 80a3198:	2300      	movs	r3, #0
  assert_param(IS_GPIO_ALL_INSTANCE(GPIOx));
  assert_param(IS_GPIO_PIN(GPIO_Init->Pin));
  assert_param(IS_GPIO_MODE(GPIO_Init->Mode));

  /* Configure the port pins */
  while (((GPIO_Init->Pin) >> position) != 0x00U)
 80a319a:	e06b      	b.n	80a3274 <HAL_GPIO_Init+0xe0>
      {
        /* Check the Speed parameter */
        assert_param(IS_GPIO_SPEED(GPIO_Init->Speed));

        /* Configure the IO Speed */
        temp = GPIOx->OSPEEDR;
 80a319c:	6885      	ldr	r5, [r0, #8]
        temp &= ~(GPIO_OSPEEDR_OSPEED0 << (position * 2U));
 80a319e:	005e      	lsls	r6, r3, #1
 80a31a0:	2403      	movs	r4, #3
 80a31a2:	40b4      	lsls	r4, r6
 80a31a4:	ea25 0504 	bic.w	r5, r5, r4
        temp |= (GPIO_Init->Speed << (position * 2U));
 80a31a8:	68cc      	ldr	r4, [r1, #12]
 80a31aa:	40b4      	lsls	r4, r6
 80a31ac:	432c      	orrs	r4, r5
        GPIOx->OSPEEDR = temp;
 80a31ae:	6084      	str	r4, [r0, #8]

        /* Configure the IO Output Type */
        temp = GPIOx->OTYPER;
 80a31b0:	6845      	ldr	r5, [r0, #4]
        temp &= ~(GPIO_OTYPER_OT0 << position) ;
 80a31b2:	ea25 050c 	bic.w	r5, r5, ip
        temp |= (((GPIO_Init->Mode & OUTPUT_TYPE) >> OUTPUT_TYPE_Pos) << position);
 80a31b6:	684c      	ldr	r4, [r1, #4]
 80a31b8:	f3c4 1400 	ubfx	r4, r4, #4, #1
 80a31bc:	409c      	lsls	r4, r3
 80a31be:	432c      	orrs	r4, r5
        GPIOx->OTYPER = temp;
 80a31c0:	6044      	str	r4, [r0, #4]
 80a31c2:	e069      	b.n	80a3298 <HAL_GPIO_Init+0x104>
        /* Check the Alternate function parameters */
        assert_param(IS_GPIO_AF_INSTANCE(GPIOx));
        assert_param(IS_GPIO_AF(GPIO_Init->Alternate));

        /* Configure Alternate function mapped with the current IO */
        temp = GPIOx->AFR[position >> 3U];
 80a31c4:	08dd      	lsrs	r5, r3, #3
 80a31c6:	3508      	adds	r5, #8
 80a31c8:	f850 4025 	ldr.w	r4, [r0, r5, lsl #2]
        temp &= ~(0xFU << ((position & 0x07U) * 4U));
 80a31cc:	f003 0c07 	and.w	ip, r3, #7
 80a31d0:	ea4f 0c8c 	mov.w	ip, ip, lsl #2
 80a31d4:	f04f 0e0f 	mov.w	lr, #15
 80a31d8:	fa0e fe0c 	lsl.w	lr, lr, ip
 80a31dc:	ea24 0e0e 	bic.w	lr, r4, lr
        temp |= ((GPIO_Init->Alternate) << ((position & 0x07U) * 4U));
 80a31e0:	690c      	ldr	r4, [r1, #16]
 80a31e2:	fa04 f40c 	lsl.w	r4, r4, ip
 80a31e6:	ea44 040e 	orr.w	r4, r4, lr
        GPIOx->AFR[position >> 3U] = temp;
 80a31ea:	f840 4025 	str.w	r4, [r0, r5, lsl #2]
 80a31ee:	e06b      	b.n	80a32c8 <HAL_GPIO_Init+0x134>
        /* Enable SYSCFG Clock */
        __HAL_RCC_SYSCFG_CLK_ENABLE();

        temp = SYSCFG->EXTICR[position >> 2U];
        temp &= ~(0x0FUL << (4U * (position & 0x03U)));
        temp |= (GPIO_GET_INDEX(GPIOx) << (4U * (position & 0x03U)));
 80a31f0:	2409      	movs	r4, #9
 80a31f2:	e000      	b.n	80a31f6 <HAL_GPIO_Init+0x62>
 80a31f4:	2400      	movs	r4, #0
 80a31f6:	fa04 f40e 	lsl.w	r4, r4, lr
 80a31fa:	432c      	orrs	r4, r5
        SYSCFG->EXTICR[position >> 2U] = temp;
 80a31fc:	f10c 0c02 	add.w	ip, ip, #2
 80a3200:	4d69      	ldr	r5, [pc, #420]	@ (80a33a8 <HAL_GPIO_Init+0x214>)
 80a3202:	f845 402c 	str.w	r4, [r5, ip, lsl #2]

        /* Clear Rising Falling edge configuration */
        temp = EXTI->RTSR1;
 80a3206:	f04f 44b0 	mov.w	r4, #1476395008	@ 0x58000000
 80a320a:	6825      	ldr	r5, [r4, #0]
        temp &= ~(iocurrent);
 80a320c:	43d4      	mvns	r4, r2
 80a320e:	ea25 0602 	bic.w	r6, r5, r2
        if ((GPIO_Init->Mode & TRIGGER_RISING) != 0x00U)
 80a3212:	684f      	ldr	r7, [r1, #4]
 80a3214:	f417 1f80 	tst.w	r7, #1048576	@ 0x100000
 80a3218:	d001      	beq.n	80a321e <HAL_GPIO_Init+0x8a>
        {
          temp |= iocurrent;
 80a321a:	ea42 0605 	orr.w	r6, r2, r5
        }
        EXTI->RTSR1 = temp;
 80a321e:	f04f 45b0 	mov.w	r5, #1476395008	@ 0x58000000
 80a3222:	602e      	str	r6, [r5, #0]

        temp = EXTI->FTSR1;
 80a3224:	686d      	ldr	r5, [r5, #4]
        temp &= ~(iocurrent);
 80a3226:	ea04 0605 	and.w	r6, r4, r5
        if ((GPIO_Init->Mode & TRIGGER_FALLING) != 0x00U)
 80a322a:	684f      	ldr	r7, [r1, #4]
 80a322c:	f417 1f00 	tst.w	r7, #2097152	@ 0x200000
 80a3230:	d001      	beq.n	80a3236 <HAL_GPIO_Init+0xa2>
        {
          temp |= iocurrent;
 80a3232:	ea42 0605 	orr.w	r6, r2, r5
        }
        EXTI->FTSR1 = temp;
 80a3236:	f04f 45b0 	mov.w	r5, #1476395008	@ 0x58000000
 80a323a:	606e      	str	r6, [r5, #4]

        temp = EXTI_CurrentCPU->EMR1;
 80a323c:	f8d5 50c4 	ldr.w	r5, [r5, #196]	@ 0xc4
        temp &= ~(iocurrent);
 80a3240:	ea04 0605 	and.w	r6, r4, r5
        if ((GPIO_Init->Mode & EXTI_EVT) != 0x00U)
 80a3244:	684f      	ldr	r7, [r1, #4]
 80a3246:	f417 3f00 	tst.w	r7, #131072	@ 0x20000
 80a324a:	d001      	beq.n	80a3250 <HAL_GPIO_Init+0xbc>
        {
          temp |= iocurrent;
 80a324c:	ea42 0605 	orr.w	r6, r2, r5
        }
        EXTI_CurrentCPU->EMR1 = temp;
 80a3250:	f04f 45b0 	mov.w	r5, #1476395008	@ 0x58000000
 80a3254:	f8c5 60c4 	str.w	r6, [r5, #196]	@ 0xc4

        /* Clear EXTI line configuration */
        temp = EXTI_CurrentCPU->IMR1;
 80a3258:	f8d5 50c0 	ldr.w	r5, [r5, #192]	@ 0xc0
        temp &= ~(iocurrent);
 80a325c:	402c      	ands	r4, r5
        if ((GPIO_Init->Mode & EXTI_IT) != 0x00U)
 80a325e:	684e      	ldr	r6, [r1, #4]
 80a3260:	f416 3f80 	tst.w	r6, #65536	@ 0x10000
 80a3264:	d001      	beq.n	80a326a <HAL_GPIO_Init+0xd6>
        {
          temp |= iocurrent;
 80a3266:	ea42 0405 	orr.w	r4, r2, r5
        }
        EXTI_CurrentCPU->IMR1 = temp;
 80a326a:	f04f 42b0 	mov.w	r2, #1476395008	@ 0x58000000
 80a326e:	f8c2 40c0 	str.w	r4, [r2, #192]	@ 0xc0
      }
    }

    position++;
 80a3272:	3301      	adds	r3, #1
  while (((GPIO_Init->Pin) >> position) != 0x00U)
 80a3274:	680a      	ldr	r2, [r1, #0]
 80a3276:	fa32 f403 	lsrs.w	r4, r2, r3
 80a327a:	f000 8092 	beq.w	80a33a2 <HAL_GPIO_Init+0x20e>
    iocurrent = (GPIO_Init->Pin) & (1UL << position);
 80a327e:	f04f 0c01 	mov.w	ip, #1
 80a3282:	fa0c fc03 	lsl.w	ip, ip, r3
    if (iocurrent != 0x00U)
 80a3286:	ea1c 0202 	ands.w	r2, ip, r2
 80a328a:	d0f2      	beq.n	80a3272 <HAL_GPIO_Init+0xde>
      if (((GPIO_Init->Mode & GPIO_MODE) == MODE_OUTPUT) || ((GPIO_Init->Mode & GPIO_MODE) == MODE_AF))
 80a328c:	684c      	ldr	r4, [r1, #4]
 80a328e:	f004 0403 	and.w	r4, r4, #3
 80a3292:	3c01      	subs	r4, #1
 80a3294:	2c01      	cmp	r4, #1
 80a3296:	d981      	bls.n	80a319c <HAL_GPIO_Init+0x8>
      if ((GPIO_Init->Mode & GPIO_MODE) != MODE_ANALOG)
 80a3298:	684c      	ldr	r4, [r1, #4]
 80a329a:	f004 0403 	and.w	r4, r4, #3
 80a329e:	2c03      	cmp	r4, #3
 80a32a0:	d00c      	beq.n	80a32bc <HAL_GPIO_Init+0x128>
      temp = GPIOx->PUPDR;
 80a32a2:	68c4      	ldr	r4, [r0, #12]
      temp &= ~(GPIO_PUPDR_PUPD0 << (position * 2U));
 80a32a4:	005d      	lsls	r5, r3, #1
 80a32a6:	f04f 0c03 	mov.w	ip, #3
 80a32aa:	fa0c fc05 	lsl.w	ip, ip, r5
 80a32ae:	ea24 0c0c 	bic.w	ip, r4, ip
      temp |= ((GPIO_Init->Pull) << (position * 2U));
 80a32b2:	688c      	ldr	r4, [r1, #8]
 80a32b4:	40ac      	lsls	r4, r5
 80a32b6:	ea44 040c 	orr.w	r4, r4, ip
      GPIOx->PUPDR = temp;
 80a32ba:	60c4      	str	r4, [r0, #12]
      if ((GPIO_Init->Mode & GPIO_MODE) == MODE_AF)
 80a32bc:	684c      	ldr	r4, [r1, #4]
 80a32be:	f004 0403 	and.w	r4, r4, #3
 80a32c2:	2c02      	cmp	r4, #2
 80a32c4:	f43f af7e 	beq.w	80a31c4 <HAL_GPIO_Init+0x30>
      temp = GPIOx->MODER;
 80a32c8:	6804      	ldr	r4, [r0, #0]
      temp &= ~(GPIO_MODER_MODE0 << (position * 2U));
 80a32ca:	ea4f 0e43 	mov.w	lr, r3, lsl #1
 80a32ce:	f04f 0c03 	mov.w	ip, #3
 80a32d2:	fa0c fc0e 	lsl.w	ip, ip, lr
 80a32d6:	ea24 0c0c 	bic.w	ip, r4, ip
      temp |= ((GPIO_Init->Mode & GPIO_MODE) << (position * 2U));
 80a32da:	684c      	ldr	r4, [r1, #4]
 80a32dc:	f004 0403 	and.w	r4, r4, #3
 80a32e0:	fa04 f40e 	lsl.w	r4, r4, lr
 80a32e4:	ea44 040c 	orr.w	r4, r4, ip
      GPIOx->MODER = temp;
 80a32e8:	6004      	str	r4, [r0, #0]
      if ((GPIO_Init->Mode & EXTI_MODE) != 0x00U)
 80a32ea:	684c      	ldr	r4, [r1, #4]
 80a32ec:	f414 3f40 	tst.w	r4, #196608	@ 0x30000
 80a32f0:	d0bf      	beq.n	80a3272 <HAL_GPIO_Init+0xde>
        __HAL_RCC_SYSCFG_CLK_ENABLE();
 80a32f2:	4c2e      	ldr	r4, [pc, #184]	@ (80a33ac <HAL_GPIO_Init+0x218>)
 80a32f4:	f8d4 50f4 	ldr.w	r5, [r4, #244]	@ 0xf4
 80a32f8:	f045 0502 	orr.w	r5, r5, #2
 80a32fc:	f8c4 50f4 	str.w	r5, [r4, #244]	@ 0xf4
 80a3300:	f8d4 40f4 	ldr.w	r4, [r4, #244]	@ 0xf4
 80a3304:	f004 0402 	and.w	r4, r4, #2
 80a3308:	9401      	str	r4, [sp, #4]
 80a330a:	9c01      	ldr	r4, [sp, #4]
        temp = SYSCFG->EXTICR[position >> 2U];
 80a330c:	ea4f 0c93 	mov.w	ip, r3, lsr #2
 80a3310:	f10c 0502 	add.w	r5, ip, #2
 80a3314:	4c24      	ldr	r4, [pc, #144]	@ (80a33a8 <HAL_GPIO_Init+0x214>)
 80a3316:	f854 5025 	ldr.w	r5, [r4, r5, lsl #2]
        temp &= ~(0x0FUL << (4U * (position & 0x03U)));
 80a331a:	f003 0e03 	and.w	lr, r3, #3
 80a331e:	ea4f 0e8e 	mov.w	lr, lr, lsl #2
 80a3322:	240f      	movs	r4, #15
 80a3324:	fa04 f40e 	lsl.w	r4, r4, lr
 80a3328:	ea25 0504 	bic.w	r5, r5, r4
        temp |= (GPIO_GET_INDEX(GPIOx) << (4U * (position & 0x03U)));
 80a332c:	4c20      	ldr	r4, [pc, #128]	@ (80a33b0 <HAL_GPIO_Init+0x21c>)
 80a332e:	42a0      	cmp	r0, r4
 80a3330:	f43f af60 	beq.w	80a31f4 <HAL_GPIO_Init+0x60>
 80a3334:	f504 6480 	add.w	r4, r4, #1024	@ 0x400
 80a3338:	42a0      	cmp	r0, r4
 80a333a:	d022      	beq.n	80a3382 <HAL_GPIO_Init+0x1ee>
 80a333c:	f504 6480 	add.w	r4, r4, #1024	@ 0x400
 80a3340:	42a0      	cmp	r0, r4
 80a3342:	d020      	beq.n	80a3386 <HAL_GPIO_Init+0x1f2>
 80a3344:	f504 6480 	add.w	r4, r4, #1024	@ 0x400
 80a3348:	42a0      	cmp	r0, r4
 80a334a:	d01e      	beq.n	80a338a <HAL_GPIO_Init+0x1f6>
 80a334c:	f504 6480 	add.w	r4, r4, #1024	@ 0x400
 80a3350:	42a0      	cmp	r0, r4
 80a3352:	d01c      	beq.n	80a338e <HAL_GPIO_Init+0x1fa>
 80a3354:	f504 6480 	add.w	r4, r4, #1024	@ 0x400
 80a3358:	42a0      	cmp	r0, r4
 80a335a:	d01a      	beq.n	80a3392 <HAL_GPIO_Init+0x1fe>
 80a335c:	f504 6480 	add.w	r4, r4, #1024	@ 0x400
 80a3360:	42a0      	cmp	r0, r4
 80a3362:	d018      	beq.n	80a3396 <HAL_GPIO_Init+0x202>
 80a3364:	f504 6480 	add.w	r4, r4, #1024	@ 0x400
 80a3368:	42a0      	cmp	r0, r4
 80a336a:	d016      	beq.n	80a339a <HAL_GPIO_Init+0x206>
 80a336c:	f504 6480 	add.w	r4, r4, #1024	@ 0x400
 80a3370:	42a0      	cmp	r0, r4
 80a3372:	d014      	beq.n	80a339e <HAL_GPIO_Init+0x20a>
 80a3374:	f504 6480 	add.w	r4, r4, #1024	@ 0x400
 80a3378:	42a0      	cmp	r0, r4
 80a337a:	f43f af39 	beq.w	80a31f0 <HAL_GPIO_Init+0x5c>
 80a337e:	240a      	movs	r4, #10
 80a3380:	e739      	b.n	80a31f6 <HAL_GPIO_Init+0x62>
 80a3382:	2401      	movs	r4, #1
 80a3384:	e737      	b.n	80a31f6 <HAL_GPIO_Init+0x62>
 80a3386:	2402      	movs	r4, #2
 80a3388:	e735      	b.n	80a31f6 <HAL_GPIO_Init+0x62>
 80a338a:	2403      	movs	r4, #3
 80a338c:	e733      	b.n	80a31f6 <HAL_GPIO_Init+0x62>
 80a338e:	2404      	movs	r4, #4
 80a3390:	e731      	b.n	80a31f6 <HAL_GPIO_Init+0x62>
 80a3392:	2405      	movs	r4, #5
 80a3394:	e72f      	b.n	80a31f6 <HAL_GPIO_Init+0x62>
 80a3396:	2406      	movs	r4, #6
 80a3398:	e72d      	b.n	80a31f6 <HAL_GPIO_Init+0x62>
 80a339a:	2407      	movs	r4, #7
 80a339c:	e72b      	b.n	80a31f6 <HAL_GPIO_Init+0x62>
 80a339e:	2408      	movs	r4, #8
 80a33a0:	e729      	b.n	80a31f6 <HAL_GPIO_Init+0x62>
  }
}
 80a33a2:	b003      	add	sp, #12
 80a33a4:	bdf0      	pop	{r4, r5, r6, r7, pc}
 80a33a6:	bf00      	nop
 80a33a8:	58000400 	.word	0x58000400
 80a33ac:	58024400 	.word	0x58024400
 80a33b0:	58020000 	.word	0x58020000

080a33b4 <HAL_GPIO_WritePin>:
{
  /* Check the parameters */
  assert_param(IS_GPIO_PIN(GPIO_Pin));
  assert_param(IS_GPIO_PIN_ACTION(PinState));

  if (PinState != GPIO_PIN_RESET)
 80a33b4:	b10a      	cbz	r2, 80a33ba <HAL_GPIO_WritePin+0x6>
  {
    GPIOx->BSRR = GPIO_Pin;
 80a33b6:	6181      	str	r1, [r0, #24]
 80a33b8:	4770      	bx	lr
  }
  else
  {
    GPIOx->BSRR = (uint32_t)GPIO_Pin << GPIO_NUMBER;
 80a33ba:	0409      	lsls	r1, r1, #16
 80a33bc:	6181      	str	r1, [r0, #24]
  }
}
 80a33be:	4770      	bx	lr

080a33c0 <HAL_GPIO_TogglePin>:

  /* Check the parameters */
  assert_param(IS_GPIO_PIN(GPIO_Pin));

  /* get current Output Data Register value */
  odr = GPIOx->ODR;
 80a33c0:	6943      	ldr	r3, [r0, #20]

  /* Set selected pins that were at low level, and reset ones that were high */
  GPIOx->BSRR = ((odr & GPIO_Pin) << GPIO_NUMBER) | (~odr & GPIO_Pin);
 80a33c2:	ea01 0203 	and.w	r2, r1, r3
 80a33c6:	ea21 0103 	bic.w	r1, r1, r3
 80a33ca:	ea41 4102 	orr.w	r1, r1, r2, lsl #16
 80a33ce:	6181      	str	r1, [r0, #24]
}
 80a33d0:	4770      	bx	lr

080a33d2 <HAL_GPIO_EXTI_IRQHandler>:
  * @brief  Handle EXTI interrupt request.
  * @param  GPIO_Pin: Specifies the port pin connected to corresponding EXTI line.
  * @retval None
  */
void HAL_GPIO_EXTI_IRQHandler(uint16_t GPIO_Pin)
{
 80a33d2:	b508      	push	{r3, lr}
#if defined(DUAL_CORE) && defined(CORE_CM4)
  if (__HAL_GPIO_EXTID2_GET_IT(GPIO_Pin) != 0x00U)
 80a33d4:	f04f 43b0 	mov.w	r3, #1476395008	@ 0x58000000
 80a33d8:	f8d3 30c8 	ldr.w	r3, [r3, #200]	@ 0xc8
 80a33dc:	4203      	tst	r3, r0
 80a33de:	d100      	bne.n	80a33e2 <HAL_GPIO_EXTI_IRQHandler+0x10>
  {
    __HAL_GPIO_EXTI_CLEAR_IT(GPIO_Pin);
    HAL_GPIO_EXTI_Callback(GPIO_Pin);
  }
#endif
}
 80a33e0:	bd08      	pop	{r3, pc}
    __HAL_GPIO_EXTID2_CLEAR_IT(GPIO_Pin);
 80a33e2:	f04f 43b0 	mov.w	r3, #1476395008	@ 0x58000000
 80a33e6:	f8c3 00c8 	str.w	r0, [r3, #200]	@ 0xc8
    HAL_GPIO_EXTI_Callback(GPIO_Pin);
 80a33ea:	f7fd fb21 	bl	80a0a30 <HAL_GPIO_EXTI_Callback>
}
 80a33ee:	e7f7      	b.n	80a33e0 <HAL_GPIO_EXTI_IRQHandler+0xe>

080a33f0 <HRTIM_MasterBase_Config>:
  * @param  pTimeBaseCfg pointer to the time base configuration structure
  * @retval None
  */
static void HRTIM_MasterBase_Config(HRTIM_HandleTypeDef *hhrtim,
                                    const HRTIM_TimeBaseCfgTypeDef *pTimeBaseCfg)
{
 80a33f0:	b410      	push	{r4}
  uint32_t hrtim_mcr;

  /* Configure master timer */
  hrtim_mcr = hhrtim->Instance->sMasterRegs.MCR;
 80a33f2:	6804      	ldr	r4, [r0, #0]
 80a33f4:	6822      	ldr	r2, [r4, #0]

  /* Set the prescaler ratio */
  hrtim_mcr &= (uint32_t) ~(HRTIM_MCR_CK_PSC);
 80a33f6:	f022 0207 	bic.w	r2, r2, #7
  hrtim_mcr |= (uint32_t)pTimeBaseCfg->PrescalerRatio;
 80a33fa:	688b      	ldr	r3, [r1, #8]
 80a33fc:	4313      	orrs	r3, r2

  /* Set the operating mode */
  hrtim_mcr &= (uint32_t) ~(HRTIM_MCR_CONT | HRTIM_MCR_RETRIG);
 80a33fe:	f023 0318 	bic.w	r3, r3, #24
  hrtim_mcr |= (uint32_t)pTimeBaseCfg->Mode;
 80a3402:	68ca      	ldr	r2, [r1, #12]
 80a3404:	431a      	orrs	r2, r3

  /* Update the HRTIM registers */
  hhrtim->Instance->sMasterRegs.MCR = hrtim_mcr;
 80a3406:	6022      	str	r2, [r4, #0]
  hhrtim->Instance->sMasterRegs.MPER = pTimeBaseCfg->Period;
 80a3408:	6803      	ldr	r3, [r0, #0]
 80a340a:	680a      	ldr	r2, [r1, #0]
 80a340c:	615a      	str	r2, [r3, #20]
  hhrtim->Instance->sMasterRegs.MREP = pTimeBaseCfg->RepetitionCounter;
 80a340e:	6803      	ldr	r3, [r0, #0]
 80a3410:	684a      	ldr	r2, [r1, #4]
 80a3412:	619a      	str	r2, [r3, #24]
}
 80a3414:	f85d 4b04 	ldr.w	r4, [sp], #4
 80a3418:	4770      	bx	lr

080a341a <HRTIM_TimingUnitBase_Config>:
  * @retval None
  */
static void HRTIM_TimingUnitBase_Config(HRTIM_HandleTypeDef *hhrtim,
                                        uint32_t TimerIdx,
                                        const HRTIM_TimeBaseCfgTypeDef *pTimeBaseCfg)
{
 80a341a:	b530      	push	{r4, r5, lr}
  uint32_t hrtim_timcr;

  /* Configure master timing unit */
  hrtim_timcr = hhrtim->Instance->sTimerxRegs[TimerIdx].TIMxCR;
 80a341c:	6804      	ldr	r4, [r0, #0]
 80a341e:	f101 0c01 	add.w	ip, r1, #1
 80a3422:	ea4f 1ccc 	mov.w	ip, ip, lsl #7
 80a3426:	f854 300c 	ldr.w	r3, [r4, ip]

  /* Set the prescaler ratio */
  hrtim_timcr &= (uint32_t) ~(HRTIM_TIMCR_CK_PSC);
 80a342a:	f023 0e07 	bic.w	lr, r3, #7
  hrtim_timcr |= (uint32_t)pTimeBaseCfg->PrescalerRatio;
 80a342e:	6893      	ldr	r3, [r2, #8]
 80a3430:	ea43 030e 	orr.w	r3, r3, lr

  /* Set the operating mode */
  hrtim_timcr &= (uint32_t) ~(HRTIM_TIMCR_CONT | HRTIM_TIMCR_RETRIG);
 80a3434:	f023 0318 	bic.w	r3, r3, #24
  hrtim_timcr |= (uint32_t)pTimeBaseCfg->Mode;
 80a3438:	68d5      	ldr	r5, [r2, #12]
 80a343a:	432b      	orrs	r3, r5

  /* Update the HRTIM registers */
  hhrtim->Instance->sTimerxRegs[TimerIdx].TIMxCR = hrtim_timcr;
 80a343c:	f844 300c 	str.w	r3, [r4, ip]
  hhrtim->Instance->sTimerxRegs[TimerIdx].PERxR = pTimeBaseCfg->Period;
 80a3440:	6803      	ldr	r3, [r0, #0]
 80a3442:	6814      	ldr	r4, [r2, #0]
 80a3444:	eb03 13c1 	add.w	r3, r3, r1, lsl #7
 80a3448:	f8c3 4094 	str.w	r4, [r3, #148]	@ 0x94
  hhrtim->Instance->sTimerxRegs[TimerIdx].REPxR = pTimeBaseCfg->RepetitionCounter;
 80a344c:	6803      	ldr	r3, [r0, #0]
 80a344e:	6852      	ldr	r2, [r2, #4]
 80a3450:	eb03 13c1 	add.w	r3, r3, r1, lsl #7
 80a3454:	f8c3 2098 	str.w	r2, [r3, #152]	@ 0x98
}
 80a3458:	bd30      	pop	{r4, r5, pc}

080a345a <HRTIM_MasterWaveform_Config>:
  * @param  pTimerCfg pointer to the timer configuration data structure
  * @retval None
  */
static void HRTIM_MasterWaveform_Config(HRTIM_HandleTypeDef *hhrtim,
                                        const HRTIM_TimerCfgTypeDef *pTimerCfg)
{
 80a345a:	b430      	push	{r4, r5}
  uint32_t hrtim_mcr;
  uint32_t hrtim_bmcr;

  /* Configure master timer */
  hrtim_mcr = hhrtim->Instance->sMasterRegs.MCR;
 80a345c:	6804      	ldr	r4, [r0, #0]
 80a345e:	6822      	ldr	r2, [r4, #0]
  hrtim_bmcr = hhrtim->Instance->sCommonRegs.BMCR;
 80a3460:	f8d4 53a0 	ldr.w	r5, [r4, #928]	@ 0x3a0

  /* Enable/Disable the half mode */
  hrtim_mcr &= ~(HRTIM_MCR_HALF);
 80a3464:	f022 0220 	bic.w	r2, r2, #32
  hrtim_mcr |= pTimerCfg->HalfModeEnable;
 80a3468:	694b      	ldr	r3, [r1, #20]
 80a346a:	4313      	orrs	r3, r2

  /* Enable/Disable the timer start upon synchronization event reception */
  hrtim_mcr &= ~(HRTIM_MCR_SYNCSTRTM);
 80a346c:	f423 6200 	bic.w	r2, r3, #2048	@ 0x800
  hrtim_mcr |= pTimerCfg->StartOnSync;
 80a3470:	698b      	ldr	r3, [r1, #24]
 80a3472:	4313      	orrs	r3, r2

  /* Enable/Disable the timer reset upon synchronization event reception */
  hrtim_mcr &= ~(HRTIM_MCR_SYNCRSTM);
 80a3474:	f423 6280 	bic.w	r2, r3, #1024	@ 0x400
  hrtim_mcr |= pTimerCfg->ResetOnSync;
 80a3478:	69cb      	ldr	r3, [r1, #28]
 80a347a:	4313      	orrs	r3, r2

  /* Enable/Disable the DAC synchronization event generation */
  hrtim_mcr &= ~(HRTIM_MCR_DACSYNC);
 80a347c:	f023 62c0 	bic.w	r2, r3, #100663296	@ 0x6000000
  hrtim_mcr |= pTimerCfg->DACSynchro;
 80a3480:	6a0b      	ldr	r3, [r1, #32]
 80a3482:	4313      	orrs	r3, r2

  /* Enable/Disable preload mechanism for timer registers */
  hrtim_mcr &= ~(HRTIM_MCR_PREEN);
 80a3484:	f023 6200 	bic.w	r2, r3, #134217728	@ 0x8000000
  hrtim_mcr |= pTimerCfg->PreloadEnable;
 80a3488:	6a4b      	ldr	r3, [r1, #36]	@ 0x24
 80a348a:	4313      	orrs	r3, r2

  /* Master timer registers update handling */
  hrtim_mcr &= ~(HRTIM_MCR_BRSTDMA);
 80a348c:	f023 4340 	bic.w	r3, r3, #3221225472	@ 0xc0000000
  hrtim_mcr |= (pTimerCfg->UpdateGating << 2U);
 80a3490:	6a8a      	ldr	r2, [r1, #40]	@ 0x28
 80a3492:	ea43 0382 	orr.w	r3, r3, r2, lsl #2

  /* Enable/Disable registers update on repetition */
  hrtim_mcr &= ~(HRTIM_MCR_MREPU);
 80a3496:	f023 5300 	bic.w	r3, r3, #536870912	@ 0x20000000
  hrtim_mcr |= pTimerCfg->RepetitionUpdate;
 80a349a:	6b0a      	ldr	r2, [r1, #48]	@ 0x30
 80a349c:	431a      	orrs	r2, r3

  /* Set the timer burst mode */
  hrtim_bmcr &= ~(HRTIM_BMCR_MTBM);
 80a349e:	f425 3580 	bic.w	r5, r5, #65536	@ 0x10000
  hrtim_bmcr |= pTimerCfg->BurstMode;
 80a34a2:	6acb      	ldr	r3, [r1, #44]	@ 0x2c
 80a34a4:	431d      	orrs	r5, r3

  /* Update the HRTIM registers */
  hhrtim->Instance->sMasterRegs.MCR = hrtim_mcr;
 80a34a6:	6022      	str	r2, [r4, #0]
  hhrtim->Instance->sCommonRegs.BMCR = hrtim_bmcr;
 80a34a8:	6803      	ldr	r3, [r0, #0]
 80a34aa:	f8c3 53a0 	str.w	r5, [r3, #928]	@ 0x3a0
}
 80a34ae:	bc30      	pop	{r4, r5}
 80a34b0:	4770      	bx	lr

080a34b2 <HRTIM_TimingUnitWaveform_Config>:
  * @retval None
  */
static void  HRTIM_TimingUnitWaveform_Config(HRTIM_HandleTypeDef *hhrtim,
                                             uint32_t TimerIdx,
                                             const HRTIM_TimerCfgTypeDef *pTimerCfg)
{
 80a34b2:	e92d 41f0 	stmdb	sp!, {r4, r5, r6, r7, r8, lr}
  uint32_t hrtim_timoutr;
  uint32_t hrtim_timrstr;
  uint32_t hrtim_bmcr;

  /* UPDGAT bitfield must be reset before programming a new value */
  hhrtim->Instance->sTimerxRegs[TimerIdx].TIMxCR &= ~(HRTIM_TIMCR_UPDGAT);
 80a34b6:	6805      	ldr	r5, [r0, #0]
 80a34b8:	1c4b      	adds	r3, r1, #1
 80a34ba:	01db      	lsls	r3, r3, #7
 80a34bc:	58ec      	ldr	r4, [r5, r3]
 80a34be:	f024 4470 	bic.w	r4, r4, #4026531840	@ 0xf0000000
 80a34c2:	50ec      	str	r4, [r5, r3]

  /* Configure timing unit (Timer A to Timer E) */
  hrtim_timcr = hhrtim->Instance->sTimerxRegs[TimerIdx].TIMxCR;
 80a34c4:	6806      	ldr	r6, [r0, #0]
 80a34c6:	58f3      	ldr	r3, [r6, r3]
  hrtim_timfltr = hhrtim->Instance->sTimerxRegs[TimerIdx].FLTxR;
 80a34c8:	eb06 14c1 	add.w	r4, r6, r1, lsl #7
 80a34cc:	f8d4 80e8 	ldr.w	r8, [r4, #232]	@ 0xe8
  hrtim_timoutr = hhrtim->Instance->sTimerxRegs[TimerIdx].OUTxR;
 80a34d0:	f8d4 40e4 	ldr.w	r4, [r4, #228]	@ 0xe4
  hrtim_bmcr = hhrtim->Instance->sCommonRegs.BMCR;
 80a34d4:	f8d6 53a0 	ldr.w	r5, [r6, #928]	@ 0x3a0

  /* Enable/Disable the half mode */
  hrtim_timcr &= ~(HRTIM_TIMCR_HALF);
 80a34d8:	f023 0c20 	bic.w	ip, r3, #32
  hrtim_timcr |= pTimerCfg->HalfModeEnable;
 80a34dc:	6953      	ldr	r3, [r2, #20]
 80a34de:	ea43 030c 	orr.w	r3, r3, ip

  /* Enable/Disable the timer start upon synchronization event reception */
  hrtim_timcr &= ~(HRTIM_TIMCR_SYNCSTRT);
 80a34e2:	f423 6c00 	bic.w	ip, r3, #2048	@ 0x800
  hrtim_timcr |= pTimerCfg->StartOnSync;
 80a34e6:	6993      	ldr	r3, [r2, #24]
 80a34e8:	ea43 030c 	orr.w	r3, r3, ip

  /* Enable/Disable the timer reset upon synchronization event reception */
  hrtim_timcr &= ~(HRTIM_TIMCR_SYNCRST);
 80a34ec:	f423 6c80 	bic.w	ip, r3, #1024	@ 0x400
  hrtim_timcr |= pTimerCfg->ResetOnSync;
 80a34f0:	69d3      	ldr	r3, [r2, #28]
 80a34f2:	ea43 030c 	orr.w	r3, r3, ip

  /* Enable/Disable the DAC synchronization event generation */
  hrtim_timcr &= ~(HRTIM_TIMCR_DACSYNC);
 80a34f6:	f023 6cc0 	bic.w	ip, r3, #100663296	@ 0x6000000
  hrtim_timcr |= pTimerCfg->DACSynchro;
 80a34fa:	6a13      	ldr	r3, [r2, #32]
 80a34fc:	ea43 030c 	orr.w	r3, r3, ip

  /* Enable/Disable preload mechanism for timer registers */
  hrtim_timcr &= ~(HRTIM_TIMCR_PREEN);
 80a3500:	f023 6c00 	bic.w	ip, r3, #134217728	@ 0x8000000
  hrtim_timcr |= pTimerCfg->PreloadEnable;
 80a3504:	6a53      	ldr	r3, [r2, #36]	@ 0x24
 80a3506:	ea43 030c 	orr.w	r3, r3, ip

  /* Timing unit registers update handling */
  hrtim_timcr &= ~(HRTIM_TIMCR_UPDGAT);
 80a350a:	f023 4c70 	bic.w	ip, r3, #4026531840	@ 0xf0000000
  hrtim_timcr |= pTimerCfg->UpdateGating;
 80a350e:	6a93      	ldr	r3, [r2, #40]	@ 0x28
 80a3510:	ea43 030c 	orr.w	r3, r3, ip

  /* Enable/Disable registers update on repetition */
  hrtim_timcr &= ~(HRTIM_TIMCR_TREPU);
 80a3514:	f423 3300 	bic.w	r3, r3, #131072	@ 0x20000
  if (pTimerCfg->RepetitionUpdate == HRTIM_UPDATEONREPETITION_ENABLED)
 80a3518:	6b17      	ldr	r7, [r2, #48]	@ 0x30
 80a351a:	f1b7 5f00 	cmp.w	r7, #536870912	@ 0x20000000
 80a351e:	d032      	beq.n	80a3586 <HRTIM_TimingUnitWaveform_Config+0xd4>
  {
    hrtim_timcr |= HRTIM_TIMCR_TREPU;
  }

  /* Set the push-pull mode */
  hrtim_timcr &= ~(HRTIM_TIMCR_PSHPLL);
 80a3520:	f023 0340 	bic.w	r3, r3, #64	@ 0x40
  hrtim_timcr |= pTimerCfg->PushPull;
 80a3524:	f8d2 c034 	ldr.w	ip, [r2, #52]	@ 0x34
 80a3528:	ea4c 0303 	orr.w	r3, ip, r3

  /* Enable/Disable registers update on timer counter reset */
  hrtim_timcr &= ~(HRTIM_TIMCR_TRSTU);
 80a352c:	f423 2380 	bic.w	r3, r3, #262144	@ 0x40000
  hrtim_timcr |= pTimerCfg->ResetUpdate;
 80a3530:	6d17      	ldr	r7, [r2, #80]	@ 0x50
 80a3532:	ea47 0e03 	orr.w	lr, r7, r3

  /* Set the timer update trigger */
  hrtim_timcr &= ~(HRTIM_TIMCR_TIMUPDATETRIGGER);
 80a3536:	f02e 7efc 	bic.w	lr, lr, #33030144	@ 0x1f80000
  hrtim_timcr |= pTimerCfg->UpdateTrigger;
 80a353a:	6c93      	ldr	r3, [r2, #72]	@ 0x48
 80a353c:	ea43 0e0e 	orr.w	lr, r3, lr

  /* Enable/Disable the fault channel at timer level */
  hrtim_timfltr &= ~(HRTIM_FLTR_FLTxEN);
 80a3540:	f028 071f 	bic.w	r7, r8, #31
  hrtim_timfltr |= (pTimerCfg->FaultEnable & HRTIM_FLTR_FLTxEN);
 80a3544:	6b93      	ldr	r3, [r2, #56]	@ 0x38
 80a3546:	f003 031f 	and.w	r3, r3, #31
 80a354a:	433b      	orrs	r3, r7

  /* Lock/Unlock fault sources at timer level */
  hrtim_timfltr &= ~(HRTIM_FLTR_FLTLCK);
 80a354c:	f023 4300 	bic.w	r3, r3, #2147483648	@ 0x80000000
  hrtim_timfltr |= pTimerCfg->FaultLock;
 80a3550:	6bd7      	ldr	r7, [r2, #60]	@ 0x3c
 80a3552:	433b      	orrs	r3, r7

  /* The deadtime cannot be used simultaneously with the push-pull mode */
  if (pTimerCfg->PushPull == HRTIM_TIMPUSHPULLMODE_DISABLED)
 80a3554:	f1bc 0f00 	cmp.w	ip, #0
 80a3558:	d103      	bne.n	80a3562 <HRTIM_TimingUnitWaveform_Config+0xb0>
  {
    /* Enable/Disable dead time insertion at timer level */
    hrtim_timoutr &= ~(HRTIM_OUTR_DTEN);
 80a355a:	f424 7480 	bic.w	r4, r4, #256	@ 0x100
    hrtim_timoutr |= pTimerCfg->DeadTimeInsertion;
 80a355e:	6c17      	ldr	r7, [r2, #64]	@ 0x40
 80a3560:	433c      	orrs	r4, r7

  /* Enable/Disable delayed protection at timer level
     Delayed Idle is available whatever the timer operating mode (regular, push-pull)
     Balanced Idle is only available in push-pull mode
  */
  if (((pTimerCfg->DelayedProtectionMode != HRTIM_TIMER_A_B_C_DELAYEDPROTECTION_BALANCED_EEV6)
 80a3562:	6c57      	ldr	r7, [r2, #68]	@ 0x44
 80a3564:	f5b7 6f60 	cmp.w	r7, #3584	@ 0xe00
 80a3568:	d010      	beq.n	80a358c <HRTIM_TimingUnitWaveform_Config+0xda>
       && (pTimerCfg->DelayedProtectionMode != HRTIM_TIMER_A_B_C_DELAYEDPROTECTION_BALANCED_EEV7))
 80a356a:	f5b7 5ff0 	cmp.w	r7, #7680	@ 0x1e00
 80a356e:	d00d      	beq.n	80a358c <HRTIM_TimingUnitWaveform_Config+0xda>
      || (pTimerCfg->PushPull == HRTIM_TIMPUSHPULLMODE_ENABLED))
  {
    hrtim_timoutr &= ~(HRTIM_OUTR_DLYPRT | HRTIM_OUTR_DLYPRTEN);
 80a3570:	f424 54f0 	bic.w	r4, r4, #7680	@ 0x1e00
    hrtim_timoutr |= pTimerCfg->DelayedProtectionMode;
 80a3574:	433c      	orrs	r4, r7
  }

  /* Set the timer counter reset trigger */
  hrtim_timrstr = pTimerCfg->ResetTrigger;
 80a3576:	6cd7      	ldr	r7, [r2, #76]	@ 0x4c

  /* Set the timer burst mode */
  switch (TimerIdx)
 80a3578:	2904      	cmp	r1, #4
 80a357a:	d810      	bhi.n	80a359e <HRTIM_TimingUnitWaveform_Config+0xec>
 80a357c:	e8df f001 	tbb	[pc, r1]
 80a3580:	332d270a 	.word	0x332d270a
 80a3584:	39          	.byte	0x39
 80a3585:	00          	.byte	0x00
    hrtim_timcr |= HRTIM_TIMCR_TREPU;
 80a3586:	f443 3300 	orr.w	r3, r3, #131072	@ 0x20000
 80a358a:	e7c9      	b.n	80a3520 <HRTIM_TimingUnitWaveform_Config+0x6e>
      || (pTimerCfg->PushPull == HRTIM_TIMPUSHPULLMODE_ENABLED))
 80a358c:	f1bc 0f40 	cmp.w	ip, #64	@ 0x40
 80a3590:	d1f1      	bne.n	80a3576 <HRTIM_TimingUnitWaveform_Config+0xc4>
 80a3592:	e7ed      	b.n	80a3570 <HRTIM_TimingUnitWaveform_Config+0xbe>
  {
    case HRTIM_TIMERINDEX_TIMER_A:
    {
      hrtim_bmcr &= ~(HRTIM_BMCR_TABM);
 80a3594:	f425 3500 	bic.w	r5, r5, #131072	@ 0x20000
      hrtim_bmcr |= (pTimerCfg->BurstMode << 1U);
 80a3598:	6ad2      	ldr	r2, [r2, #44]	@ 0x2c
 80a359a:	ea45 0542 	orr.w	r5, r5, r2, lsl #1
    default:
      break;
  }

  /* Update the HRTIM registers */
  hhrtim->Instance->sTimerxRegs[TimerIdx].TIMxCR = hrtim_timcr;
 80a359e:	1c4a      	adds	r2, r1, #1
 80a35a0:	01d2      	lsls	r2, r2, #7
 80a35a2:	f846 e002 	str.w	lr, [r6, r2]
  hhrtim->Instance->sTimerxRegs[TimerIdx].FLTxR = hrtim_timfltr;
 80a35a6:	6802      	ldr	r2, [r0, #0]
 80a35a8:	eb02 12c1 	add.w	r2, r2, r1, lsl #7
 80a35ac:	f8c2 30e8 	str.w	r3, [r2, #232]	@ 0xe8
  hhrtim->Instance->sTimerxRegs[TimerIdx].OUTxR = hrtim_timoutr;
 80a35b0:	6803      	ldr	r3, [r0, #0]
 80a35b2:	eb03 13c1 	add.w	r3, r3, r1, lsl #7
 80a35b6:	f8c3 40e4 	str.w	r4, [r3, #228]	@ 0xe4
  hhrtim->Instance->sTimerxRegs[TimerIdx].RSTxR = hrtim_timrstr;
 80a35ba:	6803      	ldr	r3, [r0, #0]
 80a35bc:	eb03 13c1 	add.w	r3, r3, r1, lsl #7
 80a35c0:	f8c3 70d4 	str.w	r7, [r3, #212]	@ 0xd4
  hhrtim->Instance->sCommonRegs.BMCR = hrtim_bmcr;
 80a35c4:	6803      	ldr	r3, [r0, #0]
 80a35c6:	f8c3 53a0 	str.w	r5, [r3, #928]	@ 0x3a0
}
 80a35ca:	e8bd 81f0 	ldmia.w	sp!, {r4, r5, r6, r7, r8, pc}
      hrtim_bmcr &= ~(HRTIM_BMCR_TBBM);
 80a35ce:	f425 2580 	bic.w	r5, r5, #262144	@ 0x40000
      hrtim_bmcr |= (pTimerCfg->BurstMode << 2U);
 80a35d2:	6ad2      	ldr	r2, [r2, #44]	@ 0x2c
 80a35d4:	ea45 0582 	orr.w	r5, r5, r2, lsl #2
      break;
 80a35d8:	e7e1      	b.n	80a359e <HRTIM_TimingUnitWaveform_Config+0xec>
      hrtim_bmcr &= ~(HRTIM_BMCR_TCBM);
 80a35da:	f425 2500 	bic.w	r5, r5, #524288	@ 0x80000
      hrtim_bmcr |= (pTimerCfg->BurstMode << 3U);
 80a35de:	6ad2      	ldr	r2, [r2, #44]	@ 0x2c
 80a35e0:	ea45 05c2 	orr.w	r5, r5, r2, lsl #3
      break;
 80a35e4:	e7db      	b.n	80a359e <HRTIM_TimingUnitWaveform_Config+0xec>
      hrtim_bmcr &= ~(HRTIM_BMCR_TDBM);
 80a35e6:	f425 1580 	bic.w	r5, r5, #1048576	@ 0x100000
      hrtim_bmcr |= (pTimerCfg->BurstMode << 4U);
 80a35ea:	6ad2      	ldr	r2, [r2, #44]	@ 0x2c
 80a35ec:	ea45 1502 	orr.w	r5, r5, r2, lsl #4
      break;
 80a35f0:	e7d5      	b.n	80a359e <HRTIM_TimingUnitWaveform_Config+0xec>
      hrtim_bmcr &= ~(HRTIM_BMCR_TEBM);
 80a35f2:	f425 1500 	bic.w	r5, r5, #2097152	@ 0x200000
      hrtim_bmcr |= (pTimerCfg->BurstMode << 5U);
 80a35f6:	6ad2      	ldr	r2, [r2, #44]	@ 0x2c
 80a35f8:	ea45 1542 	orr.w	r5, r5, r2, lsl #5
      break;
 80a35fc:	e7cf      	b.n	80a359e <HRTIM_TimingUnitWaveform_Config+0xec>

080a35fe <HRTIM_EventConfig>:
  * @retval None
  */
static void HRTIM_EventConfig(HRTIM_HandleTypeDef *hhrtim,
                              uint32_t Event,
                              const HRTIM_EventCfgTypeDef *pEventCfg)
{
 80a35fe:	b470      	push	{r4, r5, r6}
  uint32_t hrtim_eecr1;
  uint32_t hrtim_eecr2;
  uint32_t hrtim_eecr3;

  /* Configure external event channel */
  hrtim_eecr1 = hhrtim->Instance->sCommonRegs.EECR1;
 80a3600:	6803      	ldr	r3, [r0, #0]
 80a3602:	f8d3 63b0 	ldr.w	r6, [r3, #944]	@ 0x3b0
  hrtim_eecr2 = hhrtim->Instance->sCommonRegs.EECR2;
 80a3606:	f8d3 53b4 	ldr.w	r5, [r3, #948]	@ 0x3b4
  hrtim_eecr3 = hhrtim->Instance->sCommonRegs.EECR3;
 80a360a:	f8d3 43b8 	ldr.w	r4, [r3, #952]	@ 0x3b8

  switch (Event)
 80a360e:	290a      	cmp	r1, #10
 80a3610:	d815      	bhi.n	80a363e <HRTIM_EventConfig+0x40>
 80a3612:	e8df f011 	tbh	[pc, r1, lsl #1]
 80a3616:	000b      	.short	0x000b
 80a3618:	002f0016 	.word	0x002f0016
 80a361c:	0066004a 	.word	0x0066004a
 80a3620:	009e0082 	.word	0x009e0082
 80a3624:	00d500b8 	.word	0x00d500b8
 80a3628:	011000f2 	.word	0x011000f2
  {
    case HRTIM_EVENT_NONE:
    {
      /* Update the HRTIM registers */
      hhrtim->Instance->sCommonRegs.EECR1 = 0U;
 80a362c:	2200      	movs	r2, #0
 80a362e:	f8c3 23b0 	str.w	r2, [r3, #944]	@ 0x3b0
      hhrtim->Instance->sCommonRegs.EECR2 = 0U;
 80a3632:	6803      	ldr	r3, [r0, #0]
 80a3634:	f8c3 23b4 	str.w	r2, [r3, #948]	@ 0x3b4
      hhrtim->Instance->sCommonRegs.EECR3 = 0U;
 80a3638:	6803      	ldr	r3, [r0, #0]
 80a363a:	f8c3 23b8 	str.w	r2, [r3, #952]	@ 0x3b8
    }

    default:
      break;
  }
}
 80a363e:	bc70      	pop	{r4, r5, r6}
 80a3640:	4770      	bx	lr
      hrtim_eecr1 &= ~(HRTIM_EECR1_EE1SRC | HRTIM_EECR1_EE1POL | HRTIM_EECR1_EE1SNS | HRTIM_EECR1_EE1FAST);
 80a3642:	f026 063f 	bic.w	r6, r6, #63	@ 0x3f
      hrtim_eecr1 |= (pEventCfg->Source & HRTIM_EECR1_EE1SRC);
 80a3646:	6811      	ldr	r1, [r2, #0]
 80a3648:	f001 0103 	and.w	r1, r1, #3
 80a364c:	ea41 0406 	orr.w	r4, r1, r6
      hrtim_eecr1 |= (pEventCfg->Polarity & HRTIM_EECR1_EE1POL);
 80a3650:	6851      	ldr	r1, [r2, #4]
 80a3652:	f001 0104 	and.w	r1, r1, #4
 80a3656:	430c      	orrs	r4, r1
      hrtim_eecr1 |= (pEventCfg->Sensitivity & HRTIM_EECR1_EE1SNS);
 80a3658:	6891      	ldr	r1, [r2, #8]
 80a365a:	f001 0118 	and.w	r1, r1, #24
 80a365e:	4321      	orrs	r1, r4
      hhrtim->Instance->sCommonRegs.EECR1 = hrtim_eecr1;
 80a3660:	f8c3 13b0 	str.w	r1, [r3, #944]	@ 0x3b0
      hrtim_eecr1 |= (pEventCfg->FastMode  & HRTIM_EECR1_EE1FAST);
 80a3664:	6913      	ldr	r3, [r2, #16]
 80a3666:	f003 0320 	and.w	r3, r3, #32
 80a366a:	430b      	orrs	r3, r1
      hhrtim->Instance->sCommonRegs.EECR1 = hrtim_eecr1;
 80a366c:	6802      	ldr	r2, [r0, #0]
 80a366e:	f8c2 33b0 	str.w	r3, [r2, #944]	@ 0x3b0
      break;
 80a3672:	e7e4      	b.n	80a363e <HRTIM_EventConfig+0x40>
      hrtim_eecr1 &= ~(HRTIM_EECR1_EE2SRC | HRTIM_EECR1_EE2POL | HRTIM_EECR1_EE2SNS | HRTIM_EECR1_EE2FAST);
 80a3674:	f426 667c 	bic.w	r6, r6, #4032	@ 0xfc0
      hrtim_eecr1 |= ((pEventCfg->Source << 6U) & HRTIM_EECR1_EE2SRC);
 80a3678:	6811      	ldr	r1, [r2, #0]
 80a367a:	018d      	lsls	r5, r1, #6
 80a367c:	b2ed      	uxtb	r5, r5
 80a367e:	4335      	orrs	r5, r6
      hrtim_eecr1 |= ((pEventCfg->Polarity << 6U) & HRTIM_EECR1_EE2POL);
 80a3680:	6851      	ldr	r1, [r2, #4]
 80a3682:	018c      	lsls	r4, r1, #6
 80a3684:	f404 7480 	and.w	r4, r4, #256	@ 0x100
 80a3688:	432c      	orrs	r4, r5
      hrtim_eecr1 |= ((pEventCfg->Sensitivity << 6U) & HRTIM_EECR1_EE2SNS);
 80a368a:	6891      	ldr	r1, [r2, #8]
 80a368c:	0189      	lsls	r1, r1, #6
 80a368e:	f401 61c0 	and.w	r1, r1, #1536	@ 0x600
 80a3692:	4321      	orrs	r1, r4
      hhrtim->Instance->sCommonRegs.EECR1 = hrtim_eecr1;
 80a3694:	f8c3 13b0 	str.w	r1, [r3, #944]	@ 0x3b0
      hrtim_eecr1 |= ((pEventCfg->FastMode << 6U) & HRTIM_EECR1_EE2FAST);
 80a3698:	6913      	ldr	r3, [r2, #16]
 80a369a:	019b      	lsls	r3, r3, #6
 80a369c:	f403 6300 	and.w	r3, r3, #2048	@ 0x800
 80a36a0:	430b      	orrs	r3, r1
      hhrtim->Instance->sCommonRegs.EECR1 = hrtim_eecr1;
 80a36a2:	6802      	ldr	r2, [r0, #0]
 80a36a4:	f8c2 33b0 	str.w	r3, [r2, #944]	@ 0x3b0
      break;
 80a36a8:	e7c9      	b.n	80a363e <HRTIM_EventConfig+0x40>
      hrtim_eecr1 &= ~(HRTIM_EECR1_EE3SRC | HRTIM_EECR1_EE3POL | HRTIM_EECR1_EE3SNS | HRTIM_EECR1_EE3FAST);
 80a36aa:	f426 367c 	bic.w	r6, r6, #258048	@ 0x3f000
      hrtim_eecr1 |= ((pEventCfg->Source << 12U) & HRTIM_EECR1_EE3SRC);
 80a36ae:	6811      	ldr	r1, [r2, #0]
 80a36b0:	030d      	lsls	r5, r1, #12
 80a36b2:	f405 5540 	and.w	r5, r5, #12288	@ 0x3000
 80a36b6:	4335      	orrs	r5, r6
      hrtim_eecr1 |= ((pEventCfg->Polarity << 12U) & HRTIM_EECR1_EE3POL);
 80a36b8:	6851      	ldr	r1, [r2, #4]
 80a36ba:	030c      	lsls	r4, r1, #12
 80a36bc:	f404 4480 	and.w	r4, r4, #16384	@ 0x4000
 80a36c0:	432c      	orrs	r4, r5
      hrtim_eecr1 |= ((pEventCfg->Sensitivity << 12U) & HRTIM_EECR1_EE3SNS);
 80a36c2:	6891      	ldr	r1, [r2, #8]
 80a36c4:	0309      	lsls	r1, r1, #12
 80a36c6:	f401 31c0 	and.w	r1, r1, #98304	@ 0x18000
 80a36ca:	4321      	orrs	r1, r4
      hhrtim->Instance->sCommonRegs.EECR1 = hrtim_eecr1;
 80a36cc:	f8c3 13b0 	str.w	r1, [r3, #944]	@ 0x3b0
      hrtim_eecr1 |= ((pEventCfg->FastMode << 12U) & HRTIM_EECR1_EE3FAST);
 80a36d0:	6913      	ldr	r3, [r2, #16]
 80a36d2:	031b      	lsls	r3, r3, #12
 80a36d4:	f403 3300 	and.w	r3, r3, #131072	@ 0x20000
 80a36d8:	430b      	orrs	r3, r1
      hhrtim->Instance->sCommonRegs.EECR1 = hrtim_eecr1;
 80a36da:	6802      	ldr	r2, [r0, #0]
 80a36dc:	f8c2 33b0 	str.w	r3, [r2, #944]	@ 0x3b0
      break;
 80a36e0:	e7ad      	b.n	80a363e <HRTIM_EventConfig+0x40>
      hrtim_eecr1 &= ~(HRTIM_EECR1_EE4SRC | HRTIM_EECR1_EE4POL | HRTIM_EECR1_EE4SNS | HRTIM_EECR1_EE4FAST);
 80a36e2:	f426 067c 	bic.w	r6, r6, #16515072	@ 0xfc0000
      hrtim_eecr1 |= ((pEventCfg->Source << 18U) & HRTIM_EECR1_EE4SRC);
 80a36e6:	6811      	ldr	r1, [r2, #0]
 80a36e8:	048d      	lsls	r5, r1, #18
 80a36ea:	f405 2540 	and.w	r5, r5, #786432	@ 0xc0000
 80a36ee:	4335      	orrs	r5, r6
      hrtim_eecr1 |= ((pEventCfg->Polarity << 18U) & HRTIM_EECR1_EE4POL);
 80a36f0:	6851      	ldr	r1, [r2, #4]
 80a36f2:	048c      	lsls	r4, r1, #18
 80a36f4:	f404 1480 	and.w	r4, r4, #1048576	@ 0x100000
 80a36f8:	432c      	orrs	r4, r5
      hrtim_eecr1 |= ((pEventCfg->Sensitivity << 18U) & HRTIM_EECR1_EE4SNS);
 80a36fa:	6891      	ldr	r1, [r2, #8]
 80a36fc:	0489      	lsls	r1, r1, #18
 80a36fe:	f401 01c0 	and.w	r1, r1, #6291456	@ 0x600000
 80a3702:	4321      	orrs	r1, r4
      hhrtim->Instance->sCommonRegs.EECR1 = hrtim_eecr1;
 80a3704:	f8c3 13b0 	str.w	r1, [r3, #944]	@ 0x3b0
      hrtim_eecr1 |= ((pEventCfg->FastMode << 18U) & HRTIM_EECR1_EE4FAST);
 80a3708:	6913      	ldr	r3, [r2, #16]
 80a370a:	049b      	lsls	r3, r3, #18
 80a370c:	f403 0300 	and.w	r3, r3, #8388608	@ 0x800000
 80a3710:	430b      	orrs	r3, r1
      hhrtim->Instance->sCommonRegs.EECR1 = hrtim_eecr1;
 80a3712:	6802      	ldr	r2, [r0, #0]
 80a3714:	f8c2 33b0 	str.w	r3, [r2, #944]	@ 0x3b0
      break;
 80a3718:	e791      	b.n	80a363e <HRTIM_EventConfig+0x40>
      hrtim_eecr1 &= ~(HRTIM_EECR1_EE5SRC | HRTIM_EECR1_EE5POL | HRTIM_EECR1_EE5SNS | HRTIM_EECR1_EE5FAST);
 80a371a:	f026 567c 	bic.w	r6, r6, #1056964608	@ 0x3f000000
      hrtim_eecr1 |= ((pEventCfg->Source << 24U) & HRTIM_EECR1_EE5SRC);
 80a371e:	6811      	ldr	r1, [r2, #0]
 80a3720:	060d      	lsls	r5, r1, #24
 80a3722:	f005 7540 	and.w	r5, r5, #50331648	@ 0x3000000
 80a3726:	4335      	orrs	r5, r6
      hrtim_eecr1 |= ((pEventCfg->Polarity << 24U) & HRTIM_EECR1_EE5POL);
 80a3728:	6851      	ldr	r1, [r2, #4]
 80a372a:	060c      	lsls	r4, r1, #24
 80a372c:	f004 6480 	and.w	r4, r4, #67108864	@ 0x4000000
 80a3730:	432c      	orrs	r4, r5
      hrtim_eecr1 |= ((pEventCfg->Sensitivity << 24U) & HRTIM_EECR1_EE5SNS);
 80a3732:	6891      	ldr	r1, [r2, #8]
 80a3734:	0609      	lsls	r1, r1, #24
 80a3736:	f001 51c0 	and.w	r1, r1, #402653184	@ 0x18000000
 80a373a:	4321      	orrs	r1, r4
      hhrtim->Instance->sCommonRegs.EECR1 = hrtim_eecr1;
 80a373c:	f8c3 13b0 	str.w	r1, [r3, #944]	@ 0x3b0
      hrtim_eecr1 |= ((pEventCfg->FastMode << 24U) & HRTIM_EECR1_EE5FAST);
 80a3740:	6913      	ldr	r3, [r2, #16]
 80a3742:	061b      	lsls	r3, r3, #24
 80a3744:	f003 5300 	and.w	r3, r3, #536870912	@ 0x20000000
 80a3748:	430b      	orrs	r3, r1
      hhrtim->Instance->sCommonRegs.EECR1 = hrtim_eecr1;
 80a374a:	6802      	ldr	r2, [r0, #0]
 80a374c:	f8c2 33b0 	str.w	r3, [r2, #944]	@ 0x3b0
      break;
 80a3750:	e775      	b.n	80a363e <HRTIM_EventConfig+0x40>
      hrtim_eecr2 &= ~(HRTIM_EECR2_EE6SRC | HRTIM_EECR2_EE6POL | HRTIM_EECR2_EE6SNS);
 80a3752:	f025 051f 	bic.w	r5, r5, #31
      hrtim_eecr2 |= (pEventCfg->Source & HRTIM_EECR2_EE6SRC);
 80a3756:	6811      	ldr	r1, [r2, #0]
 80a3758:	f001 0103 	and.w	r1, r1, #3
 80a375c:	430d      	orrs	r5, r1
      hrtim_eecr2 |= (pEventCfg->Polarity & HRTIM_EECR2_EE6POL);
 80a375e:	6851      	ldr	r1, [r2, #4]
 80a3760:	f001 0104 	and.w	r1, r1, #4
 80a3764:	430d      	orrs	r5, r1
      hrtim_eecr2 |= (pEventCfg->Sensitivity & HRTIM_EECR2_EE6SNS);
 80a3766:	6891      	ldr	r1, [r2, #8]
 80a3768:	f001 0118 	and.w	r1, r1, #24
 80a376c:	4329      	orrs	r1, r5
      hrtim_eecr3 &= ~(HRTIM_EECR3_EE6F);
 80a376e:	f024 040f 	bic.w	r4, r4, #15
      hrtim_eecr3 |= (pEventCfg->Filter & HRTIM_EECR3_EE6F);
 80a3772:	68d2      	ldr	r2, [r2, #12]
 80a3774:	f002 020f 	and.w	r2, r2, #15
 80a3778:	4322      	orrs	r2, r4
      hhrtim->Instance->sCommonRegs.EECR2 = hrtim_eecr2;
 80a377a:	f8c3 13b4 	str.w	r1, [r3, #948]	@ 0x3b4
      hhrtim->Instance->sCommonRegs.EECR3 = hrtim_eecr3;
 80a377e:	6803      	ldr	r3, [r0, #0]
 80a3780:	f8c3 23b8 	str.w	r2, [r3, #952]	@ 0x3b8
      break;
 80a3784:	e75b      	b.n	80a363e <HRTIM_EventConfig+0x40>
      hrtim_eecr2 &= ~(HRTIM_EECR2_EE7SRC | HRTIM_EECR2_EE7POL | HRTIM_EECR2_EE7SNS);
 80a3786:	f425 65f8 	bic.w	r5, r5, #1984	@ 0x7c0
      hrtim_eecr2 |= ((pEventCfg->Source << 6U) & HRTIM_EECR2_EE7SRC);
 80a378a:	6811      	ldr	r1, [r2, #0]
 80a378c:	018e      	lsls	r6, r1, #6
 80a378e:	b2f6      	uxtb	r6, r6
 80a3790:	432e      	orrs	r6, r5
      hrtim_eecr2 |= ((pEventCfg->Polarity << 6U) & HRTIM_EECR2_EE7POL);
 80a3792:	6851      	ldr	r1, [r2, #4]
 80a3794:	018d      	lsls	r5, r1, #6
 80a3796:	f405 7580 	and.w	r5, r5, #256	@ 0x100
 80a379a:	4335      	orrs	r5, r6
      hrtim_eecr2 |= ((pEventCfg->Sensitivity << 6U) & HRTIM_EECR2_EE7SNS);
 80a379c:	6891      	ldr	r1, [r2, #8]
 80a379e:	0189      	lsls	r1, r1, #6
 80a37a0:	f401 61c0 	and.w	r1, r1, #1536	@ 0x600
 80a37a4:	4329      	orrs	r1, r5
      hrtim_eecr3 &= ~(HRTIM_EECR3_EE7F);
 80a37a6:	f424 7470 	bic.w	r4, r4, #960	@ 0x3c0
      hrtim_eecr3 |= ((pEventCfg->Filter << 6U) & HRTIM_EECR3_EE7F);
 80a37aa:	68d2      	ldr	r2, [r2, #12]
 80a37ac:	0192      	lsls	r2, r2, #6
 80a37ae:	f402 7270 	and.w	r2, r2, #960	@ 0x3c0
 80a37b2:	4322      	orrs	r2, r4
      hhrtim->Instance->sCommonRegs.EECR2 = hrtim_eecr2;
 80a37b4:	f8c3 13b4 	str.w	r1, [r3, #948]	@ 0x3b4
      hhrtim->Instance->sCommonRegs.EECR3 = hrtim_eecr3;
 80a37b8:	6803      	ldr	r3, [r0, #0]
 80a37ba:	f8c3 23b8 	str.w	r2, [r3, #952]	@ 0x3b8
      break;
 80a37be:	e73e      	b.n	80a363e <HRTIM_EventConfig+0x40>
      hrtim_eecr2 &= ~(HRTIM_EECR2_EE8SRC | HRTIM_EECR2_EE8POL | HRTIM_EECR2_EE8SNS);
 80a37c0:	f425 35f8 	bic.w	r5, r5, #126976	@ 0x1f000
      hrtim_eecr2 |= ((pEventCfg->Source << 12U) & HRTIM_EECR2_EE8SRC);
 80a37c4:	6811      	ldr	r1, [r2, #0]
 80a37c6:	030e      	lsls	r6, r1, #12
 80a37c8:	f406 5640 	and.w	r6, r6, #12288	@ 0x3000
 80a37cc:	432e      	orrs	r6, r5
      hrtim_eecr2 |= ((pEventCfg->Polarity << 12U) & HRTIM_EECR2_EE8POL);
 80a37ce:	6851      	ldr	r1, [r2, #4]
 80a37d0:	030d      	lsls	r5, r1, #12
 80a37d2:	f405 4580 	and.w	r5, r5, #16384	@ 0x4000
 80a37d6:	4335      	orrs	r5, r6
      hrtim_eecr2 |= ((pEventCfg->Sensitivity << 12U) & HRTIM_EECR2_EE8SNS);
 80a37d8:	6891      	ldr	r1, [r2, #8]
 80a37da:	0309      	lsls	r1, r1, #12
 80a37dc:	f401 31c0 	and.w	r1, r1, #98304	@ 0x18000
 80a37e0:	4329      	orrs	r1, r5
      hrtim_eecr3 &= ~(HRTIM_EECR3_EE8F);
 80a37e2:	f424 4470 	bic.w	r4, r4, #61440	@ 0xf000
      hrtim_eecr3 |= ((pEventCfg->Filter << 12U) & HRTIM_EECR3_EE8F);
 80a37e6:	68d2      	ldr	r2, [r2, #12]
 80a37e8:	0312      	lsls	r2, r2, #12
 80a37ea:	b292      	uxth	r2, r2
 80a37ec:	4322      	orrs	r2, r4
      hhrtim->Instance->sCommonRegs.EECR2 = hrtim_eecr2;
 80a37ee:	f8c3 13b4 	str.w	r1, [r3, #948]	@ 0x3b4
      hhrtim->Instance->sCommonRegs.EECR3 = hrtim_eecr3;
 80a37f2:	6803      	ldr	r3, [r0, #0]
 80a37f4:	f8c3 23b8 	str.w	r2, [r3, #952]	@ 0x3b8
      break;
 80a37f8:	e721      	b.n	80a363e <HRTIM_EventConfig+0x40>
      hrtim_eecr2 &= ~(HRTIM_EECR2_EE9SRC | HRTIM_EECR2_EE9POL | HRTIM_EECR2_EE9SNS);
 80a37fa:	f425 05f8 	bic.w	r5, r5, #8126464	@ 0x7c0000
      hrtim_eecr2 |= ((pEventCfg->Source << 18U) & HRTIM_EECR2_EE9SRC);
 80a37fe:	6811      	ldr	r1, [r2, #0]
 80a3800:	048e      	lsls	r6, r1, #18
 80a3802:	f406 2640 	and.w	r6, r6, #786432	@ 0xc0000
 80a3806:	432e      	orrs	r6, r5
      hrtim_eecr2 |= ((pEventCfg->Polarity << 18U) & HRTIM_EECR2_EE9POL);
 80a3808:	6851      	ldr	r1, [r2, #4]
 80a380a:	048d      	lsls	r5, r1, #18
 80a380c:	f405 1580 	and.w	r5, r5, #1048576	@ 0x100000
 80a3810:	4335      	orrs	r5, r6
      hrtim_eecr2 |= ((pEventCfg->Sensitivity << 18U) & HRTIM_EECR2_EE9SNS);
 80a3812:	6891      	ldr	r1, [r2, #8]
 80a3814:	0489      	lsls	r1, r1, #18
 80a3816:	f401 01c0 	and.w	r1, r1, #6291456	@ 0x600000
 80a381a:	4329      	orrs	r1, r5
      hrtim_eecr3 &= ~(HRTIM_EECR3_EE9F);
 80a381c:	f424 1470 	bic.w	r4, r4, #3932160	@ 0x3c0000
      hrtim_eecr3 |= ((pEventCfg->Filter << 18U) & HRTIM_EECR3_EE9F);
 80a3820:	68d2      	ldr	r2, [r2, #12]
 80a3822:	0492      	lsls	r2, r2, #18
 80a3824:	f402 1270 	and.w	r2, r2, #3932160	@ 0x3c0000
 80a3828:	4322      	orrs	r2, r4
      hhrtim->Instance->sCommonRegs.EECR2 = hrtim_eecr2;
 80a382a:	f8c3 13b4 	str.w	r1, [r3, #948]	@ 0x3b4
      hhrtim->Instance->sCommonRegs.EECR3 = hrtim_eecr3;
 80a382e:	6803      	ldr	r3, [r0, #0]
 80a3830:	f8c3 23b8 	str.w	r2, [r3, #952]	@ 0x3b8
      break;
 80a3834:	e703      	b.n	80a363e <HRTIM_EventConfig+0x40>
      hrtim_eecr2 &= ~(HRTIM_EECR2_EE10SRC | HRTIM_EECR2_EE10POL | HRTIM_EECR2_EE10SNS);
 80a3836:	f025 55f8 	bic.w	r5, r5, #520093696	@ 0x1f000000
      hrtim_eecr2 |= ((pEventCfg->Source << 24U) & HRTIM_EECR2_EE10SRC);
 80a383a:	6811      	ldr	r1, [r2, #0]
 80a383c:	060e      	lsls	r6, r1, #24
 80a383e:	f006 7640 	and.w	r6, r6, #50331648	@ 0x3000000
 80a3842:	432e      	orrs	r6, r5
      hrtim_eecr2 |= ((pEventCfg->Polarity << 24U) & HRTIM_EECR2_EE10POL);
 80a3844:	6851      	ldr	r1, [r2, #4]
 80a3846:	060d      	lsls	r5, r1, #24
 80a3848:	f005 6580 	and.w	r5, r5, #67108864	@ 0x4000000
 80a384c:	4335      	orrs	r5, r6
      hrtim_eecr2 |= ((pEventCfg->Sensitivity << 24U) & HRTIM_EECR2_EE10SNS);
 80a384e:	6891      	ldr	r1, [r2, #8]
 80a3850:	0609      	lsls	r1, r1, #24
 80a3852:	f001 51c0 	and.w	r1, r1, #402653184	@ 0x18000000
 80a3856:	4329      	orrs	r1, r5
      hrtim_eecr3 &= ~(HRTIM_EECR3_EE10F);
 80a3858:	f024 6470 	bic.w	r4, r4, #251658240	@ 0xf000000
      hrtim_eecr3 |= ((pEventCfg->Filter << 24U) & HRTIM_EECR3_EE10F);
 80a385c:	68d2      	ldr	r2, [r2, #12]
 80a385e:	0612      	lsls	r2, r2, #24
 80a3860:	f002 6270 	and.w	r2, r2, #251658240	@ 0xf000000
 80a3864:	4322      	orrs	r2, r4
      hhrtim->Instance->sCommonRegs.EECR2 = hrtim_eecr2;
 80a3866:	f8c3 13b4 	str.w	r1, [r3, #948]	@ 0x3b4
      hhrtim->Instance->sCommonRegs.EECR3 = hrtim_eecr3;
 80a386a:	6803      	ldr	r3, [r0, #0]
 80a386c:	f8c3 23b8 	str.w	r2, [r3, #952]	@ 0x3b8
}
 80a3870:	e6e5      	b.n	80a363e <HRTIM_EventConfig+0x40>

080a3872 <HRTIM_ForceRegistersUpdate>:
  * @retval None
  */
static void HRTIM_ForceRegistersUpdate(HRTIM_HandleTypeDef *hhrtim,
                                       uint32_t TimerIdx)
{
  switch (TimerIdx)
 80a3872:	2905      	cmp	r1, #5
 80a3874:	d833      	bhi.n	80a38de <HRTIM_ForceRegistersUpdate+0x6c>
 80a3876:	e8df f001 	tbb	[pc, r1]
 80a387a:	130b      	.short	0x130b
 80a387c:	032b231b 	.word	0x032b231b
  {
    case HRTIM_TIMERINDEX_MASTER:
    {
      hhrtim->Instance->sCommonRegs.CR2 |= HRTIM_CR2_MSWU;
 80a3880:	6802      	ldr	r2, [r0, #0]
 80a3882:	f8d2 3384 	ldr.w	r3, [r2, #900]	@ 0x384
 80a3886:	f043 0301 	orr.w	r3, r3, #1
 80a388a:	f8c2 3384 	str.w	r3, [r2, #900]	@ 0x384
      break;
 80a388e:	4770      	bx	lr
    }

    case HRTIM_TIMERINDEX_TIMER_A:
    {
      hhrtim->Instance->sCommonRegs.CR2 |= HRTIM_CR2_TASWU;
 80a3890:	6802      	ldr	r2, [r0, #0]
 80a3892:	f8d2 3384 	ldr.w	r3, [r2, #900]	@ 0x384
 80a3896:	f043 0302 	orr.w	r3, r3, #2
 80a389a:	f8c2 3384 	str.w	r3, [r2, #900]	@ 0x384
      break;
 80a389e:	4770      	bx	lr
    }

    case HRTIM_TIMERINDEX_TIMER_B:
    {
      hhrtim->Instance->sCommonRegs.CR2 |= HRTIM_CR2_TBSWU;
 80a38a0:	6802      	ldr	r2, [r0, #0]
 80a38a2:	f8d2 3384 	ldr.w	r3, [r2, #900]	@ 0x384
 80a38a6:	f043 0304 	orr.w	r3, r3, #4
 80a38aa:	f8c2 3384 	str.w	r3, [r2, #900]	@ 0x384
      break;
 80a38ae:	4770      	bx	lr
    }

    case HRTIM_TIMERINDEX_TIMER_C:
    {
      hhrtim->Instance->sCommonRegs.CR2 |= HRTIM_CR2_TCSWU;
 80a38b0:	6802      	ldr	r2, [r0, #0]
 80a38b2:	f8d2 3384 	ldr.w	r3, [r2, #900]	@ 0x384
 80a38b6:	f043 0308 	orr.w	r3, r3, #8
 80a38ba:	f8c2 3384 	str.w	r3, [r2, #900]	@ 0x384
      break;
 80a38be:	4770      	bx	lr
    }

    case HRTIM_TIMERINDEX_TIMER_D:
    {
      hhrtim->Instance->sCommonRegs.CR2 |= HRTIM_CR2_TDSWU;
 80a38c0:	6802      	ldr	r2, [r0, #0]
 80a38c2:	f8d2 3384 	ldr.w	r3, [r2, #900]	@ 0x384
 80a38c6:	f043 0310 	orr.w	r3, r3, #16
 80a38ca:	f8c2 3384 	str.w	r3, [r2, #900]	@ 0x384
      break;
 80a38ce:	4770      	bx	lr
    }

    case HRTIM_TIMERINDEX_TIMER_E:
    {
      hhrtim->Instance->sCommonRegs.CR2 |= HRTIM_CR2_TESWU;
 80a38d0:	6802      	ldr	r2, [r0, #0]
 80a38d2:	f8d2 3384 	ldr.w	r3, [r2, #900]	@ 0x384
 80a38d6:	f043 0320 	orr.w	r3, r3, #32
 80a38da:	f8c2 3384 	str.w	r3, [r2, #900]	@ 0x384
    }

    default:
      break;
  }
}
 80a38de:	4770      	bx	lr

080a38e0 <HAL_HRTIM_Init>:
  if (hhrtim == NULL)
 80a38e0:	2800      	cmp	r0, #0
 80a38e2:	d064      	beq.n	80a39ae <HAL_HRTIM_Init+0xce>
{
 80a38e4:	b510      	push	{r4, lr}
 80a38e6:	b082      	sub	sp, #8
 80a38e8:	4604      	mov	r4, r0
  hhrtim->State = HAL_HRTIM_STATE_BUSY;
 80a38ea:	2302      	movs	r3, #2
 80a38ec:	f880 30c1 	strb.w	r3, [r0, #193]	@ 0xc1
  hhrtim->hdmaMaster = (DMA_HandleTypeDef *)NULL;
 80a38f0:	2300      	movs	r3, #0
 80a38f2:	f8c0 30c4 	str.w	r3, [r0, #196]	@ 0xc4
  hhrtim->hdmaTimerA = (DMA_HandleTypeDef *)NULL;
 80a38f6:	f8c0 30c8 	str.w	r3, [r0, #200]	@ 0xc8
  hhrtim->hdmaTimerB = (DMA_HandleTypeDef *)NULL;
 80a38fa:	f8c0 30cc 	str.w	r3, [r0, #204]	@ 0xcc
  hhrtim->hdmaTimerC = (DMA_HandleTypeDef *)NULL;
 80a38fe:	f8c0 30d0 	str.w	r3, [r0, #208]	@ 0xd0
  hhrtim->hdmaTimerD = (DMA_HandleTypeDef *)NULL;
 80a3902:	f8c0 30d4 	str.w	r3, [r0, #212]	@ 0xd4
  hhrtim->hdmaTimerE = (DMA_HandleTypeDef *)NULL;
 80a3906:	f8c0 30d8 	str.w	r3, [r0, #216]	@ 0xd8
  if ((hhrtim->Init.SyncOptions & HRTIM_SYNCOPTION_MASTER) != (uint32_t)RESET)
 80a390a:	6883      	ldr	r3, [r0, #8]
 80a390c:	f013 0f01 	tst.w	r3, #1
 80a3910:	d012      	beq.n	80a3938 <HAL_HRTIM_Init+0x58>
    if (hhrtim->Instance == HRTIM1)
 80a3912:	6802      	ldr	r2, [r0, #0]
 80a3914:	4b27      	ldr	r3, [pc, #156]	@ (80a39b4 <HAL_HRTIM_Init+0xd4>)
 80a3916:	429a      	cmp	r2, r3
 80a3918:	d025      	beq.n	80a3966 <HAL_HRTIM_Init+0x86>
    hrtim_mcr = hhrtim->Instance->sMasterRegs.MCR;
 80a391a:	6821      	ldr	r1, [r4, #0]
 80a391c:	680a      	ldr	r2, [r1, #0]
    hrtim_mcr &= ~(HRTIM_MCR_SYNC_SRC);
 80a391e:	f422 4240 	bic.w	r2, r2, #49152	@ 0xc000
    hrtim_mcr |= (hhrtim->Init.SyncOutputSource & HRTIM_MCR_SYNC_SRC);
 80a3922:	6923      	ldr	r3, [r4, #16]
 80a3924:	f403 4340 	and.w	r3, r3, #49152	@ 0xc000
 80a3928:	4313      	orrs	r3, r2
    hrtim_mcr &= ~(HRTIM_MCR_SYNC_OUT);
 80a392a:	f423 5340 	bic.w	r3, r3, #12288	@ 0x3000
    hrtim_mcr |= (hhrtim->Init.SyncOutputPolarity & HRTIM_MCR_SYNC_OUT);
 80a392e:	6962      	ldr	r2, [r4, #20]
 80a3930:	f402 5240 	and.w	r2, r2, #12288	@ 0x3000
 80a3934:	431a      	orrs	r2, r3
    hhrtim->Instance->sMasterRegs.MCR = hrtim_mcr;
 80a3936:	600a      	str	r2, [r1, #0]
  HAL_HRTIM_MspInit(hhrtim);
 80a3938:	4620      	mov	r0, r4
 80a393a:	f7fd f9e3 	bl	80a0d04 <HAL_HRTIM_MspInit>
  if ((hhrtim->Init.SyncOptions & HRTIM_SYNCOPTION_SLAVE) != (uint32_t)RESET)
 80a393e:	68a3      	ldr	r3, [r4, #8]
 80a3940:	f013 0f02 	tst.w	r3, #2
 80a3944:	d008      	beq.n	80a3958 <HAL_HRTIM_Init+0x78>
    hrtim_mcr = hhrtim->Instance->sMasterRegs.MCR;
 80a3946:	6821      	ldr	r1, [r4, #0]
 80a3948:	680a      	ldr	r2, [r1, #0]
    hrtim_mcr &= ~(HRTIM_MCR_SYNC_IN);
 80a394a:	f422 7240 	bic.w	r2, r2, #768	@ 0x300
    hrtim_mcr |= (hhrtim->Init.SyncInputSource & HRTIM_MCR_SYNC_IN);
 80a394e:	68e3      	ldr	r3, [r4, #12]
 80a3950:	f403 7340 	and.w	r3, r3, #768	@ 0x300
 80a3954:	4313      	orrs	r3, r2
    hhrtim->Instance->sMasterRegs.MCR = hrtim_mcr;
 80a3956:	600b      	str	r3, [r1, #0]
  hhrtim->State = HAL_HRTIM_STATE_READY;
 80a3958:	2301      	movs	r3, #1
 80a395a:	f884 30c1 	strb.w	r3, [r4, #193]	@ 0xc1
  __HAL_UNLOCK(hhrtim);
 80a395e:	2300      	movs	r3, #0
 80a3960:	f884 30c0 	strb.w	r3, [r4, #192]	@ 0xc0
  for (timer_idx = HRTIM_TIMERINDEX_TIMER_A ;
 80a3964:	e01e      	b.n	80a39a4 <HAL_HRTIM_Init+0xc4>
      __HAL_RCC_HRTIM1_CLK_ENABLE();
 80a3966:	4b14      	ldr	r3, [pc, #80]	@ (80a39b8 <HAL_HRTIM_Init+0xd8>)
 80a3968:	f8d3 20f0 	ldr.w	r2, [r3, #240]	@ 0xf0
 80a396c:	f042 5200 	orr.w	r2, r2, #536870912	@ 0x20000000
 80a3970:	f8c3 20f0 	str.w	r2, [r3, #240]	@ 0xf0
 80a3974:	f8d3 30f0 	ldr.w	r3, [r3, #240]	@ 0xf0
 80a3978:	f003 5300 	and.w	r3, r3, #536870912	@ 0x20000000
 80a397c:	9301      	str	r3, [sp, #4]
 80a397e:	9b01      	ldr	r3, [sp, #4]
 80a3980:	e7cb      	b.n	80a391a <HAL_HRTIM_Init+0x3a>
    hhrtim->TimerParam[timer_idx].CaptureTrigger1 = HRTIM_CAPTURETRIGGER_NONE;
 80a3982:	ebc3 02c3 	rsb	r2, r3, r3, lsl #3
 80a3986:	eb04 0282 	add.w	r2, r4, r2, lsl #2
 80a398a:	2100      	movs	r1, #0
 80a398c:	6191      	str	r1, [r2, #24]
    hhrtim->TimerParam[timer_idx].CaptureTrigger2 = HRTIM_CAPTURETRIGGER_NONE;
 80a398e:	61d1      	str	r1, [r2, #28]
    hhrtim->TimerParam[timer_idx].InterruptRequests = HRTIM_IT_NONE;
 80a3990:	6211      	str	r1, [r2, #32]
    hhrtim->TimerParam[timer_idx].DMARequests = HRTIM_IT_NONE;
 80a3992:	6251      	str	r1, [r2, #36]	@ 0x24
    hhrtim->TimerParam[timer_idx].DMASrcAddress = 0U;
 80a3994:	6291      	str	r1, [r2, #40]	@ 0x28
    hhrtim->TimerParam[timer_idx].DMASize = 0U;
 80a3996:	ebc3 02c3 	rsb	r2, r3, r3, lsl #3
 80a399a:	eb04 0282 	add.w	r2, r4, r2, lsl #2
 80a399e:	6311      	str	r1, [r2, #48]	@ 0x30
       timer_idx++)
 80a39a0:	3301      	adds	r3, #1
 80a39a2:	b2db      	uxtb	r3, r3
       timer_idx <= HRTIM_TIMERINDEX_MASTER ;
 80a39a4:	2b05      	cmp	r3, #5
 80a39a6:	d9ec      	bls.n	80a3982 <HAL_HRTIM_Init+0xa2>
  return HAL_OK;
 80a39a8:	2000      	movs	r0, #0
}
 80a39aa:	b002      	add	sp, #8
 80a39ac:	bd10      	pop	{r4, pc}
    return HAL_ERROR;
 80a39ae:	2001      	movs	r0, #1
}
 80a39b0:	4770      	bx	lr
 80a39b2:	bf00      	nop
 80a39b4:	40017400 	.word	0x40017400
 80a39b8:	58024400 	.word	0x58024400

080a39bc <HAL_HRTIM_TimeBaseConfig>:
{
 80a39bc:	b510      	push	{r4, lr}
 80a39be:	4604      	mov	r4, r0
  if (hhrtim->State == HAL_HRTIM_STATE_BUSY)
 80a39c0:	f890 00c1 	ldrb.w	r0, [r0, #193]	@ 0xc1
 80a39c4:	b2c0      	uxtb	r0, r0
 80a39c6:	2802      	cmp	r0, #2
 80a39c8:	d00b      	beq.n	80a39e2 <HAL_HRTIM_TimeBaseConfig+0x26>
  hhrtim->State = HAL_HRTIM_STATE_BUSY;
 80a39ca:	2302      	movs	r3, #2
 80a39cc:	f884 30c1 	strb.w	r3, [r4, #193]	@ 0xc1
  if (TimerIdx == HRTIM_TIMERINDEX_MASTER)
 80a39d0:	2905      	cmp	r1, #5
 80a39d2:	d007      	beq.n	80a39e4 <HAL_HRTIM_TimeBaseConfig+0x28>
    HRTIM_TimingUnitBase_Config(hhrtim, TimerIdx, pTimeBaseCfg);
 80a39d4:	4620      	mov	r0, r4
 80a39d6:	f7ff fd20 	bl	80a341a <HRTIM_TimingUnitBase_Config>
  hhrtim->State = HAL_HRTIM_STATE_READY;
 80a39da:	2301      	movs	r3, #1
 80a39dc:	f884 30c1 	strb.w	r3, [r4, #193]	@ 0xc1
  return HAL_OK;
 80a39e0:	2000      	movs	r0, #0
}
 80a39e2:	bd10      	pop	{r4, pc}
    HRTIM_MasterBase_Config(hhrtim, pTimeBaseCfg);
 80a39e4:	4611      	mov	r1, r2
 80a39e6:	4620      	mov	r0, r4
 80a39e8:	f7ff fd02 	bl	80a33f0 <HRTIM_MasterBase_Config>
 80a39ec:	e7f5      	b.n	80a39da <HAL_HRTIM_TimeBaseConfig+0x1e>

080a39ee <HAL_HRTIM_EventConfig>:
{
 80a39ee:	b538      	push	{r3, r4, r5, lr}
 80a39f0:	4604      	mov	r4, r0
  if (hhrtim->State == HAL_HRTIM_STATE_BUSY)
 80a39f2:	f890 00c1 	ldrb.w	r0, [r0, #193]	@ 0xc1
 80a39f6:	b2c0      	uxtb	r0, r0
 80a39f8:	2802      	cmp	r0, #2
 80a39fa:	d011      	beq.n	80a3a20 <HAL_HRTIM_EventConfig+0x32>
  __HAL_LOCK(hhrtim);
 80a39fc:	f894 30c0 	ldrb.w	r3, [r4, #192]	@ 0xc0
 80a3a00:	2b01      	cmp	r3, #1
 80a3a02:	d00e      	beq.n	80a3a22 <HAL_HRTIM_EventConfig+0x34>
 80a3a04:	2501      	movs	r5, #1
 80a3a06:	f884 50c0 	strb.w	r5, [r4, #192]	@ 0xc0
  hhrtim->State = HAL_HRTIM_STATE_BUSY;
 80a3a0a:	2302      	movs	r3, #2
 80a3a0c:	f884 30c1 	strb.w	r3, [r4, #193]	@ 0xc1
  HRTIM_EventConfig(hhrtim, Event, pEventCfg);
 80a3a10:	4620      	mov	r0, r4
 80a3a12:	f7ff fdf4 	bl	80a35fe <HRTIM_EventConfig>
  hhrtim->State = HAL_HRTIM_STATE_READY;
 80a3a16:	f884 50c1 	strb.w	r5, [r4, #193]	@ 0xc1
  __HAL_UNLOCK(hhrtim);
 80a3a1a:	2000      	movs	r0, #0
 80a3a1c:	f884 00c0 	strb.w	r0, [r4, #192]	@ 0xc0
}
 80a3a20:	bd38      	pop	{r3, r4, r5, pc}
  __HAL_LOCK(hhrtim);
 80a3a22:	2002      	movs	r0, #2
 80a3a24:	e7fc      	b.n	80a3a20 <HAL_HRTIM_EventConfig+0x32>

080a3a26 <HAL_HRTIM_EventPrescalerConfig>:
{
 80a3a26:	4603      	mov	r3, r0
  if (hhrtim->State == HAL_HRTIM_STATE_BUSY)
 80a3a28:	f890 00c1 	ldrb.w	r0, [r0, #193]	@ 0xc1
 80a3a2c:	b2c0      	uxtb	r0, r0
 80a3a2e:	2802      	cmp	r0, #2
 80a3a30:	d01e      	beq.n	80a3a70 <HAL_HRTIM_EventPrescalerConfig+0x4a>
  __HAL_LOCK(hhrtim);
 80a3a32:	f893 20c0 	ldrb.w	r2, [r3, #192]	@ 0xc0
 80a3a36:	2a01      	cmp	r2, #1
 80a3a38:	d018      	beq.n	80a3a6c <HAL_HRTIM_EventPrescalerConfig+0x46>
{
 80a3a3a:	b410      	push	{r4}
  __HAL_LOCK(hhrtim);
 80a3a3c:	2001      	movs	r0, #1
 80a3a3e:	f883 00c0 	strb.w	r0, [r3, #192]	@ 0xc0
  hhrtim->State = HAL_HRTIM_STATE_BUSY;
 80a3a42:	2202      	movs	r2, #2
 80a3a44:	f883 20c1 	strb.w	r2, [r3, #193]	@ 0xc1
  MODIFY_REG(hhrtim->Instance->sCommonRegs.EECR3, HRTIM_EECR3_EEVSD, (Prescaler & HRTIM_EECR3_EEVSD));
 80a3a48:	681c      	ldr	r4, [r3, #0]
 80a3a4a:	f8d4 23b8 	ldr.w	r2, [r4, #952]	@ 0x3b8
 80a3a4e:	f022 4240 	bic.w	r2, r2, #3221225472	@ 0xc0000000
 80a3a52:	f001 4140 	and.w	r1, r1, #3221225472	@ 0xc0000000
 80a3a56:	430a      	orrs	r2, r1
 80a3a58:	f8c4 23b8 	str.w	r2, [r4, #952]	@ 0x3b8
  hhrtim->State = HAL_HRTIM_STATE_READY;
 80a3a5c:	f883 00c1 	strb.w	r0, [r3, #193]	@ 0xc1
  __HAL_UNLOCK(hhrtim);
 80a3a60:	2000      	movs	r0, #0
 80a3a62:	f883 00c0 	strb.w	r0, [r3, #192]	@ 0xc0
}
 80a3a66:	f85d 4b04 	ldr.w	r4, [sp], #4
 80a3a6a:	4770      	bx	lr
  __HAL_LOCK(hhrtim);
 80a3a6c:	2002      	movs	r0, #2
 80a3a6e:	4770      	bx	lr
}
 80a3a70:	4770      	bx	lr

080a3a72 <HAL_HRTIM_WaveformTimerConfig>:
{
 80a3a72:	b570      	push	{r4, r5, r6, lr}
 80a3a74:	4604      	mov	r4, r0
  if (hhrtim->State == HAL_HRTIM_STATE_BUSY)
 80a3a76:	f890 00c1 	ldrb.w	r0, [r0, #193]	@ 0xc1
 80a3a7a:	b2c0      	uxtb	r0, r0
 80a3a7c:	2802      	cmp	r0, #2
 80a3a7e:	d028      	beq.n	80a3ad2 <HAL_HRTIM_WaveformTimerConfig+0x60>
 80a3a80:	460e      	mov	r6, r1
 80a3a82:	4615      	mov	r5, r2
  __HAL_LOCK(hhrtim);
 80a3a84:	f894 30c0 	ldrb.w	r3, [r4, #192]	@ 0xc0
 80a3a88:	2b01      	cmp	r3, #1
 80a3a8a:	d028      	beq.n	80a3ade <HAL_HRTIM_WaveformTimerConfig+0x6c>
 80a3a8c:	2301      	movs	r3, #1
 80a3a8e:	f884 30c0 	strb.w	r3, [r4, #192]	@ 0xc0
  hhrtim->State = HAL_HRTIM_STATE_BUSY;
 80a3a92:	2302      	movs	r3, #2
 80a3a94:	f884 30c1 	strb.w	r3, [r4, #193]	@ 0xc1
  if (TimerIdx == HRTIM_TIMERINDEX_MASTER)
 80a3a98:	2905      	cmp	r1, #5
 80a3a9a:	d01b      	beq.n	80a3ad4 <HAL_HRTIM_WaveformTimerConfig+0x62>
    HRTIM_TimingUnitWaveform_Config(hhrtim, TimerIdx, pTimerCfg);
 80a3a9c:	4620      	mov	r0, r4
 80a3a9e:	f7ff fd08 	bl	80a34b2 <HRTIM_TimingUnitWaveform_Config>
  hhrtim->TimerParam[TimerIdx].InterruptRequests = pTimerCfg->InterruptRequests;
 80a3aa2:	682a      	ldr	r2, [r5, #0]
 80a3aa4:	ebc6 03c6 	rsb	r3, r6, r6, lsl #3
 80a3aa8:	eb04 0383 	add.w	r3, r4, r3, lsl #2
 80a3aac:	621a      	str	r2, [r3, #32]
  hhrtim->TimerParam[TimerIdx].DMARequests = pTimerCfg->DMARequests;
 80a3aae:	686a      	ldr	r2, [r5, #4]
 80a3ab0:	625a      	str	r2, [r3, #36]	@ 0x24
  hhrtim->TimerParam[TimerIdx].DMASrcAddress = pTimerCfg->DMASrcAddress;
 80a3ab2:	68aa      	ldr	r2, [r5, #8]
 80a3ab4:	629a      	str	r2, [r3, #40]	@ 0x28
  hhrtim->TimerParam[TimerIdx].DMADstAddress = pTimerCfg->DMADstAddress;
 80a3ab6:	68ea      	ldr	r2, [r5, #12]
 80a3ab8:	62da      	str	r2, [r3, #44]	@ 0x2c
  hhrtim->TimerParam[TimerIdx].DMASize = pTimerCfg->DMASize;
 80a3aba:	692a      	ldr	r2, [r5, #16]
 80a3abc:	631a      	str	r2, [r3, #48]	@ 0x30
  HRTIM_ForceRegistersUpdate(hhrtim, TimerIdx);
 80a3abe:	4631      	mov	r1, r6
 80a3ac0:	4620      	mov	r0, r4
 80a3ac2:	f7ff fed6 	bl	80a3872 <HRTIM_ForceRegistersUpdate>
  hhrtim->State = HAL_HRTIM_STATE_READY;
 80a3ac6:	2301      	movs	r3, #1
 80a3ac8:	f884 30c1 	strb.w	r3, [r4, #193]	@ 0xc1
  __HAL_UNLOCK(hhrtim);
 80a3acc:	2000      	movs	r0, #0
 80a3ace:	f884 00c0 	strb.w	r0, [r4, #192]	@ 0xc0
}
 80a3ad2:	bd70      	pop	{r4, r5, r6, pc}
    HRTIM_MasterWaveform_Config(hhrtim, pTimerCfg);
 80a3ad4:	4611      	mov	r1, r2
 80a3ad6:	4620      	mov	r0, r4
 80a3ad8:	f7ff fcbf 	bl	80a345a <HRTIM_MasterWaveform_Config>
 80a3adc:	e7e1      	b.n	80a3aa2 <HAL_HRTIM_WaveformTimerConfig+0x30>
  __HAL_LOCK(hhrtim);
 80a3ade:	2002      	movs	r0, #2
 80a3ae0:	e7f7      	b.n	80a3ad2 <HAL_HRTIM_WaveformTimerConfig+0x60>

080a3ae2 <HAL_HRTIM_WaveformCaptureConfig>:
{
 80a3ae2:	4684      	mov	ip, r0
  if (hhrtim->State == HAL_HRTIM_STATE_BUSY)
 80a3ae4:	f890 00c1 	ldrb.w	r0, [r0, #193]	@ 0xc1
 80a3ae8:	b2c0      	uxtb	r0, r0
 80a3aea:	2802      	cmp	r0, #2
 80a3aec:	d032      	beq.n	80a3b54 <HAL_HRTIM_WaveformCaptureConfig+0x72>
  __HAL_LOCK(hhrtim);
 80a3aee:	f89c 00c0 	ldrb.w	r0, [ip, #192]	@ 0xc0
 80a3af2:	2801      	cmp	r0, #1
 80a3af4:	d02b      	beq.n	80a3b4e <HAL_HRTIM_WaveformCaptureConfig+0x6c>
 80a3af6:	2001      	movs	r0, #1
 80a3af8:	f88c 00c0 	strb.w	r0, [ip, #192]	@ 0xc0
  hhrtim->State = HAL_HRTIM_STATE_BUSY;
 80a3afc:	2002      	movs	r0, #2
 80a3afe:	f88c 00c1 	strb.w	r0, [ip, #193]	@ 0xc1
  switch (CaptureUnit)
 80a3b02:	2a01      	cmp	r2, #1
 80a3b04:	d008      	beq.n	80a3b18 <HAL_HRTIM_WaveformCaptureConfig+0x36>
 80a3b06:	4282      	cmp	r2, r0
 80a3b08:	d019      	beq.n	80a3b3e <HAL_HRTIM_WaveformCaptureConfig+0x5c>
      hhrtim->State = HAL_HRTIM_STATE_ERROR;
 80a3b0a:	2307      	movs	r3, #7
 80a3b0c:	f88c 30c1 	strb.w	r3, [ip, #193]	@ 0xc1
      __HAL_UNLOCK(hhrtim);
 80a3b10:	2300      	movs	r3, #0
 80a3b12:	f88c 30c0 	strb.w	r3, [ip, #192]	@ 0xc0
      break;
 80a3b16:	e006      	b.n	80a3b26 <HAL_HRTIM_WaveformCaptureConfig+0x44>
      WRITE_REG(hhrtim->Instance->sTimerxRegs[TimerIdx].CPT1xCR, pCaptureCfg->Trigger);
 80a3b18:	f8dc 2000 	ldr.w	r2, [ip]
 80a3b1c:	681b      	ldr	r3, [r3, #0]
 80a3b1e:	eb02 12c1 	add.w	r2, r2, r1, lsl #7
 80a3b22:	f8c2 30dc 	str.w	r3, [r2, #220]	@ 0xdc
  if (hhrtim->State == HAL_HRTIM_STATE_ERROR)
 80a3b26:	f89c 30c1 	ldrb.w	r3, [ip, #193]	@ 0xc1
 80a3b2a:	b2db      	uxtb	r3, r3
 80a3b2c:	2b07      	cmp	r3, #7
 80a3b2e:	d010      	beq.n	80a3b52 <HAL_HRTIM_WaveformCaptureConfig+0x70>
  hhrtim->State = HAL_HRTIM_STATE_READY;
 80a3b30:	2301      	movs	r3, #1
 80a3b32:	f88c 30c1 	strb.w	r3, [ip, #193]	@ 0xc1
  __HAL_UNLOCK(hhrtim);
 80a3b36:	2000      	movs	r0, #0
 80a3b38:	f88c 00c0 	strb.w	r0, [ip, #192]	@ 0xc0
  return HAL_OK;
 80a3b3c:	4770      	bx	lr
      WRITE_REG(hhrtim->Instance->sTimerxRegs[TimerIdx].CPT2xCR, pCaptureCfg->Trigger);
 80a3b3e:	f8dc 2000 	ldr.w	r2, [ip]
 80a3b42:	681b      	ldr	r3, [r3, #0]
 80a3b44:	eb02 12c1 	add.w	r2, r2, r1, lsl #7
 80a3b48:	f8c2 30e0 	str.w	r3, [r2, #224]	@ 0xe0
      break;
 80a3b4c:	e7eb      	b.n	80a3b26 <HAL_HRTIM_WaveformCaptureConfig+0x44>
  __HAL_LOCK(hhrtim);
 80a3b4e:	2002      	movs	r0, #2
 80a3b50:	4770      	bx	lr
    return HAL_ERROR;
 80a3b52:	2001      	movs	r0, #1
}
 80a3b54:	4770      	bx	lr

080a3b56 <HAL_HRTIM_WaveformCountStart>:
  __HAL_LOCK(hhrtim);
 80a3b56:	f890 30c0 	ldrb.w	r3, [r0, #192]	@ 0xc0
 80a3b5a:	2b01      	cmp	r3, #1
 80a3b5c:	d013      	beq.n	80a3b86 <HAL_HRTIM_WaveformCountStart+0x30>
{
 80a3b5e:	b410      	push	{r4}
  __HAL_LOCK(hhrtim);
 80a3b60:	2201      	movs	r2, #1
 80a3b62:	f880 20c0 	strb.w	r2, [r0, #192]	@ 0xc0
  hhrtim->State = HAL_HRTIM_STATE_BUSY;
 80a3b66:	2302      	movs	r3, #2
 80a3b68:	f880 30c1 	strb.w	r3, [r0, #193]	@ 0xc1
  hhrtim->Instance->sMasterRegs.MCR |= (Timers);
 80a3b6c:	6804      	ldr	r4, [r0, #0]
 80a3b6e:	6823      	ldr	r3, [r4, #0]
 80a3b70:	430b      	orrs	r3, r1
 80a3b72:	6023      	str	r3, [r4, #0]
  hhrtim->State = HAL_HRTIM_STATE_READY;
 80a3b74:	f880 20c1 	strb.w	r2, [r0, #193]	@ 0xc1
  __HAL_UNLOCK(hhrtim);
 80a3b78:	2300      	movs	r3, #0
 80a3b7a:	f880 30c0 	strb.w	r3, [r0, #192]	@ 0xc0
  return HAL_OK;
 80a3b7e:	4618      	mov	r0, r3
}
 80a3b80:	f85d 4b04 	ldr.w	r4, [sp], #4
 80a3b84:	4770      	bx	lr
  __HAL_LOCK(hhrtim);
 80a3b86:	2002      	movs	r0, #2
}
 80a3b88:	4770      	bx	lr
	...

080a3b8c <HAL_HSEM_FastTake>:
    /*take success when MasterID match and take bit set*/
    return HAL_OK;
  }
#else
  /* Read the RLR register to take the semaphore */
  if (HSEM->RLR[SemID] == (HSEM_CR_COREID_CURRENT | HSEM_RLR_LOCK))
 80a3b8c:	3020      	adds	r0, #32
 80a3b8e:	4b05      	ldr	r3, [pc, #20]	@ (80a3ba4 <HAL_HSEM_FastTake+0x18>)
 80a3b90:	f853 2020 	ldr.w	r2, [r3, r0, lsl #2]
 80a3b94:	4b04      	ldr	r3, [pc, #16]	@ (80a3ba8 <HAL_HSEM_FastTake+0x1c>)
 80a3b96:	429a      	cmp	r2, r3
 80a3b98:	d001      	beq.n	80a3b9e <HAL_HSEM_FastTake+0x12>
    return HAL_OK;
  }
#endif

  /* Semaphore take fails */
  return HAL_ERROR;
 80a3b9a:	2001      	movs	r0, #1
 80a3b9c:	4770      	bx	lr
    return HAL_OK;
 80a3b9e:	2000      	movs	r0, #0
}
 80a3ba0:	4770      	bx	lr
 80a3ba2:	bf00      	nop
 80a3ba4:	58026400 	.word	0x58026400
 80a3ba8:	80000100 	.word	0x80000100

080a3bac <HAL_HSEM_ActivateNotification>:
  {
    /*Use interrupt line 1 for CPU2 Master*/
    HSEM->C2IER |= SemMask;
  }
#else
  HSEM_COMMON->IER |= SemMask;
 80a3bac:	4a02      	ldr	r2, [pc, #8]	@ (80a3bb8 <HAL_HSEM_ActivateNotification+0xc>)
 80a3bae:	6913      	ldr	r3, [r2, #16]
 80a3bb0:	4303      	orrs	r3, r0
 80a3bb2:	6113      	str	r3, [r2, #16]
#endif
}
 80a3bb4:	4770      	bx	lr
 80a3bb6:	bf00      	nop
 80a3bb8:	58026500 	.word	0x58026500

080a3bbc <HAL_HSEM_IRQHandler>:
/**
  * @brief  This function handles HSEM interrupt request
  * @retval None
  */
void HAL_HSEM_IRQHandler(void)
{
 80a3bbc:	b508      	push	{r3, lr}
    /*Clear Flags*/
    HSEM->C2ICR = ((uint32_t)statusreg);
  }
#else
  /* Get the list of masked freed semaphores*/
  statusreg = HSEM_COMMON->MISR;
 80a3bbe:	4b05      	ldr	r3, [pc, #20]	@ (80a3bd4 <HAL_HSEM_IRQHandler+0x18>)
 80a3bc0:	69d8      	ldr	r0, [r3, #28]

  /*Disable Interrupts*/
  HSEM_COMMON->IER &= ~((uint32_t)statusreg);
 80a3bc2:	691a      	ldr	r2, [r3, #16]
 80a3bc4:	ea22 0200 	bic.w	r2, r2, r0
 80a3bc8:	611a      	str	r2, [r3, #16]

  /*Clear Flags*/
  HSEM_COMMON->ICR = ((uint32_t)statusreg);
 80a3bca:	6158      	str	r0, [r3, #20]

#endif
  /* Call FreeCallback */
  HAL_HSEM_FreeCallback(statusreg);
 80a3bcc:	f7fd f924 	bl	80a0e18 <HAL_HSEM_FreeCallback>
}
 80a3bd0:	bd08      	pop	{r3, pc}
 80a3bd2:	bf00      	nop
 80a3bd4:	58026500 	.word	0x58026500

080a3bd8 <HAL_PWREx_EnterSTOPMode>:
  *            @arg PWR_D2_DOMAIN : Enter D2 Domain to DSTOP mode.
  *            @arg PWR_D3_DOMAIN : Enter D3/SRD Domain to DSTOP mode.
  * @retval None.
  */
void HAL_PWREx_EnterSTOPMode (uint32_t Regulator, uint8_t STOPEntry, uint32_t Domain)
{
 80a3bd8:	b538      	push	{r3, r4, r5, lr}
 80a3bda:	460d      	mov	r5, r1
  assert_param (IS_PWR_REGULATOR (Regulator));
  assert_param (IS_PWR_STOP_ENTRY (STOPEntry));
  assert_param (IS_PWR_DOMAIN (Domain));

  /* Select the regulator state in Stop mode */
  MODIFY_REG (PWR->CR1, PWR_CR1_LPDS, Regulator);
 80a3bdc:	4c28      	ldr	r4, [pc, #160]	@ (80a3c80 <HAL_PWREx_EnterSTOPMode+0xa8>)
 80a3bde:	6823      	ldr	r3, [r4, #0]
 80a3be0:	f023 0301 	bic.w	r3, r3, #1
 80a3be4:	4303      	orrs	r3, r0
 80a3be6:	6023      	str	r3, [r4, #0]

  /* Select the domain Power Down DeepSleep */
  if (Domain == PWR_D1_DOMAIN)
 80a3be8:	b15a      	cbz	r2, 80a3c02 <HAL_PWREx_EnterSTOPMode+0x2a>

    /* Clear SLEEPDEEP bit of Cortex-Mx in the System Control Register */
    CLEAR_BIT (SCB->SCR, SCB_SCR_SLEEPDEEP_Msk);
  }
#if defined (PWR_CPUCR_PDDS_D2)
  else if (Domain == PWR_D2_DOMAIN)
 80a3bea:	2a01      	cmp	r2, #1
 80a3bec:	d025      	beq.n	80a3c3a <HAL_PWREx_EnterSTOPMode+0x62>
#endif /* defined (PWR_CPUCR_PDDS_D2) */
  else
  {
#if defined (DUAL_CORE)
    /* Check current core */
    if (HAL_GetCurrentCPUID () == CM7_CPUID)
 80a3bee:	f7fd ff43 	bl	80a1a78 <HAL_GetCurrentCPUID>
 80a3bf2:	2803      	cmp	r0, #3
 80a3bf4:	d03e      	beq.n	80a3c74 <HAL_PWREx_EnterSTOPMode+0x9c>
      CLEAR_BIT (PWR->CPUCR, PWR_CPUCR_PDDS_D3);
    }
    else
    {
      /* Keep DSTOP mode when D3 domain enters Deepsleep */
      CLEAR_BIT (PWR->CPU2CR, PWR_CPU2CR_PDDS_D3);
 80a3bf6:	4a22      	ldr	r2, [pc, #136]	@ (80a3c80 <HAL_PWREx_EnterSTOPMode+0xa8>)
 80a3bf8:	6953      	ldr	r3, [r2, #20]
 80a3bfa:	f023 0304 	bic.w	r3, r3, #4
 80a3bfe:	6153      	str	r3, [r2, #20]
#else
    /* Keep DSTOP mode when D3/SRD domain enters Deepsleep */
    CLEAR_BIT (PWR->CPUCR, PWR_CPUCR_PDDS_D3);
#endif  /* defined (DUAL_CORE) */
  }
}
 80a3c00:	bd38      	pop	{r3, r4, r5, pc}
    if (HAL_GetCurrentCPUID () != CM7_CPUID)
 80a3c02:	f7fd ff39 	bl	80a1a78 <HAL_GetCurrentCPUID>
 80a3c06:	2803      	cmp	r0, #3
 80a3c08:	d1fa      	bne.n	80a3c00 <HAL_PWREx_EnterSTOPMode+0x28>
    CLEAR_BIT (PWR->CPUCR, PWR_CPUCR_PDDS_D1);
 80a3c0a:	6923      	ldr	r3, [r4, #16]
 80a3c0c:	f023 0301 	bic.w	r3, r3, #1
 80a3c10:	6123      	str	r3, [r4, #16]
    SET_BIT (SCB->SCR, SCB_SCR_SLEEPDEEP_Msk);
 80a3c12:	4a1c      	ldr	r2, [pc, #112]	@ (80a3c84 <HAL_PWREx_EnterSTOPMode+0xac>)
 80a3c14:	6913      	ldr	r3, [r2, #16]
 80a3c16:	f043 0304 	orr.w	r3, r3, #4
 80a3c1a:	6113      	str	r3, [r2, #16]
  __ASM volatile ("dsb 0xF":::"memory");
 80a3c1c:	f3bf 8f4f 	dsb	sy
  __ASM volatile ("isb 0xF":::"memory");
 80a3c20:	f3bf 8f6f 	isb	sy
    if (STOPEntry == PWR_STOPENTRY_WFI)
 80a3c24:	2d01      	cmp	r5, #1
 80a3c26:	d006      	beq.n	80a3c36 <HAL_PWREx_EnterSTOPMode+0x5e>
      __WFE ();
 80a3c28:	bf20      	wfe
    CLEAR_BIT (SCB->SCR, SCB_SCR_SLEEPDEEP_Msk);
 80a3c2a:	4a16      	ldr	r2, [pc, #88]	@ (80a3c84 <HAL_PWREx_EnterSTOPMode+0xac>)
 80a3c2c:	6913      	ldr	r3, [r2, #16]
 80a3c2e:	f023 0304 	bic.w	r3, r3, #4
 80a3c32:	6113      	str	r3, [r2, #16]
 80a3c34:	e7e4      	b.n	80a3c00 <HAL_PWREx_EnterSTOPMode+0x28>
      __WFI ();
 80a3c36:	bf30      	wfi
 80a3c38:	e7f7      	b.n	80a3c2a <HAL_PWREx_EnterSTOPMode+0x52>
    if (HAL_GetCurrentCPUID () != CM4_CPUID)
 80a3c3a:	f7fd ff1d 	bl	80a1a78 <HAL_GetCurrentCPUID>
 80a3c3e:	2801      	cmp	r0, #1
 80a3c40:	d1de      	bne.n	80a3c00 <HAL_PWREx_EnterSTOPMode+0x28>
    CLEAR_BIT (PWR->CPU2CR, PWR_CPU2CR_PDDS_D2);
 80a3c42:	4a0f      	ldr	r2, [pc, #60]	@ (80a3c80 <HAL_PWREx_EnterSTOPMode+0xa8>)
 80a3c44:	6953      	ldr	r3, [r2, #20]
 80a3c46:	f023 0302 	bic.w	r3, r3, #2
 80a3c4a:	6153      	str	r3, [r2, #20]
    SET_BIT (SCB->SCR, SCB_SCR_SLEEPDEEP_Msk);
 80a3c4c:	4a0d      	ldr	r2, [pc, #52]	@ (80a3c84 <HAL_PWREx_EnterSTOPMode+0xac>)
 80a3c4e:	6913      	ldr	r3, [r2, #16]
 80a3c50:	f043 0304 	orr.w	r3, r3, #4
 80a3c54:	6113      	str	r3, [r2, #16]
  __ASM volatile ("dsb 0xF":::"memory");
 80a3c56:	f3bf 8f4f 	dsb	sy
  __ASM volatile ("isb 0xF":::"memory");
 80a3c5a:	f3bf 8f6f 	isb	sy
    if (STOPEntry == PWR_STOPENTRY_WFI)
 80a3c5e:	2d01      	cmp	r5, #1
 80a3c60:	d006      	beq.n	80a3c70 <HAL_PWREx_EnterSTOPMode+0x98>
      __WFE ();
 80a3c62:	bf20      	wfe
    CLEAR_BIT (SCB->SCR, SCB_SCR_SLEEPDEEP_Msk);
 80a3c64:	4a07      	ldr	r2, [pc, #28]	@ (80a3c84 <HAL_PWREx_EnterSTOPMode+0xac>)
 80a3c66:	6913      	ldr	r3, [r2, #16]
 80a3c68:	f023 0304 	bic.w	r3, r3, #4
 80a3c6c:	6113      	str	r3, [r2, #16]
 80a3c6e:	e7c7      	b.n	80a3c00 <HAL_PWREx_EnterSTOPMode+0x28>
      __WFI ();
 80a3c70:	bf30      	wfi
 80a3c72:	e7f7      	b.n	80a3c64 <HAL_PWREx_EnterSTOPMode+0x8c>
      CLEAR_BIT (PWR->CPUCR, PWR_CPUCR_PDDS_D3);
 80a3c74:	4a02      	ldr	r2, [pc, #8]	@ (80a3c80 <HAL_PWREx_EnterSTOPMode+0xa8>)
 80a3c76:	6913      	ldr	r3, [r2, #16]
 80a3c78:	f023 0304 	bic.w	r3, r3, #4
 80a3c7c:	6113      	str	r3, [r2, #16]
 80a3c7e:	e7bf      	b.n	80a3c00 <HAL_PWREx_EnterSTOPMode+0x28>
 80a3c80:	58024800 	.word	0x58024800
 80a3c84:	e000ed00 	.word	0xe000ed00

080a3c88 <HAL_PWREx_ClearPendingEvent>:
  *         enter low power mode using Wait For Event request.
  * @note   Cortex-M7 must be in CRUN mode when calling this API by Cortex-M4.
  * @retval None.
  */
void HAL_PWREx_ClearPendingEvent (void)
{
 80a3c88:	b508      	push	{r3, lr}
#if defined (DUAL_CORE)
  /* Check the current Core */
  if (HAL_GetCurrentCPUID () == CM7_CPUID)
 80a3c8a:	f7fd fef5 	bl	80a1a78 <HAL_GetCurrentCPUID>
 80a3c8e:	2803      	cmp	r0, #3
 80a3c90:	d002      	beq.n	80a3c98 <HAL_PWREx_ClearPendingEvent+0x10>
  {
    __WFE ();
  }
  else
  {
    __SEV ();
 80a3c92:	bf40      	sev
    __WFE ();
 80a3c94:	bf20      	wfe
  }
#else
  __WFE ();
#endif /* defined (DUAL_CORE) */
}
 80a3c96:	bd08      	pop	{r3, pc}
    __WFE ();
 80a3c98:	bf20      	wfe
 80a3c9a:	e7fc      	b.n	80a3c96 <HAL_PWREx_ClearPendingEvent+0xe>

080a3c9c <HAL_RCC_GetSysClockFreq>:
  float_t fracn1, pllvco;
  uint32_t sysclockfreq;

  /* Get SYSCLK source -------------------------------------------------------*/

  switch (RCC->CFGR & RCC_CFGR_SWS)
 80a3c9c:	4b75      	ldr	r3, [pc, #468]	@ (80a3e74 <HAL_RCC_GetSysClockFreq+0x1d8>)
 80a3c9e:	691b      	ldr	r3, [r3, #16]
 80a3ca0:	f003 0338 	and.w	r3, r3, #56	@ 0x38
 80a3ca4:	2b10      	cmp	r3, #16
 80a3ca6:	f000 80de 	beq.w	80a3e66 <HAL_RCC_GetSysClockFreq+0x1ca>
 80a3caa:	2b18      	cmp	r3, #24
 80a3cac:	d00f      	beq.n	80a3cce <HAL_RCC_GetSysClockFreq+0x32>
 80a3cae:	2b00      	cmp	r3, #0
 80a3cb0:	f040 80db 	bne.w	80a3e6a <HAL_RCC_GetSysClockFreq+0x1ce>
  {
    case RCC_CFGR_SWS_HSI:  /* HSI used as system clock source */

      if (__HAL_RCC_GET_FLAG(RCC_FLAG_HSIDIV) != 0U)
 80a3cb4:	4b6f      	ldr	r3, [pc, #444]	@ (80a3e74 <HAL_RCC_GetSysClockFreq+0x1d8>)
 80a3cb6:	681b      	ldr	r3, [r3, #0]
 80a3cb8:	f013 0f20 	tst.w	r3, #32
 80a3cbc:	f000 80d7 	beq.w	80a3e6e <HAL_RCC_GetSysClockFreq+0x1d2>
      {
        sysclockfreq = (uint32_t)(HSI_VALUE >> (__HAL_RCC_GET_HSI_DIVIDER() >> 3));
 80a3cc0:	4b6c      	ldr	r3, [pc, #432]	@ (80a3e74 <HAL_RCC_GetSysClockFreq+0x1d8>)
 80a3cc2:	681b      	ldr	r3, [r3, #0]
 80a3cc4:	f3c3 03c1 	ubfx	r3, r3, #3, #2
 80a3cc8:	486b      	ldr	r0, [pc, #428]	@ (80a3e78 <HAL_RCC_GetSysClockFreq+0x1dc>)
 80a3cca:	40d8      	lsrs	r0, r3
 80a3ccc:	4770      	bx	lr
{
 80a3cce:	b410      	push	{r4}
    case RCC_CFGR_SWS_PLL1:  /* PLL1 used as system clock  source */

      /* PLL_VCO = (HSE_VALUE or HSI_VALUE or CSI_VALUE/ PLLM) * PLLN
      SYSCLK = PLL_VCO / PLLR
      */
      pllsource = (RCC->PLLCKSELR & RCC_PLLCKSELR_PLLSRC);
 80a3cd0:	4b68      	ldr	r3, [pc, #416]	@ (80a3e74 <HAL_RCC_GetSysClockFreq+0x1d8>)
 80a3cd2:	6a9a      	ldr	r2, [r3, #40]	@ 0x28
 80a3cd4:	f002 0203 	and.w	r2, r2, #3
      pllm = ((RCC->PLLCKSELR & RCC_PLLCKSELR_DIVM1) >> 4)  ;
 80a3cd8:	6a9c      	ldr	r4, [r3, #40]	@ 0x28
 80a3cda:	f3c4 1005 	ubfx	r0, r4, #4, #6
      pllfracen = ((RCC-> PLLCFGR & RCC_PLLCFGR_PLL1FRACEN) >> RCC_PLLCFGR_PLL1FRACEN_Pos);
 80a3cde:	6ad9      	ldr	r1, [r3, #44]	@ 0x2c
 80a3ce0:	f001 0101 	and.w	r1, r1, #1
      fracn1 = (float_t)(uint32_t)(pllfracen * ((RCC->PLL1FRACR & RCC_PLL1FRACR_FRACN1) >> 3));
 80a3ce4:	6b5b      	ldr	r3, [r3, #52]	@ 0x34
 80a3ce6:	f3c3 03cc 	ubfx	r3, r3, #3, #13
 80a3cea:	fb01 f303 	mul.w	r3, r1, r3
 80a3cee:	ee07 3a90 	vmov	s15, r3
 80a3cf2:	eef8 7a67 	vcvt.f32.u32	s15, s15

      if (pllm != 0U)
 80a3cf6:	f414 7f7c 	tst.w	r4, #1008	@ 0x3f0
 80a3cfa:	d077      	beq.n	80a3dec <HAL_RCC_GetSysClockFreq+0x150>
      {
        switch (pllsource)
 80a3cfc:	2a01      	cmp	r2, #1
 80a3cfe:	d04a      	beq.n	80a3d96 <HAL_RCC_GetSysClockFreq+0xfa>
 80a3d00:	2a02      	cmp	r2, #2
 80a3d02:	d076      	beq.n	80a3df2 <HAL_RCC_GetSysClockFreq+0x156>
 80a3d04:	2a00      	cmp	r2, #0
 80a3d06:	f040 8091 	bne.w	80a3e2c <HAL_RCC_GetSysClockFreq+0x190>
        {
          case RCC_PLLSOURCE_HSI:  /* HSI used as PLL clock source */

            if (__HAL_RCC_GET_FLAG(RCC_FLAG_HSIDIV) != 0U)
 80a3d0a:	4b5a      	ldr	r3, [pc, #360]	@ (80a3e74 <HAL_RCC_GetSysClockFreq+0x1d8>)
 80a3d0c:	681b      	ldr	r3, [r3, #0]
 80a3d0e:	f013 0f20 	tst.w	r3, #32
 80a3d12:	d023      	beq.n	80a3d5c <HAL_RCC_GetSysClockFreq+0xc0>
            {
              hsivalue = (HSI_VALUE >> (__HAL_RCC_GET_HSI_DIVIDER() >> 3));
 80a3d14:	4957      	ldr	r1, [pc, #348]	@ (80a3e74 <HAL_RCC_GetSysClockFreq+0x1d8>)
 80a3d16:	680a      	ldr	r2, [r1, #0]
 80a3d18:	f3c2 02c1 	ubfx	r2, r2, #3, #2
 80a3d1c:	4b56      	ldr	r3, [pc, #344]	@ (80a3e78 <HAL_RCC_GetSysClockFreq+0x1dc>)
 80a3d1e:	40d3      	lsrs	r3, r2
              pllvco = ((float_t)hsivalue / (float_t)pllm) * ((float_t)(uint32_t)(RCC->PLL1DIVR & RCC_PLL1DIVR_N1) + (fracn1 / (float_t)0x2000) + (float_t)1);
 80a3d20:	ee07 3a10 	vmov	s14, r3
 80a3d24:	eef8 6a47 	vcvt.f32.u32	s13, s14
 80a3d28:	ee07 0a10 	vmov	s14, r0
 80a3d2c:	eeb8 6a47 	vcvt.f32.u32	s12, s14
 80a3d30:	ee86 7a86 	vdiv.f32	s14, s13, s12
 80a3d34:	6b0b      	ldr	r3, [r1, #48]	@ 0x30
 80a3d36:	f3c3 0308 	ubfx	r3, r3, #0, #9
 80a3d3a:	ee06 3a90 	vmov	s13, r3
 80a3d3e:	eef8 6a66 	vcvt.f32.u32	s13, s13
 80a3d42:	ed9f 6a4e 	vldr	s12, [pc, #312]	@ 80a3e7c <HAL_RCC_GetSysClockFreq+0x1e0>
 80a3d46:	ee67 7a86 	vmul.f32	s15, s15, s12
 80a3d4a:	ee76 7aa7 	vadd.f32	s15, s13, s15
 80a3d4e:	eef7 6a00 	vmov.f32	s13, #112	@ 0x3f800000  1.0
 80a3d52:	ee77 7aa6 	vadd.f32	s15, s15, s13
 80a3d56:	ee27 7a27 	vmul.f32	s14, s14, s15
 80a3d5a:	e038      	b.n	80a3dce <HAL_RCC_GetSysClockFreq+0x132>
            }
            else
            {
              pllvco = ((float_t)HSI_VALUE / (float_t)pllm) * ((float_t)(uint32_t)(RCC->PLL1DIVR & RCC_PLL1DIVR_N1) + (fracn1 / (float_t)0x2000) + (float_t)1);
 80a3d5c:	ee07 0a10 	vmov	s14, r0
 80a3d60:	eef8 6a47 	vcvt.f32.u32	s13, s14
 80a3d64:	ed9f 6a46 	vldr	s12, [pc, #280]	@ 80a3e80 <HAL_RCC_GetSysClockFreq+0x1e4>
 80a3d68:	ee86 7a26 	vdiv.f32	s14, s12, s13
 80a3d6c:	4b41      	ldr	r3, [pc, #260]	@ (80a3e74 <HAL_RCC_GetSysClockFreq+0x1d8>)
 80a3d6e:	6b1b      	ldr	r3, [r3, #48]	@ 0x30
 80a3d70:	f3c3 0308 	ubfx	r3, r3, #0, #9
 80a3d74:	ee06 3a90 	vmov	s13, r3
 80a3d78:	eef8 6a66 	vcvt.f32.u32	s13, s13
 80a3d7c:	ed9f 6a3f 	vldr	s12, [pc, #252]	@ 80a3e7c <HAL_RCC_GetSysClockFreq+0x1e0>
 80a3d80:	ee67 7a86 	vmul.f32	s15, s15, s12
 80a3d84:	ee76 7aa7 	vadd.f32	s15, s13, s15
 80a3d88:	eef7 6a00 	vmov.f32	s13, #112	@ 0x3f800000  1.0
 80a3d8c:	ee77 7aa6 	vadd.f32	s15, s15, s13
 80a3d90:	ee27 7a27 	vmul.f32	s14, s14, s15
 80a3d94:	e01b      	b.n	80a3dce <HAL_RCC_GetSysClockFreq+0x132>
            }
            break;

          case RCC_PLLSOURCE_CSI:  /* CSI used as PLL clock source */
            pllvco = ((float_t)CSI_VALUE / (float_t)pllm) * ((float_t)(uint32_t)(RCC->PLL1DIVR & RCC_PLL1DIVR_N1) + (fracn1 / (float_t)0x2000) + (float_t)1);
 80a3d96:	ee07 0a10 	vmov	s14, r0
 80a3d9a:	eef8 6a47 	vcvt.f32.u32	s13, s14
 80a3d9e:	ed9f 6a39 	vldr	s12, [pc, #228]	@ 80a3e84 <HAL_RCC_GetSysClockFreq+0x1e8>
 80a3da2:	ee86 7a26 	vdiv.f32	s14, s12, s13
 80a3da6:	4b33      	ldr	r3, [pc, #204]	@ (80a3e74 <HAL_RCC_GetSysClockFreq+0x1d8>)
 80a3da8:	6b1b      	ldr	r3, [r3, #48]	@ 0x30
 80a3daa:	f3c3 0308 	ubfx	r3, r3, #0, #9
 80a3dae:	ee06 3a90 	vmov	s13, r3
 80a3db2:	eef8 6a66 	vcvt.f32.u32	s13, s13
 80a3db6:	ed9f 6a31 	vldr	s12, [pc, #196]	@ 80a3e7c <HAL_RCC_GetSysClockFreq+0x1e0>
 80a3dba:	ee67 7a86 	vmul.f32	s15, s15, s12
 80a3dbe:	ee76 7aa7 	vadd.f32	s15, s13, s15
 80a3dc2:	eef7 6a00 	vmov.f32	s13, #112	@ 0x3f800000  1.0
 80a3dc6:	ee77 7aa6 	vadd.f32	s15, s15, s13
 80a3dca:	ee27 7a27 	vmul.f32	s14, s14, s15

          default:
            pllvco = ((float_t)CSI_VALUE / (float_t)pllm) * ((float_t)(uint32_t)(RCC->PLL1DIVR & RCC_PLL1DIVR_N1) + (fracn1 / (float_t)0x2000) + (float_t)1);
            break;
        }
        pllp = (((RCC->PLL1DIVR & RCC_PLL1DIVR_P1) >> 9) + 1U) ;
 80a3dce:	4b29      	ldr	r3, [pc, #164]	@ (80a3e74 <HAL_RCC_GetSysClockFreq+0x1d8>)
 80a3dd0:	6b1b      	ldr	r3, [r3, #48]	@ 0x30
 80a3dd2:	f3c3 2346 	ubfx	r3, r3, #9, #7
 80a3dd6:	3301      	adds	r3, #1
        sysclockfreq = (uint32_t)(float_t)(pllvco / (float_t)pllp);
 80a3dd8:	ee07 3a90 	vmov	s15, r3
 80a3ddc:	eef8 7a67 	vcvt.f32.u32	s15, s15
 80a3de0:	eec7 6a27 	vdiv.f32	s13, s14, s15
 80a3de4:	eefc 7ae6 	vcvt.u32.f32	s15, s13
 80a3de8:	ee17 0a90 	vmov	r0, s15
      sysclockfreq = CSI_VALUE;
      break;
  }

  return sysclockfreq;
}
 80a3dec:	f85d 4b04 	ldr.w	r4, [sp], #4
 80a3df0:	4770      	bx	lr
            pllvco = ((float_t)HSE_VALUE / (float_t)pllm) * ((float_t)(uint32_t)(RCC->PLL1DIVR & RCC_PLL1DIVR_N1) + (fracn1 / (float_t)0x2000) + (float_t)1);
 80a3df2:	ee07 0a10 	vmov	s14, r0
 80a3df6:	eef8 6a47 	vcvt.f32.u32	s13, s14
 80a3dfa:	ed9f 6a23 	vldr	s12, [pc, #140]	@ 80a3e88 <HAL_RCC_GetSysClockFreq+0x1ec>
 80a3dfe:	ee86 7a26 	vdiv.f32	s14, s12, s13
 80a3e02:	4b1c      	ldr	r3, [pc, #112]	@ (80a3e74 <HAL_RCC_GetSysClockFreq+0x1d8>)
 80a3e04:	6b1b      	ldr	r3, [r3, #48]	@ 0x30
 80a3e06:	f3c3 0308 	ubfx	r3, r3, #0, #9
 80a3e0a:	ee06 3a90 	vmov	s13, r3
 80a3e0e:	eef8 6a66 	vcvt.f32.u32	s13, s13
 80a3e12:	ed9f 6a1a 	vldr	s12, [pc, #104]	@ 80a3e7c <HAL_RCC_GetSysClockFreq+0x1e0>
 80a3e16:	ee67 7a86 	vmul.f32	s15, s15, s12
 80a3e1a:	ee76 7aa7 	vadd.f32	s15, s13, s15
 80a3e1e:	eef7 6a00 	vmov.f32	s13, #112	@ 0x3f800000  1.0
 80a3e22:	ee77 7aa6 	vadd.f32	s15, s15, s13
 80a3e26:	ee27 7a27 	vmul.f32	s14, s14, s15
            break;
 80a3e2a:	e7d0      	b.n	80a3dce <HAL_RCC_GetSysClockFreq+0x132>
            pllvco = ((float_t)CSI_VALUE / (float_t)pllm) * ((float_t)(uint32_t)(RCC->PLL1DIVR & RCC_PLL1DIVR_N1) + (fracn1 / (float_t)0x2000) + (float_t)1);
 80a3e2c:	ee07 0a10 	vmov	s14, r0
 80a3e30:	eef8 6a47 	vcvt.f32.u32	s13, s14
 80a3e34:	ed9f 6a13 	vldr	s12, [pc, #76]	@ 80a3e84 <HAL_RCC_GetSysClockFreq+0x1e8>
 80a3e38:	ee86 7a26 	vdiv.f32	s14, s12, s13
 80a3e3c:	4b0d      	ldr	r3, [pc, #52]	@ (80a3e74 <HAL_RCC_GetSysClockFreq+0x1d8>)
 80a3e3e:	6b1b      	ldr	r3, [r3, #48]	@ 0x30
 80a3e40:	f3c3 0308 	ubfx	r3, r3, #0, #9
 80a3e44:	ee06 3a90 	vmov	s13, r3
 80a3e48:	eef8 6a66 	vcvt.f32.u32	s13, s13
 80a3e4c:	ed9f 6a0b 	vldr	s12, [pc, #44]	@ 80a3e7c <HAL_RCC_GetSysClockFreq+0x1e0>
 80a3e50:	ee67 7a86 	vmul.f32	s15, s15, s12
 80a3e54:	ee76 7aa7 	vadd.f32	s15, s13, s15
 80a3e58:	eef7 6a00 	vmov.f32	s13, #112	@ 0x3f800000  1.0
 80a3e5c:	ee77 7aa6 	vadd.f32	s15, s15, s13
 80a3e60:	ee27 7a27 	vmul.f32	s14, s14, s15
            break;
 80a3e64:	e7b3      	b.n	80a3dce <HAL_RCC_GetSysClockFreq+0x132>
      sysclockfreq = HSE_VALUE;
 80a3e66:	4809      	ldr	r0, [pc, #36]	@ (80a3e8c <HAL_RCC_GetSysClockFreq+0x1f0>)
 80a3e68:	4770      	bx	lr
  switch (RCC->CFGR & RCC_CFGR_SWS)
 80a3e6a:	4809      	ldr	r0, [pc, #36]	@ (80a3e90 <HAL_RCC_GetSysClockFreq+0x1f4>)
 80a3e6c:	4770      	bx	lr
        sysclockfreq = (uint32_t) HSI_VALUE;
 80a3e6e:	4802      	ldr	r0, [pc, #8]	@ (80a3e78 <HAL_RCC_GetSysClockFreq+0x1dc>)
}
 80a3e70:	4770      	bx	lr
 80a3e72:	bf00      	nop
 80a3e74:	58024400 	.word	0x58024400
 80a3e78:	03d09000 	.word	0x03d09000
 80a3e7c:	39000000 	.word	0x39000000
 80a3e80:	4c742400 	.word	0x4c742400
 80a3e84:	4a742400 	.word	0x4a742400
 80a3e88:	4bbebc20 	.word	0x4bbebc20
 80a3e8c:	017d7840 	.word	0x017d7840
 80a3e90:	003d0900 	.word	0x003d0900

080a3e94 <RCCEx_PLL2_Config>:
  assert_param(IS_RCC_PLL2RGE_VALUE(pll2->PLL2RGE));
  assert_param(IS_RCC_PLL2VCO_VALUE(pll2->PLL2VCOSEL));
  assert_param(IS_RCC_PLLFRACN_VALUE(pll2->PLL2FRACN));

  /* Check that PLL2 OSC clock source is already set */
  if (__HAL_RCC_GET_PLL_OSCSOURCE() == RCC_PLLSOURCE_NONE)
 80a3e94:	4b40      	ldr	r3, [pc, #256]	@ (80a3f98 <RCCEx_PLL2_Config+0x104>)
 80a3e96:	6a9b      	ldr	r3, [r3, #40]	@ 0x28
 80a3e98:	f003 0303 	and.w	r3, r3, #3
 80a3e9c:	2b03      	cmp	r3, #3
 80a3e9e:	d079      	beq.n	80a3f94 <RCCEx_PLL2_Config+0x100>
{
 80a3ea0:	b570      	push	{r4, r5, r6, lr}
 80a3ea2:	4605      	mov	r5, r0
 80a3ea4:	460e      	mov	r6, r1


  else
  {
    /* Disable  PLL2. */
    __HAL_RCC_PLL2_DISABLE();
 80a3ea6:	4a3c      	ldr	r2, [pc, #240]	@ (80a3f98 <RCCEx_PLL2_Config+0x104>)
 80a3ea8:	6813      	ldr	r3, [r2, #0]
 80a3eaa:	f023 6380 	bic.w	r3, r3, #67108864	@ 0x4000000
 80a3eae:	6013      	str	r3, [r2, #0]

    /* Get Start Tick*/
    tickstart = HAL_GetTick();
 80a3eb0:	f7fd fd60 	bl	80a1974 <HAL_GetTick>
 80a3eb4:	4604      	mov	r4, r0

    /* Wait till PLL is disabled */
    while (__HAL_RCC_GET_FLAG(RCC_FLAG_PLL2RDY) != 0U)
 80a3eb6:	4b38      	ldr	r3, [pc, #224]	@ (80a3f98 <RCCEx_PLL2_Config+0x104>)
 80a3eb8:	681b      	ldr	r3, [r3, #0]
 80a3eba:	f013 6f00 	tst.w	r3, #134217728	@ 0x8000000
 80a3ebe:	d006      	beq.n	80a3ece <RCCEx_PLL2_Config+0x3a>
    {
      if ((HAL_GetTick() - tickstart) > PLL2_TIMEOUT_VALUE)
 80a3ec0:	f7fd fd58 	bl	80a1974 <HAL_GetTick>
 80a3ec4:	1b03      	subs	r3, r0, r4
 80a3ec6:	2b02      	cmp	r3, #2
 80a3ec8:	d9f5      	bls.n	80a3eb6 <RCCEx_PLL2_Config+0x22>
      {
        return HAL_TIMEOUT;
 80a3eca:	2003      	movs	r0, #3

  }


  return status;
}
 80a3ecc:	bd70      	pop	{r4, r5, r6, pc}
    __HAL_RCC_PLL2_CONFIG(pll2->PLL2M,
 80a3ece:	4b32      	ldr	r3, [pc, #200]	@ (80a3f98 <RCCEx_PLL2_Config+0x104>)
 80a3ed0:	6a9a      	ldr	r2, [r3, #40]	@ 0x28
 80a3ed2:	f422 327c 	bic.w	r2, r2, #258048	@ 0x3f000
 80a3ed6:	6829      	ldr	r1, [r5, #0]
 80a3ed8:	ea42 3201 	orr.w	r2, r2, r1, lsl #12
 80a3edc:	629a      	str	r2, [r3, #40]	@ 0x28
 80a3ede:	686a      	ldr	r2, [r5, #4]
 80a3ee0:	3a01      	subs	r2, #1
 80a3ee2:	f3c2 0208 	ubfx	r2, r2, #0, #9
 80a3ee6:	68a9      	ldr	r1, [r5, #8]
 80a3ee8:	3901      	subs	r1, #1
 80a3eea:	0249      	lsls	r1, r1, #9
 80a3eec:	b289      	uxth	r1, r1
 80a3eee:	430a      	orrs	r2, r1
 80a3ef0:	68e9      	ldr	r1, [r5, #12]
 80a3ef2:	3901      	subs	r1, #1
 80a3ef4:	0409      	lsls	r1, r1, #16
 80a3ef6:	f401 01fe 	and.w	r1, r1, #8323072	@ 0x7f0000
 80a3efa:	430a      	orrs	r2, r1
 80a3efc:	6929      	ldr	r1, [r5, #16]
 80a3efe:	3901      	subs	r1, #1
 80a3f00:	0609      	lsls	r1, r1, #24
 80a3f02:	f001 41fe 	and.w	r1, r1, #2130706432	@ 0x7f000000
 80a3f06:	430a      	orrs	r2, r1
 80a3f08:	639a      	str	r2, [r3, #56]	@ 0x38
    __HAL_RCC_PLL2_VCIRANGE(pll2->PLL2RGE) ;
 80a3f0a:	6ada      	ldr	r2, [r3, #44]	@ 0x2c
 80a3f0c:	f022 02c0 	bic.w	r2, r2, #192	@ 0xc0
 80a3f10:	6969      	ldr	r1, [r5, #20]
 80a3f12:	430a      	orrs	r2, r1
 80a3f14:	62da      	str	r2, [r3, #44]	@ 0x2c
    __HAL_RCC_PLL2_VCORANGE(pll2->PLL2VCOSEL) ;
 80a3f16:	6ada      	ldr	r2, [r3, #44]	@ 0x2c
 80a3f18:	f022 0220 	bic.w	r2, r2, #32
 80a3f1c:	69a9      	ldr	r1, [r5, #24]
 80a3f1e:	430a      	orrs	r2, r1
 80a3f20:	62da      	str	r2, [r3, #44]	@ 0x2c
    __HAL_RCC_PLL2FRACN_DISABLE();
 80a3f22:	6ada      	ldr	r2, [r3, #44]	@ 0x2c
 80a3f24:	f022 0210 	bic.w	r2, r2, #16
 80a3f28:	62da      	str	r2, [r3, #44]	@ 0x2c
    __HAL_RCC_PLL2FRACN_CONFIG(pll2->PLL2FRACN);
 80a3f2a:	6bda      	ldr	r2, [r3, #60]	@ 0x3c
 80a3f2c:	f36f 02cf 	bfc	r2, #3, #13
 80a3f30:	69e9      	ldr	r1, [r5, #28]
 80a3f32:	ea42 02c1 	orr.w	r2, r2, r1, lsl #3
 80a3f36:	63da      	str	r2, [r3, #60]	@ 0x3c
    __HAL_RCC_PLL2FRACN_ENABLE();
 80a3f38:	6ada      	ldr	r2, [r3, #44]	@ 0x2c
 80a3f3a:	f042 0210 	orr.w	r2, r2, #16
 80a3f3e:	62da      	str	r2, [r3, #44]	@ 0x2c
    if (Divider == DIVIDER_P_UPDATE)
 80a3f40:	b9c6      	cbnz	r6, 80a3f74 <RCCEx_PLL2_Config+0xe0>
      __HAL_RCC_PLL2CLKOUT_ENABLE(RCC_PLL2_DIVP);
 80a3f42:	461a      	mov	r2, r3
 80a3f44:	6adb      	ldr	r3, [r3, #44]	@ 0x2c
 80a3f46:	f443 2300 	orr.w	r3, r3, #524288	@ 0x80000
 80a3f4a:	62d3      	str	r3, [r2, #44]	@ 0x2c
    __HAL_RCC_PLL2_ENABLE();
 80a3f4c:	4a12      	ldr	r2, [pc, #72]	@ (80a3f98 <RCCEx_PLL2_Config+0x104>)
 80a3f4e:	6813      	ldr	r3, [r2, #0]
 80a3f50:	f043 6380 	orr.w	r3, r3, #67108864	@ 0x4000000
 80a3f54:	6013      	str	r3, [r2, #0]
    tickstart = HAL_GetTick();
 80a3f56:	f7fd fd0d 	bl	80a1974 <HAL_GetTick>
 80a3f5a:	4604      	mov	r4, r0
    while (__HAL_RCC_GET_FLAG(RCC_FLAG_PLL2RDY) == 0U)
 80a3f5c:	4b0e      	ldr	r3, [pc, #56]	@ (80a3f98 <RCCEx_PLL2_Config+0x104>)
 80a3f5e:	681b      	ldr	r3, [r3, #0]
 80a3f60:	f013 6f00 	tst.w	r3, #134217728	@ 0x8000000
 80a3f64:	d114      	bne.n	80a3f90 <RCCEx_PLL2_Config+0xfc>
      if ((HAL_GetTick() - tickstart) > PLL2_TIMEOUT_VALUE)
 80a3f66:	f7fd fd05 	bl	80a1974 <HAL_GetTick>
 80a3f6a:	1b00      	subs	r0, r0, r4
 80a3f6c:	2802      	cmp	r0, #2
 80a3f6e:	d9f5      	bls.n	80a3f5c <RCCEx_PLL2_Config+0xc8>
        return HAL_TIMEOUT;
 80a3f70:	2003      	movs	r0, #3
 80a3f72:	e7ab      	b.n	80a3ecc <RCCEx_PLL2_Config+0x38>
    else if (Divider == DIVIDER_Q_UPDATE)
 80a3f74:	2e01      	cmp	r6, #1
 80a3f76:	d005      	beq.n	80a3f84 <RCCEx_PLL2_Config+0xf0>
      __HAL_RCC_PLL2CLKOUT_ENABLE(RCC_PLL2_DIVR);
 80a3f78:	4a07      	ldr	r2, [pc, #28]	@ (80a3f98 <RCCEx_PLL2_Config+0x104>)
 80a3f7a:	6ad3      	ldr	r3, [r2, #44]	@ 0x2c
 80a3f7c:	f443 1300 	orr.w	r3, r3, #2097152	@ 0x200000
 80a3f80:	62d3      	str	r3, [r2, #44]	@ 0x2c
 80a3f82:	e7e3      	b.n	80a3f4c <RCCEx_PLL2_Config+0xb8>
      __HAL_RCC_PLL2CLKOUT_ENABLE(RCC_PLL2_DIVQ);
 80a3f84:	4a04      	ldr	r2, [pc, #16]	@ (80a3f98 <RCCEx_PLL2_Config+0x104>)
 80a3f86:	6ad3      	ldr	r3, [r2, #44]	@ 0x2c
 80a3f88:	f443 1380 	orr.w	r3, r3, #1048576	@ 0x100000
 80a3f8c:	62d3      	str	r3, [r2, #44]	@ 0x2c
 80a3f8e:	e7dd      	b.n	80a3f4c <RCCEx_PLL2_Config+0xb8>
  return status;
 80a3f90:	2000      	movs	r0, #0
 80a3f92:	e79b      	b.n	80a3ecc <RCCEx_PLL2_Config+0x38>
    return HAL_ERROR;
 80a3f94:	2001      	movs	r0, #1
}
 80a3f96:	4770      	bx	lr
 80a3f98:	58024400 	.word	0x58024400

080a3f9c <RCCEx_PLL3_Config>:
  assert_param(IS_RCC_PLL3RGE_VALUE(pll3->PLL3RGE));
  assert_param(IS_RCC_PLL3VCO_VALUE(pll3->PLL3VCOSEL));
  assert_param(IS_RCC_PLLFRACN_VALUE(pll3->PLL3FRACN));

  /* Check that PLL3 OSC clock source is already set */
  if (__HAL_RCC_GET_PLL_OSCSOURCE() == RCC_PLLSOURCE_NONE)
 80a3f9c:	4b40      	ldr	r3, [pc, #256]	@ (80a40a0 <RCCEx_PLL3_Config+0x104>)
 80a3f9e:	6a9b      	ldr	r3, [r3, #40]	@ 0x28
 80a3fa0:	f003 0303 	and.w	r3, r3, #3
 80a3fa4:	2b03      	cmp	r3, #3
 80a3fa6:	d079      	beq.n	80a409c <RCCEx_PLL3_Config+0x100>
{
 80a3fa8:	b570      	push	{r4, r5, r6, lr}
 80a3faa:	4605      	mov	r5, r0
 80a3fac:	460e      	mov	r6, r1


  else
  {
    /* Disable  PLL3. */
    __HAL_RCC_PLL3_DISABLE();
 80a3fae:	4a3c      	ldr	r2, [pc, #240]	@ (80a40a0 <RCCEx_PLL3_Config+0x104>)
 80a3fb0:	6813      	ldr	r3, [r2, #0]
 80a3fb2:	f023 5380 	bic.w	r3, r3, #268435456	@ 0x10000000
 80a3fb6:	6013      	str	r3, [r2, #0]

    /* Get Start Tick*/
    tickstart = HAL_GetTick();
 80a3fb8:	f7fd fcdc 	bl	80a1974 <HAL_GetTick>
 80a3fbc:	4604      	mov	r4, r0
    /* Wait till PLL3 is ready */
    while (__HAL_RCC_GET_FLAG(RCC_FLAG_PLL3RDY) != 0U)
 80a3fbe:	4b38      	ldr	r3, [pc, #224]	@ (80a40a0 <RCCEx_PLL3_Config+0x104>)
 80a3fc0:	681b      	ldr	r3, [r3, #0]
 80a3fc2:	f013 5f00 	tst.w	r3, #536870912	@ 0x20000000
 80a3fc6:	d006      	beq.n	80a3fd6 <RCCEx_PLL3_Config+0x3a>
    {
      if ((HAL_GetTick() - tickstart) > PLL3_TIMEOUT_VALUE)
 80a3fc8:	f7fd fcd4 	bl	80a1974 <HAL_GetTick>
 80a3fcc:	1b03      	subs	r3, r0, r4
 80a3fce:	2b02      	cmp	r3, #2
 80a3fd0:	d9f5      	bls.n	80a3fbe <RCCEx_PLL3_Config+0x22>
      {
        return HAL_TIMEOUT;
 80a3fd2:	2003      	movs	r0, #3

  }


  return status;
}
 80a3fd4:	bd70      	pop	{r4, r5, r6, pc}
    __HAL_RCC_PLL3_CONFIG(pll3->PLL3M,
 80a3fd6:	4b32      	ldr	r3, [pc, #200]	@ (80a40a0 <RCCEx_PLL3_Config+0x104>)
 80a3fd8:	6a9a      	ldr	r2, [r3, #40]	@ 0x28
 80a3fda:	f022 727c 	bic.w	r2, r2, #66060288	@ 0x3f00000
 80a3fde:	6829      	ldr	r1, [r5, #0]
 80a3fe0:	ea42 5201 	orr.w	r2, r2, r1, lsl #20
 80a3fe4:	629a      	str	r2, [r3, #40]	@ 0x28
 80a3fe6:	686a      	ldr	r2, [r5, #4]
 80a3fe8:	3a01      	subs	r2, #1
 80a3fea:	f3c2 0208 	ubfx	r2, r2, #0, #9
 80a3fee:	68a9      	ldr	r1, [r5, #8]
 80a3ff0:	3901      	subs	r1, #1
 80a3ff2:	0249      	lsls	r1, r1, #9
 80a3ff4:	b289      	uxth	r1, r1
 80a3ff6:	430a      	orrs	r2, r1
 80a3ff8:	68e9      	ldr	r1, [r5, #12]
 80a3ffa:	3901      	subs	r1, #1
 80a3ffc:	0409      	lsls	r1, r1, #16
 80a3ffe:	f401 01fe 	and.w	r1, r1, #8323072	@ 0x7f0000
 80a4002:	430a      	orrs	r2, r1
 80a4004:	6929      	ldr	r1, [r5, #16]
 80a4006:	3901      	subs	r1, #1
 80a4008:	0609      	lsls	r1, r1, #24
 80a400a:	f001 41fe 	and.w	r1, r1, #2130706432	@ 0x7f000000
 80a400e:	430a      	orrs	r2, r1
 80a4010:	641a      	str	r2, [r3, #64]	@ 0x40
    __HAL_RCC_PLL3_VCIRANGE(pll3->PLL3RGE) ;
 80a4012:	6ada      	ldr	r2, [r3, #44]	@ 0x2c
 80a4014:	f422 6240 	bic.w	r2, r2, #3072	@ 0xc00
 80a4018:	6969      	ldr	r1, [r5, #20]
 80a401a:	430a      	orrs	r2, r1
 80a401c:	62da      	str	r2, [r3, #44]	@ 0x2c
    __HAL_RCC_PLL3_VCORANGE(pll3->PLL3VCOSEL) ;
 80a401e:	6ada      	ldr	r2, [r3, #44]	@ 0x2c
 80a4020:	f422 7200 	bic.w	r2, r2, #512	@ 0x200
 80a4024:	69a9      	ldr	r1, [r5, #24]
 80a4026:	430a      	orrs	r2, r1
 80a4028:	62da      	str	r2, [r3, #44]	@ 0x2c
    __HAL_RCC_PLL3FRACN_DISABLE();
 80a402a:	6ada      	ldr	r2, [r3, #44]	@ 0x2c
 80a402c:	f422 7280 	bic.w	r2, r2, #256	@ 0x100
 80a4030:	62da      	str	r2, [r3, #44]	@ 0x2c
    __HAL_RCC_PLL3FRACN_CONFIG(pll3->PLL3FRACN);
 80a4032:	6c5a      	ldr	r2, [r3, #68]	@ 0x44
 80a4034:	f36f 02cf 	bfc	r2, #3, #13
 80a4038:	69e9      	ldr	r1, [r5, #28]
 80a403a:	ea42 02c1 	orr.w	r2, r2, r1, lsl #3
 80a403e:	645a      	str	r2, [r3, #68]	@ 0x44
    __HAL_RCC_PLL3FRACN_ENABLE();
 80a4040:	6ada      	ldr	r2, [r3, #44]	@ 0x2c
 80a4042:	f442 7280 	orr.w	r2, r2, #256	@ 0x100
 80a4046:	62da      	str	r2, [r3, #44]	@ 0x2c
    if (Divider == DIVIDER_P_UPDATE)
 80a4048:	b9c6      	cbnz	r6, 80a407c <RCCEx_PLL3_Config+0xe0>
      __HAL_RCC_PLL3CLKOUT_ENABLE(RCC_PLL3_DIVP);
 80a404a:	461a      	mov	r2, r3
 80a404c:	6adb      	ldr	r3, [r3, #44]	@ 0x2c
 80a404e:	f443 0380 	orr.w	r3, r3, #4194304	@ 0x400000
 80a4052:	62d3      	str	r3, [r2, #44]	@ 0x2c
    __HAL_RCC_PLL3_ENABLE();
 80a4054:	4a12      	ldr	r2, [pc, #72]	@ (80a40a0 <RCCEx_PLL3_Config+0x104>)
 80a4056:	6813      	ldr	r3, [r2, #0]
 80a4058:	f043 5380 	orr.w	r3, r3, #268435456	@ 0x10000000
 80a405c:	6013      	str	r3, [r2, #0]
    tickstart = HAL_GetTick();
 80a405e:	f7fd fc89 	bl	80a1974 <HAL_GetTick>
 80a4062:	4604      	mov	r4, r0
    while (__HAL_RCC_GET_FLAG(RCC_FLAG_PLL3RDY) == 0U)
 80a4064:	4b0e      	ldr	r3, [pc, #56]	@ (80a40a0 <RCCEx_PLL3_Config+0x104>)
 80a4066:	681b      	ldr	r3, [r3, #0]
 80a4068:	f013 5f00 	tst.w	r3, #536870912	@ 0x20000000
 80a406c:	d114      	bne.n	80a4098 <RCCEx_PLL3_Config+0xfc>
      if ((HAL_GetTick() - tickstart) > PLL3_TIMEOUT_VALUE)
 80a406e:	f7fd fc81 	bl	80a1974 <HAL_GetTick>
 80a4072:	1b00      	subs	r0, r0, r4
 80a4074:	2802      	cmp	r0, #2
 80a4076:	d9f5      	bls.n	80a4064 <RCCEx_PLL3_Config+0xc8>
        return HAL_TIMEOUT;
 80a4078:	2003      	movs	r0, #3
 80a407a:	e7ab      	b.n	80a3fd4 <RCCEx_PLL3_Config+0x38>
    else if (Divider == DIVIDER_Q_UPDATE)
 80a407c:	2e01      	cmp	r6, #1
 80a407e:	d005      	beq.n	80a408c <RCCEx_PLL3_Config+0xf0>
      __HAL_RCC_PLL3CLKOUT_ENABLE(RCC_PLL3_DIVR);
 80a4080:	4a07      	ldr	r2, [pc, #28]	@ (80a40a0 <RCCEx_PLL3_Config+0x104>)
 80a4082:	6ad3      	ldr	r3, [r2, #44]	@ 0x2c
 80a4084:	f043 7380 	orr.w	r3, r3, #16777216	@ 0x1000000
 80a4088:	62d3      	str	r3, [r2, #44]	@ 0x2c
 80a408a:	e7e3      	b.n	80a4054 <RCCEx_PLL3_Config+0xb8>
      __HAL_RCC_PLL3CLKOUT_ENABLE(RCC_PLL3_DIVQ);
 80a408c:	4a04      	ldr	r2, [pc, #16]	@ (80a40a0 <RCCEx_PLL3_Config+0x104>)
 80a408e:	6ad3      	ldr	r3, [r2, #44]	@ 0x2c
 80a4090:	f443 0300 	orr.w	r3, r3, #8388608	@ 0x800000
 80a4094:	62d3      	str	r3, [r2, #44]	@ 0x2c
 80a4096:	e7dd      	b.n	80a4054 <RCCEx_PLL3_Config+0xb8>
  return status;
 80a4098:	2000      	movs	r0, #0
 80a409a:	e79b      	b.n	80a3fd4 <RCCEx_PLL3_Config+0x38>
    return HAL_ERROR;
 80a409c:	2001      	movs	r0, #1
}
 80a409e:	4770      	bx	lr
 80a40a0:	58024400 	.word	0x58024400

080a40a4 <HAL_RCCEx_PeriphCLKConfig>:
{
 80a40a4:	b5f8      	push	{r3, r4, r5, r6, r7, lr}
 80a40a6:	4604      	mov	r4, r0
  if (((PeriphClkInit->PeriphClockSelection) & RCC_PERIPHCLK_SPDIFRX) == RCC_PERIPHCLK_SPDIFRX)
 80a40a8:	6803      	ldr	r3, [r0, #0]
 80a40aa:	f013 6f00 	tst.w	r3, #134217728	@ 0x8000000
 80a40ae:	d030      	beq.n	80a4112 <HAL_RCCEx_PeriphCLKConfig+0x6e>
    switch (PeriphClkInit->SpdifrxClockSelection)
 80a40b0:	6e83      	ldr	r3, [r0, #104]	@ 0x68
 80a40b2:	f5b3 1f00 	cmp.w	r3, #2097152	@ 0x200000
 80a40b6:	d026      	beq.n	80a4106 <HAL_RCCEx_PeriphCLKConfig+0x62>
 80a40b8:	d80e      	bhi.n	80a40d8 <HAL_RCCEx_PeriphCLKConfig+0x34>
 80a40ba:	b1ab      	cbz	r3, 80a40e8 <HAL_RCCEx_PeriphCLKConfig+0x44>
 80a40bc:	f5b3 1f80 	cmp.w	r3, #1048576	@ 0x100000
 80a40c0:	d107      	bne.n	80a40d2 <HAL_RCCEx_PeriphCLKConfig+0x2e>
        ret = RCCEx_PLL2_Config(&(PeriphClkInit->PLL2), DIVIDER_R_UPDATE);
 80a40c2:	2102      	movs	r1, #2
 80a40c4:	3008      	adds	r0, #8
 80a40c6:	f7ff fee5 	bl	80a3e94 <RCCEx_PLL2_Config>
 80a40ca:	4605      	mov	r5, r0
    if (ret == HAL_OK)
 80a40cc:	b195      	cbz	r5, 80a40f4 <HAL_RCCEx_PeriphCLKConfig+0x50>
      status = ret;
 80a40ce:	462e      	mov	r6, r5
 80a40d0:	e021      	b.n	80a4116 <HAL_RCCEx_PeriphCLKConfig+0x72>
    switch (PeriphClkInit->SpdifrxClockSelection)
 80a40d2:	2601      	movs	r6, #1
 80a40d4:	4635      	mov	r5, r6
 80a40d6:	e01e      	b.n	80a4116 <HAL_RCCEx_PeriphCLKConfig+0x72>
 80a40d8:	f5b3 1f40 	cmp.w	r3, #3145728	@ 0x300000
 80a40dc:	d101      	bne.n	80a40e2 <HAL_RCCEx_PeriphCLKConfig+0x3e>
 80a40de:	2500      	movs	r5, #0
 80a40e0:	e008      	b.n	80a40f4 <HAL_RCCEx_PeriphCLKConfig+0x50>
 80a40e2:	2601      	movs	r6, #1
 80a40e4:	4635      	mov	r5, r6
 80a40e6:	e016      	b.n	80a4116 <HAL_RCCEx_PeriphCLKConfig+0x72>
        __HAL_RCC_PLLCLKOUT_ENABLE(RCC_PLL1_DIVQ);
 80a40e8:	4a98      	ldr	r2, [pc, #608]	@ (80a434c <HAL_RCCEx_PeriphCLKConfig+0x2a8>)
 80a40ea:	6ad3      	ldr	r3, [r2, #44]	@ 0x2c
 80a40ec:	f443 3300 	orr.w	r3, r3, #131072	@ 0x20000
 80a40f0:	62d3      	str	r3, [r2, #44]	@ 0x2c
  HAL_StatusTypeDef ret = HAL_OK;      /* Intermediate status */
 80a40f2:	2500      	movs	r5, #0
      __HAL_RCC_SPDIFRX_CONFIG(PeriphClkInit->SpdifrxClockSelection);
 80a40f4:	4a95      	ldr	r2, [pc, #596]	@ (80a434c <HAL_RCCEx_PeriphCLKConfig+0x2a8>)
 80a40f6:	6d13      	ldr	r3, [r2, #80]	@ 0x50
 80a40f8:	f423 1340 	bic.w	r3, r3, #3145728	@ 0x300000
 80a40fc:	6ea1      	ldr	r1, [r4, #104]	@ 0x68
 80a40fe:	430b      	orrs	r3, r1
 80a4100:	6513      	str	r3, [r2, #80]	@ 0x50
  HAL_StatusTypeDef status = HAL_OK;   /* Final status */
 80a4102:	2600      	movs	r6, #0
 80a4104:	e007      	b.n	80a4116 <HAL_RCCEx_PeriphCLKConfig+0x72>
        ret = RCCEx_PLL3_Config(&(PeriphClkInit->PLL3), DIVIDER_R_UPDATE);
 80a4106:	2102      	movs	r1, #2
 80a4108:	3028      	adds	r0, #40	@ 0x28
 80a410a:	f7ff ff47 	bl	80a3f9c <RCCEx_PLL3_Config>
 80a410e:	4605      	mov	r5, r0
        break;
 80a4110:	e7dc      	b.n	80a40cc <HAL_RCCEx_PeriphCLKConfig+0x28>
  HAL_StatusTypeDef status = HAL_OK;   /* Final status */
 80a4112:	2600      	movs	r6, #0
  HAL_StatusTypeDef ret = HAL_OK;      /* Intermediate status */
 80a4114:	4635      	mov	r5, r6
  if (((PeriphClkInit->PeriphClockSelection) & RCC_PERIPHCLK_SAI1) == RCC_PERIPHCLK_SAI1)
 80a4116:	6823      	ldr	r3, [r4, #0]
 80a4118:	f413 7f80 	tst.w	r3, #256	@ 0x100
 80a411c:	d014      	beq.n	80a4148 <HAL_RCCEx_PeriphCLKConfig+0xa4>
    switch (PeriphClkInit->Sai1ClockSelection)
 80a411e:	6da3      	ldr	r3, [r4, #88]	@ 0x58
 80a4120:	2b04      	cmp	r3, #4
 80a4122:	d831      	bhi.n	80a4188 <HAL_RCCEx_PeriphCLKConfig+0xe4>
 80a4124:	e8df f003 	tbb	[pc, r3]
 80a4128:	08292203 	.word	0x08292203
 80a412c:	08          	.byte	0x08
 80a412d:	00          	.byte	0x00
        __HAL_RCC_PLLCLKOUT_ENABLE(RCC_PLL1_DIVQ);
 80a412e:	4a87      	ldr	r2, [pc, #540]	@ (80a434c <HAL_RCCEx_PeriphCLKConfig+0x2a8>)
 80a4130:	6ad3      	ldr	r3, [r2, #44]	@ 0x2c
 80a4132:	f443 3300 	orr.w	r3, r3, #131072	@ 0x20000
 80a4136:	62d3      	str	r3, [r2, #44]	@ 0x2c
    if (ret == HAL_OK)
 80a4138:	bb4d      	cbnz	r5, 80a418e <HAL_RCCEx_PeriphCLKConfig+0xea>
      __HAL_RCC_SAI1_CONFIG(PeriphClkInit->Sai1ClockSelection);
 80a413a:	4a84      	ldr	r2, [pc, #528]	@ (80a434c <HAL_RCCEx_PeriphCLKConfig+0x2a8>)
 80a413c:	6d13      	ldr	r3, [r2, #80]	@ 0x50
 80a413e:	f023 0307 	bic.w	r3, r3, #7
 80a4142:	6da1      	ldr	r1, [r4, #88]	@ 0x58
 80a4144:	430b      	orrs	r3, r1
 80a4146:	6513      	str	r3, [r2, #80]	@ 0x50
  if (((PeriphClkInit->PeriphClockSelection) & RCC_PERIPHCLK_SAI23) == RCC_PERIPHCLK_SAI23)
 80a4148:	6823      	ldr	r3, [r4, #0]
 80a414a:	f413 7f00 	tst.w	r3, #512	@ 0x200
 80a414e:	d038      	beq.n	80a41c2 <HAL_RCCEx_PeriphCLKConfig+0x11e>
    switch (PeriphClkInit->Sai23ClockSelection)
 80a4150:	6de3      	ldr	r3, [r4, #92]	@ 0x5c
 80a4152:	2b80      	cmp	r3, #128	@ 0x80
 80a4154:	d04a      	beq.n	80a41ec <HAL_RCCEx_PeriphCLKConfig+0x148>
 80a4156:	d81f      	bhi.n	80a4198 <HAL_RCCEx_PeriphCLKConfig+0xf4>
 80a4158:	b333      	cbz	r3, 80a41a8 <HAL_RCCEx_PeriphCLKConfig+0x104>
 80a415a:	2b40      	cmp	r3, #64	@ 0x40
 80a415c:	d119      	bne.n	80a4192 <HAL_RCCEx_PeriphCLKConfig+0xee>
        ret = RCCEx_PLL2_Config(&(PeriphClkInit->PLL2), DIVIDER_P_UPDATE);
 80a415e:	2100      	movs	r1, #0
 80a4160:	f104 0008 	add.w	r0, r4, #8
 80a4164:	f7ff fe96 	bl	80a3e94 <RCCEx_PLL2_Config>
 80a4168:	4605      	mov	r5, r0
        break;
 80a416a:	e022      	b.n	80a41b2 <HAL_RCCEx_PeriphCLKConfig+0x10e>
        ret = RCCEx_PLL2_Config(&(PeriphClkInit->PLL2), DIVIDER_P_UPDATE);
 80a416c:	2100      	movs	r1, #0
 80a416e:	f104 0008 	add.w	r0, r4, #8
 80a4172:	f7ff fe8f 	bl	80a3e94 <RCCEx_PLL2_Config>
 80a4176:	4605      	mov	r5, r0
        break;
 80a4178:	e7de      	b.n	80a4138 <HAL_RCCEx_PeriphCLKConfig+0x94>
        ret = RCCEx_PLL3_Config(&(PeriphClkInit->PLL3), DIVIDER_P_UPDATE);
 80a417a:	2100      	movs	r1, #0
 80a417c:	f104 0028 	add.w	r0, r4, #40	@ 0x28
 80a4180:	f7ff ff0c 	bl	80a3f9c <RCCEx_PLL3_Config>
 80a4184:	4605      	mov	r5, r0
        break;
 80a4186:	e7d7      	b.n	80a4138 <HAL_RCCEx_PeriphCLKConfig+0x94>
    switch (PeriphClkInit->Sai1ClockSelection)
 80a4188:	2601      	movs	r6, #1
 80a418a:	4635      	mov	r5, r6
 80a418c:	e7dc      	b.n	80a4148 <HAL_RCCEx_PeriphCLKConfig+0xa4>
      status = ret;
 80a418e:	462e      	mov	r6, r5
 80a4190:	e7da      	b.n	80a4148 <HAL_RCCEx_PeriphCLKConfig+0xa4>
    switch (PeriphClkInit->Sai23ClockSelection)
 80a4192:	2601      	movs	r6, #1
 80a4194:	4635      	mov	r5, r6
 80a4196:	e014      	b.n	80a41c2 <HAL_RCCEx_PeriphCLKConfig+0x11e>
 80a4198:	2bc0      	cmp	r3, #192	@ 0xc0
 80a419a:	d00a      	beq.n	80a41b2 <HAL_RCCEx_PeriphCLKConfig+0x10e>
 80a419c:	f5b3 7f80 	cmp.w	r3, #256	@ 0x100
 80a41a0:	d007      	beq.n	80a41b2 <HAL_RCCEx_PeriphCLKConfig+0x10e>
 80a41a2:	2601      	movs	r6, #1
 80a41a4:	4635      	mov	r5, r6
 80a41a6:	e00c      	b.n	80a41c2 <HAL_RCCEx_PeriphCLKConfig+0x11e>
        __HAL_RCC_PLLCLKOUT_ENABLE(RCC_PLL1_DIVQ);
 80a41a8:	4a68      	ldr	r2, [pc, #416]	@ (80a434c <HAL_RCCEx_PeriphCLKConfig+0x2a8>)
 80a41aa:	6ad3      	ldr	r3, [r2, #44]	@ 0x2c
 80a41ac:	f443 3300 	orr.w	r3, r3, #131072	@ 0x20000
 80a41b0:	62d3      	str	r3, [r2, #44]	@ 0x2c
    if (ret == HAL_OK)
 80a41b2:	bb15      	cbnz	r5, 80a41fa <HAL_RCCEx_PeriphCLKConfig+0x156>
      __HAL_RCC_SAI23_CONFIG(PeriphClkInit->Sai23ClockSelection);
 80a41b4:	4a65      	ldr	r2, [pc, #404]	@ (80a434c <HAL_RCCEx_PeriphCLKConfig+0x2a8>)
 80a41b6:	6d13      	ldr	r3, [r2, #80]	@ 0x50
 80a41b8:	f423 73e0 	bic.w	r3, r3, #448	@ 0x1c0
 80a41bc:	6de1      	ldr	r1, [r4, #92]	@ 0x5c
 80a41be:	430b      	orrs	r3, r1
 80a41c0:	6513      	str	r3, [r2, #80]	@ 0x50
  if (((PeriphClkInit->PeriphClockSelection) & RCC_PERIPHCLK_SAI4A) == RCC_PERIPHCLK_SAI4A)
 80a41c2:	6823      	ldr	r3, [r4, #0]
 80a41c4:	f413 6f80 	tst.w	r3, #1024	@ 0x400
 80a41c8:	d03c      	beq.n	80a4244 <HAL_RCCEx_PeriphCLKConfig+0x1a0>
    switch (PeriphClkInit->Sai4AClockSelection)
 80a41ca:	f8d4 30a8 	ldr.w	r3, [r4, #168]	@ 0xa8
 80a41ce:	f5b3 0f80 	cmp.w	r3, #4194304	@ 0x400000
 80a41d2:	d02f      	beq.n	80a4234 <HAL_RCCEx_PeriphCLKConfig+0x190>
 80a41d4:	d816      	bhi.n	80a4204 <HAL_RCCEx_PeriphCLKConfig+0x160>
 80a41d6:	b1f3      	cbz	r3, 80a4216 <HAL_RCCEx_PeriphCLKConfig+0x172>
 80a41d8:	f5b3 1f00 	cmp.w	r3, #2097152	@ 0x200000
 80a41dc:	d10f      	bne.n	80a41fe <HAL_RCCEx_PeriphCLKConfig+0x15a>
        ret = RCCEx_PLL2_Config(&(PeriphClkInit->PLL2), DIVIDER_P_UPDATE);
 80a41de:	2100      	movs	r1, #0
 80a41e0:	f104 0008 	add.w	r0, r4, #8
 80a41e4:	f7ff fe56 	bl	80a3e94 <RCCEx_PLL2_Config>
 80a41e8:	4605      	mov	r5, r0
        break;
 80a41ea:	e019      	b.n	80a4220 <HAL_RCCEx_PeriphCLKConfig+0x17c>
        ret = RCCEx_PLL3_Config(&(PeriphClkInit->PLL3), DIVIDER_P_UPDATE);
 80a41ec:	2100      	movs	r1, #0
 80a41ee:	f104 0028 	add.w	r0, r4, #40	@ 0x28
 80a41f2:	f7ff fed3 	bl	80a3f9c <RCCEx_PLL3_Config>
 80a41f6:	4605      	mov	r5, r0
        break;
 80a41f8:	e7db      	b.n	80a41b2 <HAL_RCCEx_PeriphCLKConfig+0x10e>
      status = ret;
 80a41fa:	462e      	mov	r6, r5
 80a41fc:	e7e1      	b.n	80a41c2 <HAL_RCCEx_PeriphCLKConfig+0x11e>
    switch (PeriphClkInit->Sai4AClockSelection)
 80a41fe:	2601      	movs	r6, #1
 80a4200:	4635      	mov	r5, r6
 80a4202:	e01f      	b.n	80a4244 <HAL_RCCEx_PeriphCLKConfig+0x1a0>
 80a4204:	f5b3 0fc0 	cmp.w	r3, #6291456	@ 0x600000
 80a4208:	d00a      	beq.n	80a4220 <HAL_RCCEx_PeriphCLKConfig+0x17c>
 80a420a:	f5b3 0f00 	cmp.w	r3, #8388608	@ 0x800000
 80a420e:	d007      	beq.n	80a4220 <HAL_RCCEx_PeriphCLKConfig+0x17c>
 80a4210:	2601      	movs	r6, #1
 80a4212:	4635      	mov	r5, r6
 80a4214:	e016      	b.n	80a4244 <HAL_RCCEx_PeriphCLKConfig+0x1a0>
        __HAL_RCC_PLLCLKOUT_ENABLE(RCC_PLL1_DIVQ);
 80a4216:	4a4d      	ldr	r2, [pc, #308]	@ (80a434c <HAL_RCCEx_PeriphCLKConfig+0x2a8>)
 80a4218:	6ad3      	ldr	r3, [r2, #44]	@ 0x2c
 80a421a:	f443 3300 	orr.w	r3, r3, #131072	@ 0x20000
 80a421e:	62d3      	str	r3, [r2, #44]	@ 0x2c
    if (ret == HAL_OK)
 80a4220:	b97d      	cbnz	r5, 80a4242 <HAL_RCCEx_PeriphCLKConfig+0x19e>
      __HAL_RCC_SAI4A_CONFIG(PeriphClkInit->Sai4AClockSelection);
 80a4222:	4a4a      	ldr	r2, [pc, #296]	@ (80a434c <HAL_RCCEx_PeriphCLKConfig+0x2a8>)
 80a4224:	6d93      	ldr	r3, [r2, #88]	@ 0x58
 80a4226:	f423 0360 	bic.w	r3, r3, #14680064	@ 0xe00000
 80a422a:	f8d4 10a8 	ldr.w	r1, [r4, #168]	@ 0xa8
 80a422e:	430b      	orrs	r3, r1
 80a4230:	6593      	str	r3, [r2, #88]	@ 0x58
 80a4232:	e007      	b.n	80a4244 <HAL_RCCEx_PeriphCLKConfig+0x1a0>
        ret = RCCEx_PLL3_Config(&(PeriphClkInit->PLL3), DIVIDER_P_UPDATE);
 80a4234:	2100      	movs	r1, #0
 80a4236:	f104 0028 	add.w	r0, r4, #40	@ 0x28
 80a423a:	f7ff feaf 	bl	80a3f9c <RCCEx_PLL3_Config>
 80a423e:	4605      	mov	r5, r0
        break;
 80a4240:	e7ee      	b.n	80a4220 <HAL_RCCEx_PeriphCLKConfig+0x17c>
      status = ret;
 80a4242:	462e      	mov	r6, r5
  if (((PeriphClkInit->PeriphClockSelection) & RCC_PERIPHCLK_SAI4B) == RCC_PERIPHCLK_SAI4B)
 80a4244:	6823      	ldr	r3, [r4, #0]
 80a4246:	f413 6f00 	tst.w	r3, #2048	@ 0x800
 80a424a:	d02b      	beq.n	80a42a4 <HAL_RCCEx_PeriphCLKConfig+0x200>
    switch (PeriphClkInit->Sai4BClockSelection)
 80a424c:	f8d4 30ac 	ldr.w	r3, [r4, #172]	@ 0xac
 80a4250:	f1b3 7f00 	cmp.w	r3, #33554432	@ 0x2000000
 80a4254:	d053      	beq.n	80a42fe <HAL_RCCEx_PeriphCLKConfig+0x25a>
 80a4256:	d80d      	bhi.n	80a4274 <HAL_RCCEx_PeriphCLKConfig+0x1d0>
 80a4258:	b1ab      	cbz	r3, 80a4286 <HAL_RCCEx_PeriphCLKConfig+0x1e2>
 80a425a:	f1b3 7f80 	cmp.w	r3, #16777216	@ 0x1000000
 80a425e:	d106      	bne.n	80a426e <HAL_RCCEx_PeriphCLKConfig+0x1ca>
        ret = RCCEx_PLL2_Config(&(PeriphClkInit->PLL2), DIVIDER_P_UPDATE);
 80a4260:	2100      	movs	r1, #0
 80a4262:	f104 0008 	add.w	r0, r4, #8
 80a4266:	f7ff fe15 	bl	80a3e94 <RCCEx_PLL2_Config>
 80a426a:	4605      	mov	r5, r0
        break;
 80a426c:	e010      	b.n	80a4290 <HAL_RCCEx_PeriphCLKConfig+0x1ec>
    switch (PeriphClkInit->Sai4BClockSelection)
 80a426e:	2601      	movs	r6, #1
 80a4270:	4635      	mov	r5, r6
 80a4272:	e017      	b.n	80a42a4 <HAL_RCCEx_PeriphCLKConfig+0x200>
 80a4274:	f1b3 7f40 	cmp.w	r3, #50331648	@ 0x3000000
 80a4278:	d00a      	beq.n	80a4290 <HAL_RCCEx_PeriphCLKConfig+0x1ec>
 80a427a:	f1b3 6f80 	cmp.w	r3, #67108864	@ 0x4000000
 80a427e:	d007      	beq.n	80a4290 <HAL_RCCEx_PeriphCLKConfig+0x1ec>
 80a4280:	2601      	movs	r6, #1
 80a4282:	4635      	mov	r5, r6
 80a4284:	e00e      	b.n	80a42a4 <HAL_RCCEx_PeriphCLKConfig+0x200>
        __HAL_RCC_PLLCLKOUT_ENABLE(RCC_PLL1_DIVQ);
 80a4286:	4a31      	ldr	r2, [pc, #196]	@ (80a434c <HAL_RCCEx_PeriphCLKConfig+0x2a8>)
 80a4288:	6ad3      	ldr	r3, [r2, #44]	@ 0x2c
 80a428a:	f443 3300 	orr.w	r3, r3, #131072	@ 0x20000
 80a428e:	62d3      	str	r3, [r2, #44]	@ 0x2c
    if (ret == HAL_OK)
 80a4290:	2d00      	cmp	r5, #0
 80a4292:	d13b      	bne.n	80a430c <HAL_RCCEx_PeriphCLKConfig+0x268>
      __HAL_RCC_SAI4B_CONFIG(PeriphClkInit->Sai4BClockSelection);
 80a4294:	4a2d      	ldr	r2, [pc, #180]	@ (80a434c <HAL_RCCEx_PeriphCLKConfig+0x2a8>)
 80a4296:	6d93      	ldr	r3, [r2, #88]	@ 0x58
 80a4298:	f023 63e0 	bic.w	r3, r3, #117440512	@ 0x7000000
 80a429c:	f8d4 10ac 	ldr.w	r1, [r4, #172]	@ 0xac
 80a42a0:	430b      	orrs	r3, r1
 80a42a2:	6593      	str	r3, [r2, #88]	@ 0x58
  if (((PeriphClkInit->PeriphClockSelection) & RCC_PERIPHCLK_QSPI) == RCC_PERIPHCLK_QSPI)
 80a42a4:	6823      	ldr	r3, [r4, #0]
 80a42a6:	f013 7f00 	tst.w	r3, #33554432	@ 0x2000000
 80a42aa:	d013      	beq.n	80a42d4 <HAL_RCCEx_PeriphCLKConfig+0x230>
    switch (PeriphClkInit->QspiClockSelection)
 80a42ac:	6ce3      	ldr	r3, [r4, #76]	@ 0x4c
 80a42ae:	2b20      	cmp	r3, #32
 80a42b0:	d036      	beq.n	80a4320 <HAL_RCCEx_PeriphCLKConfig+0x27c>
 80a42b2:	d830      	bhi.n	80a4316 <HAL_RCCEx_PeriphCLKConfig+0x272>
 80a42b4:	b133      	cbz	r3, 80a42c4 <HAL_RCCEx_PeriphCLKConfig+0x220>
 80a42b6:	2b10      	cmp	r3, #16
 80a42b8:	d12a      	bne.n	80a4310 <HAL_RCCEx_PeriphCLKConfig+0x26c>
        __HAL_RCC_PLLCLKOUT_ENABLE(RCC_PLL1_DIVQ);
 80a42ba:	4a24      	ldr	r2, [pc, #144]	@ (80a434c <HAL_RCCEx_PeriphCLKConfig+0x2a8>)
 80a42bc:	6ad3      	ldr	r3, [r2, #44]	@ 0x2c
 80a42be:	f443 3300 	orr.w	r3, r3, #131072	@ 0x20000
 80a42c2:	62d3      	str	r3, [r2, #44]	@ 0x2c
    if (ret == HAL_OK)
 80a42c4:	bb9d      	cbnz	r5, 80a432e <HAL_RCCEx_PeriphCLKConfig+0x28a>
      __HAL_RCC_QSPI_CONFIG(PeriphClkInit->QspiClockSelection);
 80a42c6:	4a21      	ldr	r2, [pc, #132]	@ (80a434c <HAL_RCCEx_PeriphCLKConfig+0x2a8>)
 80a42c8:	6cd3      	ldr	r3, [r2, #76]	@ 0x4c
 80a42ca:	f023 0330 	bic.w	r3, r3, #48	@ 0x30
 80a42ce:	6ce1      	ldr	r1, [r4, #76]	@ 0x4c
 80a42d0:	430b      	orrs	r3, r1
 80a42d2:	64d3      	str	r3, [r2, #76]	@ 0x4c
  if (((PeriphClkInit->PeriphClockSelection) & RCC_PERIPHCLK_SPI123) == RCC_PERIPHCLK_SPI123)
 80a42d4:	6823      	ldr	r3, [r4, #0]
 80a42d6:	f413 5f80 	tst.w	r3, #4096	@ 0x1000
 80a42da:	d047      	beq.n	80a436c <HAL_RCCEx_PeriphCLKConfig+0x2c8>
    switch (PeriphClkInit->Spi123ClockSelection)
 80a42dc:	6e23      	ldr	r3, [r4, #96]	@ 0x60
 80a42de:	f5b3 5f00 	cmp.w	r3, #8192	@ 0x2000
 80a42e2:	f000 808d 	beq.w	80a4400 <HAL_RCCEx_PeriphCLKConfig+0x35c>
 80a42e6:	d827      	bhi.n	80a4338 <HAL_RCCEx_PeriphCLKConfig+0x294>
 80a42e8:	b393      	cbz	r3, 80a4350 <HAL_RCCEx_PeriphCLKConfig+0x2ac>
 80a42ea:	f5b3 5f80 	cmp.w	r3, #4096	@ 0x1000
 80a42ee:	d120      	bne.n	80a4332 <HAL_RCCEx_PeriphCLKConfig+0x28e>
        ret = RCCEx_PLL2_Config(&(PeriphClkInit->PLL2), DIVIDER_P_UPDATE);
 80a42f0:	2100      	movs	r1, #0
 80a42f2:	f104 0008 	add.w	r0, r4, #8
 80a42f6:	f7ff fdcd 	bl	80a3e94 <RCCEx_PLL2_Config>
 80a42fa:	4605      	mov	r5, r0
        break;
 80a42fc:	e02d      	b.n	80a435a <HAL_RCCEx_PeriphCLKConfig+0x2b6>
        ret = RCCEx_PLL3_Config(&(PeriphClkInit->PLL3), DIVIDER_P_UPDATE);
 80a42fe:	2100      	movs	r1, #0
 80a4300:	f104 0028 	add.w	r0, r4, #40	@ 0x28
 80a4304:	f7ff fe4a 	bl	80a3f9c <RCCEx_PLL3_Config>
 80a4308:	4605      	mov	r5, r0
        break;
 80a430a:	e7c1      	b.n	80a4290 <HAL_RCCEx_PeriphCLKConfig+0x1ec>
      status = ret;
 80a430c:	462e      	mov	r6, r5
 80a430e:	e7c9      	b.n	80a42a4 <HAL_RCCEx_PeriphCLKConfig+0x200>
    switch (PeriphClkInit->QspiClockSelection)
 80a4310:	2601      	movs	r6, #1
 80a4312:	4635      	mov	r5, r6
 80a4314:	e7de      	b.n	80a42d4 <HAL_RCCEx_PeriphCLKConfig+0x230>
 80a4316:	2b30      	cmp	r3, #48	@ 0x30
 80a4318:	d0d4      	beq.n	80a42c4 <HAL_RCCEx_PeriphCLKConfig+0x220>
 80a431a:	2601      	movs	r6, #1
 80a431c:	4635      	mov	r5, r6
 80a431e:	e7d9      	b.n	80a42d4 <HAL_RCCEx_PeriphCLKConfig+0x230>
        ret = RCCEx_PLL2_Config(&(PeriphClkInit->PLL2), DIVIDER_R_UPDATE);
 80a4320:	2102      	movs	r1, #2
 80a4322:	f104 0008 	add.w	r0, r4, #8
 80a4326:	f7ff fdb5 	bl	80a3e94 <RCCEx_PLL2_Config>
 80a432a:	4605      	mov	r5, r0
        break;
 80a432c:	e7ca      	b.n	80a42c4 <HAL_RCCEx_PeriphCLKConfig+0x220>
      status = ret;
 80a432e:	462e      	mov	r6, r5
 80a4330:	e7d0      	b.n	80a42d4 <HAL_RCCEx_PeriphCLKConfig+0x230>
    switch (PeriphClkInit->Spi123ClockSelection)
 80a4332:	2601      	movs	r6, #1
 80a4334:	4635      	mov	r5, r6
 80a4336:	e019      	b.n	80a436c <HAL_RCCEx_PeriphCLKConfig+0x2c8>
 80a4338:	f5b3 5f40 	cmp.w	r3, #12288	@ 0x3000
 80a433c:	d00d      	beq.n	80a435a <HAL_RCCEx_PeriphCLKConfig+0x2b6>
 80a433e:	f5b3 4f80 	cmp.w	r3, #16384	@ 0x4000
 80a4342:	d00a      	beq.n	80a435a <HAL_RCCEx_PeriphCLKConfig+0x2b6>
 80a4344:	2601      	movs	r6, #1
 80a4346:	4635      	mov	r5, r6
 80a4348:	e010      	b.n	80a436c <HAL_RCCEx_PeriphCLKConfig+0x2c8>
 80a434a:	bf00      	nop
 80a434c:	58024400 	.word	0x58024400
        __HAL_RCC_PLLCLKOUT_ENABLE(RCC_PLL1_DIVQ);
 80a4350:	4a77      	ldr	r2, [pc, #476]	@ (80a4530 <HAL_RCCEx_PeriphCLKConfig+0x48c>)
 80a4352:	6ad3      	ldr	r3, [r2, #44]	@ 0x2c
 80a4354:	f443 3300 	orr.w	r3, r3, #131072	@ 0x20000
 80a4358:	62d3      	str	r3, [r2, #44]	@ 0x2c
    if (ret == HAL_OK)
 80a435a:	2d00      	cmp	r5, #0
 80a435c:	d157      	bne.n	80a440e <HAL_RCCEx_PeriphCLKConfig+0x36a>
      __HAL_RCC_SPI123_CONFIG(PeriphClkInit->Spi123ClockSelection);
 80a435e:	4a74      	ldr	r2, [pc, #464]	@ (80a4530 <HAL_RCCEx_PeriphCLKConfig+0x48c>)
 80a4360:	6d13      	ldr	r3, [r2, #80]	@ 0x50
 80a4362:	f423 43e0 	bic.w	r3, r3, #28672	@ 0x7000
 80a4366:	6e21      	ldr	r1, [r4, #96]	@ 0x60
 80a4368:	430b      	orrs	r3, r1
 80a436a:	6513      	str	r3, [r2, #80]	@ 0x50
  if (((PeriphClkInit->PeriphClockSelection) & RCC_PERIPHCLK_SPI45) == RCC_PERIPHCLK_SPI45)
 80a436c:	6823      	ldr	r3, [r4, #0]
 80a436e:	f413 5f00 	tst.w	r3, #8192	@ 0x2000
 80a4372:	d017      	beq.n	80a43a4 <HAL_RCCEx_PeriphCLKConfig+0x300>
    switch (PeriphClkInit->Spi45ClockSelection)
 80a4374:	6e63      	ldr	r3, [r4, #100]	@ 0x64
 80a4376:	f5b3 3f00 	cmp.w	r3, #131072	@ 0x20000
 80a437a:	d059      	beq.n	80a4430 <HAL_RCCEx_PeriphCLKConfig+0x38c>
 80a437c:	d84c      	bhi.n	80a4418 <HAL_RCCEx_PeriphCLKConfig+0x374>
 80a437e:	b143      	cbz	r3, 80a4392 <HAL_RCCEx_PeriphCLKConfig+0x2ee>
 80a4380:	f5b3 3f80 	cmp.w	r3, #65536	@ 0x10000
 80a4384:	d145      	bne.n	80a4412 <HAL_RCCEx_PeriphCLKConfig+0x36e>
        ret = RCCEx_PLL2_Config(&(PeriphClkInit->PLL2), DIVIDER_Q_UPDATE);
 80a4386:	2101      	movs	r1, #1
 80a4388:	f104 0008 	add.w	r0, r4, #8
 80a438c:	f7ff fd82 	bl	80a3e94 <RCCEx_PLL2_Config>
 80a4390:	4605      	mov	r5, r0
    if (ret == HAL_OK)
 80a4392:	2d00      	cmp	r5, #0
 80a4394:	d153      	bne.n	80a443e <HAL_RCCEx_PeriphCLKConfig+0x39a>
      __HAL_RCC_SPI45_CONFIG(PeriphClkInit->Spi45ClockSelection);
 80a4396:	4a66      	ldr	r2, [pc, #408]	@ (80a4530 <HAL_RCCEx_PeriphCLKConfig+0x48c>)
 80a4398:	6d13      	ldr	r3, [r2, #80]	@ 0x50
 80a439a:	f423 23e0 	bic.w	r3, r3, #458752	@ 0x70000
 80a439e:	6e61      	ldr	r1, [r4, #100]	@ 0x64
 80a43a0:	430b      	orrs	r3, r1
 80a43a2:	6513      	str	r3, [r2, #80]	@ 0x50
  if (((PeriphClkInit->PeriphClockSelection) & RCC_PERIPHCLK_SPI6) == RCC_PERIPHCLK_SPI6)
 80a43a4:	6823      	ldr	r3, [r4, #0]
 80a43a6:	f413 4f80 	tst.w	r3, #16384	@ 0x4000
 80a43aa:	d019      	beq.n	80a43e0 <HAL_RCCEx_PeriphCLKConfig+0x33c>
    switch (PeriphClkInit->Spi6ClockSelection)
 80a43ac:	f8d4 30b0 	ldr.w	r3, [r4, #176]	@ 0xb0
 80a43b0:	f1b3 5f00 	cmp.w	r3, #536870912	@ 0x20000000
 80a43b4:	d054      	beq.n	80a4460 <HAL_RCCEx_PeriphCLKConfig+0x3bc>
 80a43b6:	d847      	bhi.n	80a4448 <HAL_RCCEx_PeriphCLKConfig+0x3a4>
 80a43b8:	b143      	cbz	r3, 80a43cc <HAL_RCCEx_PeriphCLKConfig+0x328>
 80a43ba:	f1b3 5f80 	cmp.w	r3, #268435456	@ 0x10000000
 80a43be:	d140      	bne.n	80a4442 <HAL_RCCEx_PeriphCLKConfig+0x39e>
        ret = RCCEx_PLL2_Config(&(PeriphClkInit->PLL2), DIVIDER_Q_UPDATE);
 80a43c0:	2101      	movs	r1, #1
 80a43c2:	f104 0008 	add.w	r0, r4, #8
 80a43c6:	f7ff fd65 	bl	80a3e94 <RCCEx_PLL2_Config>
 80a43ca:	4605      	mov	r5, r0
    if (ret == HAL_OK)
 80a43cc:	2d00      	cmp	r5, #0
 80a43ce:	d14e      	bne.n	80a446e <HAL_RCCEx_PeriphCLKConfig+0x3ca>
      __HAL_RCC_SPI6_CONFIG(PeriphClkInit->Spi6ClockSelection);
 80a43d0:	4a57      	ldr	r2, [pc, #348]	@ (80a4530 <HAL_RCCEx_PeriphCLKConfig+0x48c>)
 80a43d2:	6d93      	ldr	r3, [r2, #88]	@ 0x58
 80a43d4:	f023 43e0 	bic.w	r3, r3, #1879048192	@ 0x70000000
 80a43d8:	f8d4 10b0 	ldr.w	r1, [r4, #176]	@ 0xb0
 80a43dc:	430b      	orrs	r3, r1
 80a43de:	6593      	str	r3, [r2, #88]	@ 0x58
  if (((PeriphClkInit->PeriphClockSelection) & RCC_PERIPHCLK_FDCAN) == RCC_PERIPHCLK_FDCAN)
 80a43e0:	6823      	ldr	r3, [r4, #0]
 80a43e2:	f413 4f00 	tst.w	r3, #32768	@ 0x8000
 80a43e6:	d051      	beq.n	80a448c <HAL_RCCEx_PeriphCLKConfig+0x3e8>
    switch (PeriphClkInit->FdcanClockSelection)
 80a43e8:	6f23      	ldr	r3, [r4, #112]	@ 0x70
 80a43ea:	f1b3 5f80 	cmp.w	r3, #268435456	@ 0x10000000
 80a43ee:	d040      	beq.n	80a4472 <HAL_RCCEx_PeriphCLKConfig+0x3ce>
 80a43f0:	f1b3 5f00 	cmp.w	r3, #536870912	@ 0x20000000
 80a43f4:	d055      	beq.n	80a44a2 <HAL_RCCEx_PeriphCLKConfig+0x3fe>
 80a43f6:	2b00      	cmp	r3, #0
 80a43f8:	d040      	beq.n	80a447c <HAL_RCCEx_PeriphCLKConfig+0x3d8>
 80a43fa:	2601      	movs	r6, #1
 80a43fc:	4635      	mov	r5, r6
 80a43fe:	e045      	b.n	80a448c <HAL_RCCEx_PeriphCLKConfig+0x3e8>
        ret = RCCEx_PLL3_Config(&(PeriphClkInit->PLL3), DIVIDER_P_UPDATE);
 80a4400:	2100      	movs	r1, #0
 80a4402:	f104 0028 	add.w	r0, r4, #40	@ 0x28
 80a4406:	f7ff fdc9 	bl	80a3f9c <RCCEx_PLL3_Config>
 80a440a:	4605      	mov	r5, r0
        break;
 80a440c:	e7a5      	b.n	80a435a <HAL_RCCEx_PeriphCLKConfig+0x2b6>
      status = ret;
 80a440e:	462e      	mov	r6, r5
 80a4410:	e7ac      	b.n	80a436c <HAL_RCCEx_PeriphCLKConfig+0x2c8>
    switch (PeriphClkInit->Spi45ClockSelection)
 80a4412:	2601      	movs	r6, #1
 80a4414:	4635      	mov	r5, r6
 80a4416:	e7c5      	b.n	80a43a4 <HAL_RCCEx_PeriphCLKConfig+0x300>
 80a4418:	f5b3 2f80 	cmp.w	r3, #262144	@ 0x40000
 80a441c:	d0b9      	beq.n	80a4392 <HAL_RCCEx_PeriphCLKConfig+0x2ee>
 80a441e:	f5b3 2fa0 	cmp.w	r3, #327680	@ 0x50000
 80a4422:	d0b6      	beq.n	80a4392 <HAL_RCCEx_PeriphCLKConfig+0x2ee>
 80a4424:	f5b3 3f40 	cmp.w	r3, #196608	@ 0x30000
 80a4428:	d0b3      	beq.n	80a4392 <HAL_RCCEx_PeriphCLKConfig+0x2ee>
 80a442a:	2601      	movs	r6, #1
 80a442c:	4635      	mov	r5, r6
 80a442e:	e7b9      	b.n	80a43a4 <HAL_RCCEx_PeriphCLKConfig+0x300>
        ret = RCCEx_PLL3_Config(&(PeriphClkInit->PLL3), DIVIDER_Q_UPDATE);
 80a4430:	2101      	movs	r1, #1
 80a4432:	f104 0028 	add.w	r0, r4, #40	@ 0x28
 80a4436:	f7ff fdb1 	bl	80a3f9c <RCCEx_PLL3_Config>
 80a443a:	4605      	mov	r5, r0
        break;
 80a443c:	e7a9      	b.n	80a4392 <HAL_RCCEx_PeriphCLKConfig+0x2ee>
      status = ret;
 80a443e:	462e      	mov	r6, r5
 80a4440:	e7b0      	b.n	80a43a4 <HAL_RCCEx_PeriphCLKConfig+0x300>
    switch (PeriphClkInit->Spi6ClockSelection)
 80a4442:	2601      	movs	r6, #1
 80a4444:	4635      	mov	r5, r6
 80a4446:	e7cb      	b.n	80a43e0 <HAL_RCCEx_PeriphCLKConfig+0x33c>
 80a4448:	f1b3 4f80 	cmp.w	r3, #1073741824	@ 0x40000000
 80a444c:	d0be      	beq.n	80a43cc <HAL_RCCEx_PeriphCLKConfig+0x328>
 80a444e:	f1b3 4fa0 	cmp.w	r3, #1342177280	@ 0x50000000
 80a4452:	d0bb      	beq.n	80a43cc <HAL_RCCEx_PeriphCLKConfig+0x328>
 80a4454:	f1b3 5f40 	cmp.w	r3, #805306368	@ 0x30000000
 80a4458:	d0b8      	beq.n	80a43cc <HAL_RCCEx_PeriphCLKConfig+0x328>
 80a445a:	2601      	movs	r6, #1
 80a445c:	4635      	mov	r5, r6
 80a445e:	e7bf      	b.n	80a43e0 <HAL_RCCEx_PeriphCLKConfig+0x33c>
        ret = RCCEx_PLL3_Config(&(PeriphClkInit->PLL3), DIVIDER_Q_UPDATE);
 80a4460:	2101      	movs	r1, #1
 80a4462:	f104 0028 	add.w	r0, r4, #40	@ 0x28
 80a4466:	f7ff fd99 	bl	80a3f9c <RCCEx_PLL3_Config>
 80a446a:	4605      	mov	r5, r0
        break;
 80a446c:	e7ae      	b.n	80a43cc <HAL_RCCEx_PeriphCLKConfig+0x328>
      status = ret;
 80a446e:	462e      	mov	r6, r5
 80a4470:	e7b6      	b.n	80a43e0 <HAL_RCCEx_PeriphCLKConfig+0x33c>
        __HAL_RCC_PLLCLKOUT_ENABLE(RCC_PLL1_DIVQ);
 80a4472:	4a2f      	ldr	r2, [pc, #188]	@ (80a4530 <HAL_RCCEx_PeriphCLKConfig+0x48c>)
 80a4474:	6ad3      	ldr	r3, [r2, #44]	@ 0x2c
 80a4476:	f443 3300 	orr.w	r3, r3, #131072	@ 0x20000
 80a447a:	62d3      	str	r3, [r2, #44]	@ 0x2c
    if (ret == HAL_OK)
 80a447c:	b9c5      	cbnz	r5, 80a44b0 <HAL_RCCEx_PeriphCLKConfig+0x40c>
      __HAL_RCC_FDCAN_CONFIG(PeriphClkInit->FdcanClockSelection);
 80a447e:	4a2c      	ldr	r2, [pc, #176]	@ (80a4530 <HAL_RCCEx_PeriphCLKConfig+0x48c>)
 80a4480:	6d13      	ldr	r3, [r2, #80]	@ 0x50
 80a4482:	f023 5340 	bic.w	r3, r3, #805306368	@ 0x30000000
 80a4486:	6f21      	ldr	r1, [r4, #112]	@ 0x70
 80a4488:	430b      	orrs	r3, r1
 80a448a:	6513      	str	r3, [r2, #80]	@ 0x50
  if (((PeriphClkInit->PeriphClockSelection) & RCC_PERIPHCLK_FMC) == RCC_PERIPHCLK_FMC)
 80a448c:	6823      	ldr	r3, [r4, #0]
 80a448e:	f013 7f80 	tst.w	r3, #16777216	@ 0x1000000
 80a4492:	d01c      	beq.n	80a44ce <HAL_RCCEx_PeriphCLKConfig+0x42a>
    switch (PeriphClkInit->FmcClockSelection)
 80a4494:	6ca3      	ldr	r3, [r4, #72]	@ 0x48
 80a4496:	2b03      	cmp	r3, #3
 80a4498:	d844      	bhi.n	80a4524 <HAL_RCCEx_PeriphCLKConfig+0x480>
 80a449a:	e8df f003 	tbb	[pc, r3]
 80a449e:	0b10      	.short	0x0b10
 80a44a0:	103c      	.short	0x103c
        ret = RCCEx_PLL2_Config(&(PeriphClkInit->PLL2), DIVIDER_Q_UPDATE);
 80a44a2:	2101      	movs	r1, #1
 80a44a4:	f104 0008 	add.w	r0, r4, #8
 80a44a8:	f7ff fcf4 	bl	80a3e94 <RCCEx_PLL2_Config>
 80a44ac:	4605      	mov	r5, r0
        break;
 80a44ae:	e7e5      	b.n	80a447c <HAL_RCCEx_PeriphCLKConfig+0x3d8>
      status = ret;
 80a44b0:	462e      	mov	r6, r5
 80a44b2:	e7eb      	b.n	80a448c <HAL_RCCEx_PeriphCLKConfig+0x3e8>
        __HAL_RCC_PLLCLKOUT_ENABLE(RCC_PLL1_DIVQ);
 80a44b4:	4a1e      	ldr	r2, [pc, #120]	@ (80a4530 <HAL_RCCEx_PeriphCLKConfig+0x48c>)
 80a44b6:	6ad3      	ldr	r3, [r2, #44]	@ 0x2c
 80a44b8:	f443 3300 	orr.w	r3, r3, #131072	@ 0x20000
 80a44bc:	62d3      	str	r3, [r2, #44]	@ 0x2c
    if (ret == HAL_OK)
 80a44be:	bba5      	cbnz	r5, 80a452a <HAL_RCCEx_PeriphCLKConfig+0x486>
      __HAL_RCC_FMC_CONFIG(PeriphClkInit->FmcClockSelection);
 80a44c0:	4a1b      	ldr	r2, [pc, #108]	@ (80a4530 <HAL_RCCEx_PeriphCLKConfig+0x48c>)
 80a44c2:	6cd3      	ldr	r3, [r2, #76]	@ 0x4c
 80a44c4:	f023 0303 	bic.w	r3, r3, #3
 80a44c8:	6ca1      	ldr	r1, [r4, #72]	@ 0x48
 80a44ca:	430b      	orrs	r3, r1
 80a44cc:	64d3      	str	r3, [r2, #76]	@ 0x4c
  if (((PeriphClkInit->PeriphClockSelection) & RCC_PERIPHCLK_RTC) == RCC_PERIPHCLK_RTC)
 80a44ce:	6823      	ldr	r3, [r4, #0]
 80a44d0:	f413 0f80 	tst.w	r3, #4194304	@ 0x400000
 80a44d4:	d12e      	bne.n	80a4534 <HAL_RCCEx_PeriphCLKConfig+0x490>
  if (((PeriphClkInit->PeriphClockSelection) & RCC_PERIPHCLK_USART16) == RCC_PERIPHCLK_USART16)
 80a44d6:	6823      	ldr	r3, [r4, #0]
 80a44d8:	f013 0f01 	tst.w	r3, #1
 80a44dc:	f000 80a7 	beq.w	80a462e <HAL_RCCEx_PeriphCLKConfig+0x58a>
    switch (PeriphClkInit->Usart16ClockSelection)
 80a44e0:	6fe3      	ldr	r3, [r4, #124]	@ 0x7c
 80a44e2:	2b28      	cmp	r3, #40	@ 0x28
 80a44e4:	f200 80a1 	bhi.w	80a462a <HAL_RCCEx_PeriphCLKConfig+0x586>
 80a44e8:	e8df f003 	tbb	[pc, r3]
 80a44ec:	9f9f9f8f 	.word	0x9f9f9f8f
 80a44f0:	9f9f9f9f 	.word	0x9f9f9f9f
 80a44f4:	9f9f9f89 	.word	0x9f9f9f89
 80a44f8:	9f9f9f9f 	.word	0x9f9f9f9f
 80a44fc:	9f9f9f98 	.word	0x9f9f9f98
 80a4500:	9f9f9f9f 	.word	0x9f9f9f9f
 80a4504:	9f9f9f8f 	.word	0x9f9f9f8f
 80a4508:	9f9f9f9f 	.word	0x9f9f9f9f
 80a450c:	9f9f9f8f 	.word	0x9f9f9f8f
 80a4510:	9f9f9f9f 	.word	0x9f9f9f9f
 80a4514:	8f          	.byte	0x8f
 80a4515:	00          	.byte	0x00
        ret = RCCEx_PLL2_Config(&(PeriphClkInit->PLL2), DIVIDER_R_UPDATE);
 80a4516:	2102      	movs	r1, #2
 80a4518:	f104 0008 	add.w	r0, r4, #8
 80a451c:	f7ff fcba 	bl	80a3e94 <RCCEx_PLL2_Config>
 80a4520:	4605      	mov	r5, r0
        break;
 80a4522:	e7cc      	b.n	80a44be <HAL_RCCEx_PeriphCLKConfig+0x41a>
    switch (PeriphClkInit->FmcClockSelection)
 80a4524:	2601      	movs	r6, #1
 80a4526:	4635      	mov	r5, r6
 80a4528:	e7d1      	b.n	80a44ce <HAL_RCCEx_PeriphCLKConfig+0x42a>
      status = ret;
 80a452a:	462e      	mov	r6, r5
 80a452c:	e7cf      	b.n	80a44ce <HAL_RCCEx_PeriphCLKConfig+0x42a>
 80a452e:	bf00      	nop
 80a4530:	58024400 	.word	0x58024400
    SET_BIT(PWR->CR1, PWR_CR1_DBP);
 80a4534:	4a59      	ldr	r2, [pc, #356]	@ (80a469c <HAL_RCCEx_PeriphCLKConfig+0x5f8>)
 80a4536:	6813      	ldr	r3, [r2, #0]
 80a4538:	f443 7380 	orr.w	r3, r3, #256	@ 0x100
 80a453c:	6013      	str	r3, [r2, #0]
    tickstart = HAL_GetTick();
 80a453e:	f7fd fa19 	bl	80a1974 <HAL_GetTick>
 80a4542:	4607      	mov	r7, r0
    while ((PWR->CR1 & PWR_CR1_DBP) == 0U)
 80a4544:	4b55      	ldr	r3, [pc, #340]	@ (80a469c <HAL_RCCEx_PeriphCLKConfig+0x5f8>)
 80a4546:	681b      	ldr	r3, [r3, #0]
 80a4548:	f413 7f80 	tst.w	r3, #256	@ 0x100
 80a454c:	d105      	bne.n	80a455a <HAL_RCCEx_PeriphCLKConfig+0x4b6>
      if ((HAL_GetTick() - tickstart) > RCC_DBP_TIMEOUT_VALUE)
 80a454e:	f7fd fa11 	bl	80a1974 <HAL_GetTick>
 80a4552:	1bc0      	subs	r0, r0, r7
 80a4554:	2864      	cmp	r0, #100	@ 0x64
 80a4556:	d9f5      	bls.n	80a4544 <HAL_RCCEx_PeriphCLKConfig+0x4a0>
        ret = HAL_TIMEOUT;
 80a4558:	2503      	movs	r5, #3
    if (ret == HAL_OK)
 80a455a:	2d00      	cmp	r5, #0
 80a455c:	d14b      	bne.n	80a45f6 <HAL_RCCEx_PeriphCLKConfig+0x552>
      if ((RCC->BDCR & RCC_BDCR_RTCSEL) != (PeriphClkInit->RTCClockSelection & RCC_BDCR_RTCSEL))
 80a455e:	4b50      	ldr	r3, [pc, #320]	@ (80a46a0 <HAL_RCCEx_PeriphCLKConfig+0x5fc>)
 80a4560:	6f1b      	ldr	r3, [r3, #112]	@ 0x70
 80a4562:	f8d4 20b4 	ldr.w	r2, [r4, #180]	@ 0xb4
 80a4566:	4053      	eors	r3, r2
 80a4568:	f413 7f40 	tst.w	r3, #768	@ 0x300
 80a456c:	d00c      	beq.n	80a4588 <HAL_RCCEx_PeriphCLKConfig+0x4e4>
        tmpreg = (RCC->BDCR & ~(RCC_BDCR_RTCSEL));
 80a456e:	4b4c      	ldr	r3, [pc, #304]	@ (80a46a0 <HAL_RCCEx_PeriphCLKConfig+0x5fc>)
 80a4570:	6f1a      	ldr	r2, [r3, #112]	@ 0x70
 80a4572:	f422 7240 	bic.w	r2, r2, #768	@ 0x300
        __HAL_RCC_BACKUPRESET_FORCE();
 80a4576:	6f19      	ldr	r1, [r3, #112]	@ 0x70
 80a4578:	f441 3180 	orr.w	r1, r1, #65536	@ 0x10000
 80a457c:	6719      	str	r1, [r3, #112]	@ 0x70
        __HAL_RCC_BACKUPRESET_RELEASE();
 80a457e:	6f19      	ldr	r1, [r3, #112]	@ 0x70
 80a4580:	f421 3180 	bic.w	r1, r1, #65536	@ 0x10000
 80a4584:	6719      	str	r1, [r3, #112]	@ 0x70
        RCC->BDCR = tmpreg;
 80a4586:	671a      	str	r2, [r3, #112]	@ 0x70
      if (PeriphClkInit->RTCClockSelection == RCC_RTCCLKSOURCE_LSE)
 80a4588:	f8d4 30b4 	ldr.w	r3, [r4, #180]	@ 0xb4
 80a458c:	f5b3 7f80 	cmp.w	r3, #256	@ 0x100
 80a4590:	d015      	beq.n	80a45be <HAL_RCCEx_PeriphCLKConfig+0x51a>
      if (ret == HAL_OK)
 80a4592:	bb95      	cbnz	r5, 80a45fa <HAL_RCCEx_PeriphCLKConfig+0x556>
        __HAL_RCC_RTC_CONFIG(PeriphClkInit->RTCClockSelection);
 80a4594:	f8d4 30b4 	ldr.w	r3, [r4, #180]	@ 0xb4
 80a4598:	f403 7240 	and.w	r2, r3, #768	@ 0x300
 80a459c:	f5b2 7f40 	cmp.w	r2, #768	@ 0x300
 80a45a0:	d01e      	beq.n	80a45e0 <HAL_RCCEx_PeriphCLKConfig+0x53c>
 80a45a2:	4a3f      	ldr	r2, [pc, #252]	@ (80a46a0 <HAL_RCCEx_PeriphCLKConfig+0x5fc>)
 80a45a4:	6913      	ldr	r3, [r2, #16]
 80a45a6:	f423 537c 	bic.w	r3, r3, #16128	@ 0x3f00
 80a45aa:	6113      	str	r3, [r2, #16]
 80a45ac:	493c      	ldr	r1, [pc, #240]	@ (80a46a0 <HAL_RCCEx_PeriphCLKConfig+0x5fc>)
 80a45ae:	6f0b      	ldr	r3, [r1, #112]	@ 0x70
 80a45b0:	f8d4 20b4 	ldr.w	r2, [r4, #180]	@ 0xb4
 80a45b4:	f3c2 020b 	ubfx	r2, r2, #0, #12
 80a45b8:	4313      	orrs	r3, r2
 80a45ba:	670b      	str	r3, [r1, #112]	@ 0x70
 80a45bc:	e78b      	b.n	80a44d6 <HAL_RCCEx_PeriphCLKConfig+0x432>
        tickstart = HAL_GetTick();
 80a45be:	f7fd f9d9 	bl	80a1974 <HAL_GetTick>
 80a45c2:	4607      	mov	r7, r0
        while (__HAL_RCC_GET_FLAG(RCC_FLAG_LSERDY) == 0U)
 80a45c4:	4b36      	ldr	r3, [pc, #216]	@ (80a46a0 <HAL_RCCEx_PeriphCLKConfig+0x5fc>)
 80a45c6:	6f1b      	ldr	r3, [r3, #112]	@ 0x70
 80a45c8:	f013 0f02 	tst.w	r3, #2
 80a45cc:	d1e1      	bne.n	80a4592 <HAL_RCCEx_PeriphCLKConfig+0x4ee>
          if ((HAL_GetTick() - tickstart) > RCC_LSE_TIMEOUT_VALUE)
 80a45ce:	f7fd f9d1 	bl	80a1974 <HAL_GetTick>
 80a45d2:	1bc0      	subs	r0, r0, r7
 80a45d4:	f241 3388 	movw	r3, #5000	@ 0x1388
 80a45d8:	4298      	cmp	r0, r3
 80a45da:	d9f3      	bls.n	80a45c4 <HAL_RCCEx_PeriphCLKConfig+0x520>
            ret = HAL_TIMEOUT;
 80a45dc:	2503      	movs	r5, #3
 80a45de:	e7d8      	b.n	80a4592 <HAL_RCCEx_PeriphCLKConfig+0x4ee>
        __HAL_RCC_RTC_CONFIG(PeriphClkInit->RTCClockSelection);
 80a45e0:	492f      	ldr	r1, [pc, #188]	@ (80a46a0 <HAL_RCCEx_PeriphCLKConfig+0x5fc>)
 80a45e2:	690a      	ldr	r2, [r1, #16]
 80a45e4:	f422 527c 	bic.w	r2, r2, #16128	@ 0x3f00
 80a45e8:	f3c3 1317 	ubfx	r3, r3, #4, #24
 80a45ec:	f023 0330 	bic.w	r3, r3, #48	@ 0x30
 80a45f0:	4313      	orrs	r3, r2
 80a45f2:	610b      	str	r3, [r1, #16]
 80a45f4:	e7da      	b.n	80a45ac <HAL_RCCEx_PeriphCLKConfig+0x508>
      status = ret;
 80a45f6:	462e      	mov	r6, r5
 80a45f8:	e76d      	b.n	80a44d6 <HAL_RCCEx_PeriphCLKConfig+0x432>
        status = ret;
 80a45fa:	462e      	mov	r6, r5
 80a45fc:	e76b      	b.n	80a44d6 <HAL_RCCEx_PeriphCLKConfig+0x432>
        ret = RCCEx_PLL2_Config(&(PeriphClkInit->PLL2), DIVIDER_Q_UPDATE);
 80a45fe:	2101      	movs	r1, #1
 80a4600:	f104 0008 	add.w	r0, r4, #8
 80a4604:	f7ff fc46 	bl	80a3e94 <RCCEx_PLL2_Config>
 80a4608:	4605      	mov	r5, r0
    if (ret == HAL_OK)
 80a460a:	b9e5      	cbnz	r5, 80a4646 <HAL_RCCEx_PeriphCLKConfig+0x5a2>
      __HAL_RCC_USART16_CONFIG(PeriphClkInit->Usart16ClockSelection);
 80a460c:	4a24      	ldr	r2, [pc, #144]	@ (80a46a0 <HAL_RCCEx_PeriphCLKConfig+0x5fc>)
 80a460e:	6d53      	ldr	r3, [r2, #84]	@ 0x54
 80a4610:	f023 0338 	bic.w	r3, r3, #56	@ 0x38
 80a4614:	6fe1      	ldr	r1, [r4, #124]	@ 0x7c
 80a4616:	430b      	orrs	r3, r1
 80a4618:	6553      	str	r3, [r2, #84]	@ 0x54
 80a461a:	e008      	b.n	80a462e <HAL_RCCEx_PeriphCLKConfig+0x58a>
        ret = RCCEx_PLL3_Config(&(PeriphClkInit->PLL3), DIVIDER_Q_UPDATE);
 80a461c:	2101      	movs	r1, #1
 80a461e:	f104 0028 	add.w	r0, r4, #40	@ 0x28
 80a4622:	f7ff fcbb 	bl	80a3f9c <RCCEx_PLL3_Config>
 80a4626:	4605      	mov	r5, r0
        break;
 80a4628:	e7ef      	b.n	80a460a <HAL_RCCEx_PeriphCLKConfig+0x566>
    switch (PeriphClkInit->Usart16ClockSelection)
 80a462a:	2601      	movs	r6, #1
 80a462c:	4635      	mov	r5, r6
  if (((PeriphClkInit->PeriphClockSelection) & RCC_PERIPHCLK_USART234578) == RCC_PERIPHCLK_USART234578)
 80a462e:	6823      	ldr	r3, [r4, #0]
 80a4630:	f013 0f02 	tst.w	r3, #2
 80a4634:	d017      	beq.n	80a4666 <HAL_RCCEx_PeriphCLKConfig+0x5c2>
    switch (PeriphClkInit->Usart234578ClockSelection)
 80a4636:	6fa3      	ldr	r3, [r4, #120]	@ 0x78
 80a4638:	2b05      	cmp	r3, #5
 80a463a:	d829      	bhi.n	80a4690 <HAL_RCCEx_PeriphCLKConfig+0x5ec>
 80a463c:	e8df f003 	tbb	[pc, r3]
 80a4640:	0b21050b 	.word	0x0b21050b
 80a4644:	0b0b      	.short	0x0b0b
      status = ret;
 80a4646:	462e      	mov	r6, r5
 80a4648:	e7f1      	b.n	80a462e <HAL_RCCEx_PeriphCLKConfig+0x58a>
        ret = RCCEx_PLL2_Config(&(PeriphClkInit->PLL2), DIVIDER_Q_UPDATE);
 80a464a:	2101      	movs	r1, #1
 80a464c:	f104 0008 	add.w	r0, r4, #8
 80a4650:	f7ff fc20 	bl	80a3e94 <RCCEx_PLL2_Config>
 80a4654:	4605      	mov	r5, r0
    if (ret == HAL_OK)
 80a4656:	b9f5      	cbnz	r5, 80a4696 <HAL_RCCEx_PeriphCLKConfig+0x5f2>
      __HAL_RCC_USART234578_CONFIG(PeriphClkInit->Usart234578ClockSelection);
 80a4658:	4a11      	ldr	r2, [pc, #68]	@ (80a46a0 <HAL_RCCEx_PeriphCLKConfig+0x5fc>)
 80a465a:	6d53      	ldr	r3, [r2, #84]	@ 0x54
 80a465c:	f023 0307 	bic.w	r3, r3, #7
 80a4660:	6fa1      	ldr	r1, [r4, #120]	@ 0x78
 80a4662:	430b      	orrs	r3, r1
 80a4664:	6553      	str	r3, [r2, #84]	@ 0x54
  if (((PeriphClkInit->PeriphClockSelection) & RCC_PERIPHCLK_LPUART1) == RCC_PERIPHCLK_LPUART1)
 80a4666:	6823      	ldr	r3, [r4, #0]
 80a4668:	f013 0f04 	tst.w	r3, #4
 80a466c:	d02b      	beq.n	80a46c6 <HAL_RCCEx_PeriphCLKConfig+0x622>
    switch (PeriphClkInit->Lpuart1ClockSelection)
 80a466e:	f8d4 3094 	ldr.w	r3, [r4, #148]	@ 0x94
 80a4672:	2b05      	cmp	r3, #5
 80a4674:	f200 80db 	bhi.w	80a482e <HAL_RCCEx_PeriphCLKConfig+0x78a>
 80a4678:	e8df f003 	tbb	[pc, r3]
 80a467c:	1ad2141a 	.word	0x1ad2141a
 80a4680:	1a1a      	.short	0x1a1a
        ret = RCCEx_PLL3_Config(&(PeriphClkInit->PLL3), DIVIDER_Q_UPDATE);
 80a4682:	2101      	movs	r1, #1
 80a4684:	f104 0028 	add.w	r0, r4, #40	@ 0x28
 80a4688:	f7ff fc88 	bl	80a3f9c <RCCEx_PLL3_Config>
 80a468c:	4605      	mov	r5, r0
        break;
 80a468e:	e7e2      	b.n	80a4656 <HAL_RCCEx_PeriphCLKConfig+0x5b2>
    switch (PeriphClkInit->Usart234578ClockSelection)
 80a4690:	2601      	movs	r6, #1
 80a4692:	4635      	mov	r5, r6
 80a4694:	e7e7      	b.n	80a4666 <HAL_RCCEx_PeriphCLKConfig+0x5c2>
      status = ret;
 80a4696:	462e      	mov	r6, r5
 80a4698:	e7e5      	b.n	80a4666 <HAL_RCCEx_PeriphCLKConfig+0x5c2>
 80a469a:	bf00      	nop
 80a469c:	58024800 	.word	0x58024800
 80a46a0:	58024400 	.word	0x58024400
        ret = RCCEx_PLL2_Config(&(PeriphClkInit->PLL2), DIVIDER_Q_UPDATE);
 80a46a4:	2101      	movs	r1, #1
 80a46a6:	f104 0008 	add.w	r0, r4, #8
 80a46aa:	f7ff fbf3 	bl	80a3e94 <RCCEx_PLL2_Config>
 80a46ae:	4605      	mov	r5, r0
    if (ret == HAL_OK)
 80a46b0:	2d00      	cmp	r5, #0
 80a46b2:	f040 80bf 	bne.w	80a4834 <HAL_RCCEx_PeriphCLKConfig+0x790>
      __HAL_RCC_LPUART1_CONFIG(PeriphClkInit->Lpuart1ClockSelection);
 80a46b6:	4ab3      	ldr	r2, [pc, #716]	@ (80a4984 <HAL_RCCEx_PeriphCLKConfig+0x8e0>)
 80a46b8:	6d93      	ldr	r3, [r2, #88]	@ 0x58
 80a46ba:	f023 0307 	bic.w	r3, r3, #7
 80a46be:	f8d4 1094 	ldr.w	r1, [r4, #148]	@ 0x94
 80a46c2:	430b      	orrs	r3, r1
 80a46c4:	6593      	str	r3, [r2, #88]	@ 0x58
  if (((PeriphClkInit->PeriphClockSelection) & RCC_PERIPHCLK_LPTIM1) == RCC_PERIPHCLK_LPTIM1)
 80a46c6:	6823      	ldr	r3, [r4, #0]
 80a46c8:	f013 0f20 	tst.w	r3, #32
 80a46cc:	d01d      	beq.n	80a470a <HAL_RCCEx_PeriphCLKConfig+0x666>
    switch (PeriphClkInit->Lptim1ClockSelection)
 80a46ce:	f8d4 3090 	ldr.w	r3, [r4, #144]	@ 0x90
 80a46d2:	f1b3 5f00 	cmp.w	r3, #536870912	@ 0x20000000
 80a46d6:	f000 80c1 	beq.w	80a485c <HAL_RCCEx_PeriphCLKConfig+0x7b8>
 80a46da:	f200 80b0 	bhi.w	80a483e <HAL_RCCEx_PeriphCLKConfig+0x79a>
 80a46de:	b14b      	cbz	r3, 80a46f4 <HAL_RCCEx_PeriphCLKConfig+0x650>
 80a46e0:	f1b3 5f80 	cmp.w	r3, #268435456	@ 0x10000000
 80a46e4:	f040 80a8 	bne.w	80a4838 <HAL_RCCEx_PeriphCLKConfig+0x794>
        ret = RCCEx_PLL2_Config(&(PeriphClkInit->PLL2), DIVIDER_P_UPDATE);
 80a46e8:	2100      	movs	r1, #0
 80a46ea:	f104 0008 	add.w	r0, r4, #8
 80a46ee:	f7ff fbd1 	bl	80a3e94 <RCCEx_PLL2_Config>
 80a46f2:	4605      	mov	r5, r0
    if (ret == HAL_OK)
 80a46f4:	2d00      	cmp	r5, #0
 80a46f6:	f040 80b8 	bne.w	80a486a <HAL_RCCEx_PeriphCLKConfig+0x7c6>
      __HAL_RCC_LPTIM1_CONFIG(PeriphClkInit->Lptim1ClockSelection);
 80a46fa:	4aa2      	ldr	r2, [pc, #648]	@ (80a4984 <HAL_RCCEx_PeriphCLKConfig+0x8e0>)
 80a46fc:	6d53      	ldr	r3, [r2, #84]	@ 0x54
 80a46fe:	f023 43e0 	bic.w	r3, r3, #1879048192	@ 0x70000000
 80a4702:	f8d4 1090 	ldr.w	r1, [r4, #144]	@ 0x90
 80a4706:	430b      	orrs	r3, r1
 80a4708:	6553      	str	r3, [r2, #84]	@ 0x54
  if (((PeriphClkInit->PeriphClockSelection) & RCC_PERIPHCLK_LPTIM2) == RCC_PERIPHCLK_LPTIM2)
 80a470a:	6823      	ldr	r3, [r4, #0]
 80a470c:	f013 0f40 	tst.w	r3, #64	@ 0x40
 80a4710:	d01d      	beq.n	80a474e <HAL_RCCEx_PeriphCLKConfig+0x6aa>
    switch (PeriphClkInit->Lptim2ClockSelection)
 80a4712:	f8d4 309c 	ldr.w	r3, [r4, #156]	@ 0x9c
 80a4716:	f5b3 6f00 	cmp.w	r3, #2048	@ 0x800
 80a471a:	f000 80ba 	beq.w	80a4892 <HAL_RCCEx_PeriphCLKConfig+0x7ee>
 80a471e:	f200 80a9 	bhi.w	80a4874 <HAL_RCCEx_PeriphCLKConfig+0x7d0>
 80a4722:	b14b      	cbz	r3, 80a4738 <HAL_RCCEx_PeriphCLKConfig+0x694>
 80a4724:	f5b3 6f80 	cmp.w	r3, #1024	@ 0x400
 80a4728:	f040 80a1 	bne.w	80a486e <HAL_RCCEx_PeriphCLKConfig+0x7ca>
        ret = RCCEx_PLL2_Config(&(PeriphClkInit->PLL2), DIVIDER_P_UPDATE);
 80a472c:	2100      	movs	r1, #0
 80a472e:	f104 0008 	add.w	r0, r4, #8
 80a4732:	f7ff fbaf 	bl	80a3e94 <RCCEx_PLL2_Config>
 80a4736:	4605      	mov	r5, r0
    if (ret == HAL_OK)
 80a4738:	2d00      	cmp	r5, #0
 80a473a:	f040 80b1 	bne.w	80a48a0 <HAL_RCCEx_PeriphCLKConfig+0x7fc>
      __HAL_RCC_LPTIM2_CONFIG(PeriphClkInit->Lptim2ClockSelection);
 80a473e:	4a91      	ldr	r2, [pc, #580]	@ (80a4984 <HAL_RCCEx_PeriphCLKConfig+0x8e0>)
 80a4740:	6d93      	ldr	r3, [r2, #88]	@ 0x58
 80a4742:	f423 53e0 	bic.w	r3, r3, #7168	@ 0x1c00
 80a4746:	f8d4 109c 	ldr.w	r1, [r4, #156]	@ 0x9c
 80a474a:	430b      	orrs	r3, r1
 80a474c:	6593      	str	r3, [r2, #88]	@ 0x58
  if (((PeriphClkInit->PeriphClockSelection) & RCC_PERIPHCLK_LPTIM345) == RCC_PERIPHCLK_LPTIM345)
 80a474e:	6823      	ldr	r3, [r4, #0]
 80a4750:	f013 0f80 	tst.w	r3, #128	@ 0x80
 80a4754:	d01d      	beq.n	80a4792 <HAL_RCCEx_PeriphCLKConfig+0x6ee>
    switch (PeriphClkInit->Lptim345ClockSelection)
 80a4756:	f8d4 30a0 	ldr.w	r3, [r4, #160]	@ 0xa0
 80a475a:	f5b3 4f80 	cmp.w	r3, #16384	@ 0x4000
 80a475e:	f000 80b3 	beq.w	80a48c8 <HAL_RCCEx_PeriphCLKConfig+0x824>
 80a4762:	f200 80a2 	bhi.w	80a48aa <HAL_RCCEx_PeriphCLKConfig+0x806>
 80a4766:	b14b      	cbz	r3, 80a477c <HAL_RCCEx_PeriphCLKConfig+0x6d8>
 80a4768:	f5b3 5f00 	cmp.w	r3, #8192	@ 0x2000
 80a476c:	f040 809a 	bne.w	80a48a4 <HAL_RCCEx_PeriphCLKConfig+0x800>
        ret = RCCEx_PLL2_Config(&(PeriphClkInit->PLL2), DIVIDER_P_UPDATE);
 80a4770:	2100      	movs	r1, #0
 80a4772:	f104 0008 	add.w	r0, r4, #8
 80a4776:	f7ff fb8d 	bl	80a3e94 <RCCEx_PLL2_Config>
 80a477a:	4605      	mov	r5, r0
    if (ret == HAL_OK)
 80a477c:	2d00      	cmp	r5, #0
 80a477e:	f040 80aa 	bne.w	80a48d6 <HAL_RCCEx_PeriphCLKConfig+0x832>
      __HAL_RCC_LPTIM345_CONFIG(PeriphClkInit->Lptim345ClockSelection);
 80a4782:	4a80      	ldr	r2, [pc, #512]	@ (80a4984 <HAL_RCCEx_PeriphCLKConfig+0x8e0>)
 80a4784:	6d93      	ldr	r3, [r2, #88]	@ 0x58
 80a4786:	f423 4360 	bic.w	r3, r3, #57344	@ 0xe000
 80a478a:	f8d4 10a0 	ldr.w	r1, [r4, #160]	@ 0xa0
 80a478e:	430b      	orrs	r3, r1
 80a4790:	6593      	str	r3, [r2, #88]	@ 0x58
  if (((PeriphClkInit->PeriphClockSelection) & RCC_PERIPHCLK_I2C123) == RCC_PERIPHCLK_I2C123)
 80a4792:	6823      	ldr	r3, [r4, #0]
 80a4794:	f013 0f08 	tst.w	r3, #8
 80a4798:	d00d      	beq.n	80a47b6 <HAL_RCCEx_PeriphCLKConfig+0x712>
    if ((PeriphClkInit->I2c123ClockSelection) == RCC_I2C123CLKSOURCE_PLL3)
 80a479a:	f8d4 3084 	ldr.w	r3, [r4, #132]	@ 0x84
 80a479e:	f5b3 5f80 	cmp.w	r3, #4096	@ 0x1000
 80a47a2:	f000 809a 	beq.w	80a48da <HAL_RCCEx_PeriphCLKConfig+0x836>
    __HAL_RCC_I2C123_CONFIG(PeriphClkInit->I2c123ClockSelection);
 80a47a6:	4a77      	ldr	r2, [pc, #476]	@ (80a4984 <HAL_RCCEx_PeriphCLKConfig+0x8e0>)
 80a47a8:	6d53      	ldr	r3, [r2, #84]	@ 0x54
 80a47aa:	f423 5340 	bic.w	r3, r3, #12288	@ 0x3000
 80a47ae:	f8d4 1084 	ldr.w	r1, [r4, #132]	@ 0x84
 80a47b2:	430b      	orrs	r3, r1
 80a47b4:	6553      	str	r3, [r2, #84]	@ 0x54
  if (((PeriphClkInit->PeriphClockSelection) & RCC_PERIPHCLK_I2C4) == RCC_PERIPHCLK_I2C4)
 80a47b6:	6823      	ldr	r3, [r4, #0]
 80a47b8:	f013 0f10 	tst.w	r3, #16
 80a47bc:	d00d      	beq.n	80a47da <HAL_RCCEx_PeriphCLKConfig+0x736>
    if ((PeriphClkInit->I2c4ClockSelection) == RCC_I2C4CLKSOURCE_PLL3)
 80a47be:	f8d4 3098 	ldr.w	r3, [r4, #152]	@ 0x98
 80a47c2:	f5b3 7f80 	cmp.w	r3, #256	@ 0x100
 80a47c6:	f000 8092 	beq.w	80a48ee <HAL_RCCEx_PeriphCLKConfig+0x84a>
    __HAL_RCC_I2C4_CONFIG(PeriphClkInit->I2c4ClockSelection);
 80a47ca:	4a6e      	ldr	r2, [pc, #440]	@ (80a4984 <HAL_RCCEx_PeriphCLKConfig+0x8e0>)
 80a47cc:	6d93      	ldr	r3, [r2, #88]	@ 0x58
 80a47ce:	f423 7340 	bic.w	r3, r3, #768	@ 0x300
 80a47d2:	f8d4 1098 	ldr.w	r1, [r4, #152]	@ 0x98
 80a47d6:	430b      	orrs	r3, r1
 80a47d8:	6593      	str	r3, [r2, #88]	@ 0x58
  if (((PeriphClkInit->PeriphClockSelection) & RCC_PERIPHCLK_ADC) == RCC_PERIPHCLK_ADC)
 80a47da:	6823      	ldr	r3, [r4, #0]
 80a47dc:	f413 2f00 	tst.w	r3, #524288	@ 0x80000
 80a47e0:	f000 809a 	beq.w	80a4918 <HAL_RCCEx_PeriphCLKConfig+0x874>
    switch (PeriphClkInit->AdcClockSelection)
 80a47e4:	f8d4 30a4 	ldr.w	r3, [r4, #164]	@ 0xa4
 80a47e8:	f5b3 3f80 	cmp.w	r3, #65536	@ 0x10000
 80a47ec:	f000 8089 	beq.w	80a4902 <HAL_RCCEx_PeriphCLKConfig+0x85e>
 80a47f0:	f5b3 3f00 	cmp.w	r3, #131072	@ 0x20000
 80a47f4:	d008      	beq.n	80a4808 <HAL_RCCEx_PeriphCLKConfig+0x764>
 80a47f6:	2b00      	cmp	r3, #0
 80a47f8:	f040 808a 	bne.w	80a4910 <HAL_RCCEx_PeriphCLKConfig+0x86c>
        ret = RCCEx_PLL2_Config(&(PeriphClkInit->PLL2), DIVIDER_P_UPDATE);
 80a47fc:	2100      	movs	r1, #0
 80a47fe:	f104 0008 	add.w	r0, r4, #8
 80a4802:	f7ff fb47 	bl	80a3e94 <RCCEx_PLL2_Config>
 80a4806:	4605      	mov	r5, r0
    if (ret == HAL_OK)
 80a4808:	2d00      	cmp	r5, #0
 80a480a:	f040 8084 	bne.w	80a4916 <HAL_RCCEx_PeriphCLKConfig+0x872>
      __HAL_RCC_ADC_CONFIG(PeriphClkInit->AdcClockSelection);
 80a480e:	4a5d      	ldr	r2, [pc, #372]	@ (80a4984 <HAL_RCCEx_PeriphCLKConfig+0x8e0>)
 80a4810:	6d93      	ldr	r3, [r2, #88]	@ 0x58
 80a4812:	f423 3340 	bic.w	r3, r3, #196608	@ 0x30000
 80a4816:	f8d4 10a4 	ldr.w	r1, [r4, #164]	@ 0xa4
 80a481a:	430b      	orrs	r3, r1
 80a481c:	6593      	str	r3, [r2, #88]	@ 0x58
 80a481e:	e07b      	b.n	80a4918 <HAL_RCCEx_PeriphCLKConfig+0x874>
        ret = RCCEx_PLL3_Config(&(PeriphClkInit->PLL3), DIVIDER_Q_UPDATE);
 80a4820:	2101      	movs	r1, #1
 80a4822:	f104 0028 	add.w	r0, r4, #40	@ 0x28
 80a4826:	f7ff fbb9 	bl	80a3f9c <RCCEx_PLL3_Config>
 80a482a:	4605      	mov	r5, r0
        break;
 80a482c:	e740      	b.n	80a46b0 <HAL_RCCEx_PeriphCLKConfig+0x60c>
    switch (PeriphClkInit->Lpuart1ClockSelection)
 80a482e:	2601      	movs	r6, #1
 80a4830:	4635      	mov	r5, r6
 80a4832:	e748      	b.n	80a46c6 <HAL_RCCEx_PeriphCLKConfig+0x622>
      status = ret;
 80a4834:	462e      	mov	r6, r5
 80a4836:	e746      	b.n	80a46c6 <HAL_RCCEx_PeriphCLKConfig+0x622>
    switch (PeriphClkInit->Lptim1ClockSelection)
 80a4838:	2601      	movs	r6, #1
 80a483a:	4635      	mov	r5, r6
 80a483c:	e765      	b.n	80a470a <HAL_RCCEx_PeriphCLKConfig+0x666>
 80a483e:	f1b3 4f80 	cmp.w	r3, #1073741824	@ 0x40000000
 80a4842:	f43f af57 	beq.w	80a46f4 <HAL_RCCEx_PeriphCLKConfig+0x650>
 80a4846:	f1b3 4fa0 	cmp.w	r3, #1342177280	@ 0x50000000
 80a484a:	f43f af53 	beq.w	80a46f4 <HAL_RCCEx_PeriphCLKConfig+0x650>
 80a484e:	f1b3 5f40 	cmp.w	r3, #805306368	@ 0x30000000
 80a4852:	f43f af4f 	beq.w	80a46f4 <HAL_RCCEx_PeriphCLKConfig+0x650>
 80a4856:	2601      	movs	r6, #1
 80a4858:	4635      	mov	r5, r6
 80a485a:	e756      	b.n	80a470a <HAL_RCCEx_PeriphCLKConfig+0x666>
        ret = RCCEx_PLL3_Config(&(PeriphClkInit->PLL3), DIVIDER_R_UPDATE);
 80a485c:	2102      	movs	r1, #2
 80a485e:	f104 0028 	add.w	r0, r4, #40	@ 0x28
 80a4862:	f7ff fb9b 	bl	80a3f9c <RCCEx_PLL3_Config>
 80a4866:	4605      	mov	r5, r0
        break;
 80a4868:	e744      	b.n	80a46f4 <HAL_RCCEx_PeriphCLKConfig+0x650>
      status = ret;
 80a486a:	462e      	mov	r6, r5
 80a486c:	e74d      	b.n	80a470a <HAL_RCCEx_PeriphCLKConfig+0x666>
    switch (PeriphClkInit->Lptim2ClockSelection)
 80a486e:	2601      	movs	r6, #1
 80a4870:	4635      	mov	r5, r6
 80a4872:	e76c      	b.n	80a474e <HAL_RCCEx_PeriphCLKConfig+0x6aa>
 80a4874:	f5b3 5f80 	cmp.w	r3, #4096	@ 0x1000
 80a4878:	f43f af5e 	beq.w	80a4738 <HAL_RCCEx_PeriphCLKConfig+0x694>
 80a487c:	f5b3 5fa0 	cmp.w	r3, #5120	@ 0x1400
 80a4880:	f43f af5a 	beq.w	80a4738 <HAL_RCCEx_PeriphCLKConfig+0x694>
 80a4884:	f5b3 6f40 	cmp.w	r3, #3072	@ 0xc00
 80a4888:	f43f af56 	beq.w	80a4738 <HAL_RCCEx_PeriphCLKConfig+0x694>
 80a488c:	2601      	movs	r6, #1
 80a488e:	4635      	mov	r5, r6
 80a4890:	e75d      	b.n	80a474e <HAL_RCCEx_PeriphCLKConfig+0x6aa>
        ret = RCCEx_PLL3_Config(&(PeriphClkInit->PLL3), DIVIDER_R_UPDATE);
 80a4892:	2102      	movs	r1, #2
 80a4894:	f104 0028 	add.w	r0, r4, #40	@ 0x28
 80a4898:	f7ff fb80 	bl	80a3f9c <RCCEx_PLL3_Config>
 80a489c:	4605      	mov	r5, r0
        break;
 80a489e:	e74b      	b.n	80a4738 <HAL_RCCEx_PeriphCLKConfig+0x694>
      status = ret;
 80a48a0:	462e      	mov	r6, r5
 80a48a2:	e754      	b.n	80a474e <HAL_RCCEx_PeriphCLKConfig+0x6aa>
    switch (PeriphClkInit->Lptim345ClockSelection)
 80a48a4:	2601      	movs	r6, #1
 80a48a6:	4635      	mov	r5, r6
 80a48a8:	e773      	b.n	80a4792 <HAL_RCCEx_PeriphCLKConfig+0x6ee>
 80a48aa:	f5b3 4f00 	cmp.w	r3, #32768	@ 0x8000
 80a48ae:	f43f af65 	beq.w	80a477c <HAL_RCCEx_PeriphCLKConfig+0x6d8>
 80a48b2:	f5b3 4f20 	cmp.w	r3, #40960	@ 0xa000
 80a48b6:	f43f af61 	beq.w	80a477c <HAL_RCCEx_PeriphCLKConfig+0x6d8>
 80a48ba:	f5b3 4fc0 	cmp.w	r3, #24576	@ 0x6000
 80a48be:	f43f af5d 	beq.w	80a477c <HAL_RCCEx_PeriphCLKConfig+0x6d8>
 80a48c2:	2601      	movs	r6, #1
 80a48c4:	4635      	mov	r5, r6
 80a48c6:	e764      	b.n	80a4792 <HAL_RCCEx_PeriphCLKConfig+0x6ee>
        ret = RCCEx_PLL3_Config(&(PeriphClkInit->PLL3), DIVIDER_R_UPDATE);
 80a48c8:	2102      	movs	r1, #2
 80a48ca:	f104 0028 	add.w	r0, r4, #40	@ 0x28
 80a48ce:	f7ff fb65 	bl	80a3f9c <RCCEx_PLL3_Config>
 80a48d2:	4605      	mov	r5, r0
        break;
 80a48d4:	e752      	b.n	80a477c <HAL_RCCEx_PeriphCLKConfig+0x6d8>
      status = ret;
 80a48d6:	462e      	mov	r6, r5
 80a48d8:	e75b      	b.n	80a4792 <HAL_RCCEx_PeriphCLKConfig+0x6ee>
      if (RCCEx_PLL3_Config(&(PeriphClkInit->PLL3), DIVIDER_R_UPDATE) != HAL_OK)
 80a48da:	2102      	movs	r1, #2
 80a48dc:	f104 0028 	add.w	r0, r4, #40	@ 0x28
 80a48e0:	f7ff fb5c 	bl	80a3f9c <RCCEx_PLL3_Config>
 80a48e4:	2800      	cmp	r0, #0
 80a48e6:	f43f af5e 	beq.w	80a47a6 <HAL_RCCEx_PeriphCLKConfig+0x702>
        status = HAL_ERROR;
 80a48ea:	2601      	movs	r6, #1
 80a48ec:	e75b      	b.n	80a47a6 <HAL_RCCEx_PeriphCLKConfig+0x702>
      if (RCCEx_PLL3_Config(&(PeriphClkInit->PLL3), DIVIDER_R_UPDATE) != HAL_OK)
 80a48ee:	2102      	movs	r1, #2
 80a48f0:	f104 0028 	add.w	r0, r4, #40	@ 0x28
 80a48f4:	f7ff fb52 	bl	80a3f9c <RCCEx_PLL3_Config>
 80a48f8:	2800      	cmp	r0, #0
 80a48fa:	f43f af66 	beq.w	80a47ca <HAL_RCCEx_PeriphCLKConfig+0x726>
        status = HAL_ERROR;
 80a48fe:	2601      	movs	r6, #1
 80a4900:	e763      	b.n	80a47ca <HAL_RCCEx_PeriphCLKConfig+0x726>
        ret = RCCEx_PLL3_Config(&(PeriphClkInit->PLL3), DIVIDER_R_UPDATE);
 80a4902:	2102      	movs	r1, #2
 80a4904:	f104 0028 	add.w	r0, r4, #40	@ 0x28
 80a4908:	f7ff fb48 	bl	80a3f9c <RCCEx_PLL3_Config>
 80a490c:	4605      	mov	r5, r0
        break;
 80a490e:	e77b      	b.n	80a4808 <HAL_RCCEx_PeriphCLKConfig+0x764>
    switch (PeriphClkInit->AdcClockSelection)
 80a4910:	2601      	movs	r6, #1
 80a4912:	4635      	mov	r5, r6
 80a4914:	e000      	b.n	80a4918 <HAL_RCCEx_PeriphCLKConfig+0x874>
      status = ret;
 80a4916:	462e      	mov	r6, r5
  if (((PeriphClkInit->PeriphClockSelection) & RCC_PERIPHCLK_USB) == RCC_PERIPHCLK_USB)
 80a4918:	6823      	ldr	r3, [r4, #0]
 80a491a:	f413 2f80 	tst.w	r3, #262144	@ 0x40000
 80a491e:	d018      	beq.n	80a4952 <HAL_RCCEx_PeriphCLKConfig+0x8ae>
    switch (PeriphClkInit->UsbClockSelection)
 80a4920:	f8d4 3088 	ldr.w	r3, [r4, #136]	@ 0x88
 80a4924:	f5b3 1f00 	cmp.w	r3, #2097152	@ 0x200000
 80a4928:	d01f      	beq.n	80a496a <HAL_RCCEx_PeriphCLKConfig+0x8c6>
 80a492a:	f5b3 1f40 	cmp.w	r3, #3145728	@ 0x300000
 80a492e:	d007      	beq.n	80a4940 <HAL_RCCEx_PeriphCLKConfig+0x89c>
 80a4930:	f5b3 1f80 	cmp.w	r3, #1048576	@ 0x100000
 80a4934:	d120      	bne.n	80a4978 <HAL_RCCEx_PeriphCLKConfig+0x8d4>
        __HAL_RCC_PLLCLKOUT_ENABLE(RCC_PLL1_DIVQ);
 80a4936:	4a13      	ldr	r2, [pc, #76]	@ (80a4984 <HAL_RCCEx_PeriphCLKConfig+0x8e0>)
 80a4938:	6ad3      	ldr	r3, [r2, #44]	@ 0x2c
 80a493a:	f443 3300 	orr.w	r3, r3, #131072	@ 0x20000
 80a493e:	62d3      	str	r3, [r2, #44]	@ 0x2c
    if (ret == HAL_OK)
 80a4940:	b9ed      	cbnz	r5, 80a497e <HAL_RCCEx_PeriphCLKConfig+0x8da>
      __HAL_RCC_USB_CONFIG(PeriphClkInit->UsbClockSelection);
 80a4942:	4a10      	ldr	r2, [pc, #64]	@ (80a4984 <HAL_RCCEx_PeriphCLKConfig+0x8e0>)
 80a4944:	6d53      	ldr	r3, [r2, #84]	@ 0x54
 80a4946:	f423 1340 	bic.w	r3, r3, #3145728	@ 0x300000
 80a494a:	f8d4 1088 	ldr.w	r1, [r4, #136]	@ 0x88
 80a494e:	430b      	orrs	r3, r1
 80a4950:	6553      	str	r3, [r2, #84]	@ 0x54
  if (((PeriphClkInit->PeriphClockSelection) & RCC_PERIPHCLK_SDMMC) == RCC_PERIPHCLK_SDMMC)
 80a4952:	6823      	ldr	r3, [r4, #0]
 80a4954:	f413 3f80 	tst.w	r3, #65536	@ 0x10000
 80a4958:	d02c      	beq.n	80a49b4 <HAL_RCCEx_PeriphCLKConfig+0x910>
    switch (PeriphClkInit->SdmmcClockSelection)
 80a495a:	6d23      	ldr	r3, [r4, #80]	@ 0x50
 80a495c:	b1a3      	cbz	r3, 80a4988 <HAL_RCCEx_PeriphCLKConfig+0x8e4>
 80a495e:	f5b3 3f80 	cmp.w	r3, #65536	@ 0x10000
 80a4962:	d01f      	beq.n	80a49a4 <HAL_RCCEx_PeriphCLKConfig+0x900>
 80a4964:	2601      	movs	r6, #1
 80a4966:	4635      	mov	r5, r6
 80a4968:	e024      	b.n	80a49b4 <HAL_RCCEx_PeriphCLKConfig+0x910>
        ret = RCCEx_PLL3_Config(&(PeriphClkInit->PLL3), DIVIDER_Q_UPDATE);
 80a496a:	2101      	movs	r1, #1
 80a496c:	f104 0028 	add.w	r0, r4, #40	@ 0x28
 80a4970:	f7ff fb14 	bl	80a3f9c <RCCEx_PLL3_Config>
 80a4974:	4605      	mov	r5, r0
        break;
 80a4976:	e7e3      	b.n	80a4940 <HAL_RCCEx_PeriphCLKConfig+0x89c>
    switch (PeriphClkInit->UsbClockSelection)
 80a4978:	2601      	movs	r6, #1
 80a497a:	4635      	mov	r5, r6
 80a497c:	e7e9      	b.n	80a4952 <HAL_RCCEx_PeriphCLKConfig+0x8ae>
      status = ret;
 80a497e:	462e      	mov	r6, r5
 80a4980:	e7e7      	b.n	80a4952 <HAL_RCCEx_PeriphCLKConfig+0x8ae>
 80a4982:	bf00      	nop
 80a4984:	58024400 	.word	0x58024400
        __HAL_RCC_PLLCLKOUT_ENABLE(RCC_PLL1_DIVQ);
 80a4988:	4a70      	ldr	r2, [pc, #448]	@ (80a4b4c <HAL_RCCEx_PeriphCLKConfig+0xaa8>)
 80a498a:	6ad3      	ldr	r3, [r2, #44]	@ 0x2c
 80a498c:	f443 3300 	orr.w	r3, r3, #131072	@ 0x20000
 80a4990:	62d3      	str	r3, [r2, #44]	@ 0x2c
    if (ret == HAL_OK)
 80a4992:	b975      	cbnz	r5, 80a49b2 <HAL_RCCEx_PeriphCLKConfig+0x90e>
      __HAL_RCC_SDMMC_CONFIG(PeriphClkInit->SdmmcClockSelection);
 80a4994:	4a6d      	ldr	r2, [pc, #436]	@ (80a4b4c <HAL_RCCEx_PeriphCLKConfig+0xaa8>)
 80a4996:	6cd3      	ldr	r3, [r2, #76]	@ 0x4c
 80a4998:	f423 3380 	bic.w	r3, r3, #65536	@ 0x10000
 80a499c:	6d21      	ldr	r1, [r4, #80]	@ 0x50
 80a499e:	430b      	orrs	r3, r1
 80a49a0:	64d3      	str	r3, [r2, #76]	@ 0x4c
 80a49a2:	e007      	b.n	80a49b4 <HAL_RCCEx_PeriphCLKConfig+0x910>
        ret = RCCEx_PLL2_Config(&(PeriphClkInit->PLL2), DIVIDER_R_UPDATE);
 80a49a4:	2102      	movs	r1, #2
 80a49a6:	f104 0008 	add.w	r0, r4, #8
 80a49aa:	f7ff fa73 	bl	80a3e94 <RCCEx_PLL2_Config>
 80a49ae:	4605      	mov	r5, r0
        break;
 80a49b0:	e7ef      	b.n	80a4992 <HAL_RCCEx_PeriphCLKConfig+0x8ee>
      status = ret;
 80a49b2:	462e      	mov	r6, r5
  if (((PeriphClkInit->PeriphClockSelection) & RCC_PERIPHCLK_LTDC) == RCC_PERIPHCLK_LTDC)
 80a49b4:	6823      	ldr	r3, [r4, #0]
 80a49b6:	f013 5f00 	tst.w	r3, #536870912	@ 0x20000000
 80a49ba:	d111      	bne.n	80a49e0 <HAL_RCCEx_PeriphCLKConfig+0x93c>
  if (((PeriphClkInit->PeriphClockSelection) & RCC_PERIPHCLK_RNG) == RCC_PERIPHCLK_RNG)
 80a49bc:	6823      	ldr	r3, [r4, #0]
 80a49be:	f413 3f00 	tst.w	r3, #131072	@ 0x20000
 80a49c2:	d028      	beq.n	80a4a16 <HAL_RCCEx_PeriphCLKConfig+0x972>
    switch (PeriphClkInit->RngClockSelection)
 80a49c4:	f8d4 3080 	ldr.w	r3, [r4, #128]	@ 0x80
 80a49c8:	f5b3 7f80 	cmp.w	r3, #256	@ 0x100
 80a49cc:	d014      	beq.n	80a49f8 <HAL_RCCEx_PeriphCLKConfig+0x954>
 80a49ce:	d910      	bls.n	80a49f2 <HAL_RCCEx_PeriphCLKConfig+0x94e>
 80a49d0:	f5b3 7f00 	cmp.w	r3, #512	@ 0x200
 80a49d4:	d015      	beq.n	80a4a02 <HAL_RCCEx_PeriphCLKConfig+0x95e>
 80a49d6:	f5b3 7f40 	cmp.w	r3, #768	@ 0x300
 80a49da:	d012      	beq.n	80a4a02 <HAL_RCCEx_PeriphCLKConfig+0x95e>
 80a49dc:	2601      	movs	r6, #1
 80a49de:	e01a      	b.n	80a4a16 <HAL_RCCEx_PeriphCLKConfig+0x972>
    if (RCCEx_PLL3_Config(&(PeriphClkInit->PLL3), DIVIDER_R_UPDATE) != HAL_OK)
 80a49e0:	2102      	movs	r1, #2
 80a49e2:	f104 0028 	add.w	r0, r4, #40	@ 0x28
 80a49e6:	f7ff fad9 	bl	80a3f9c <RCCEx_PLL3_Config>
 80a49ea:	2800      	cmp	r0, #0
 80a49ec:	d0e6      	beq.n	80a49bc <HAL_RCCEx_PeriphCLKConfig+0x918>
      status = HAL_ERROR;
 80a49ee:	2601      	movs	r6, #1
 80a49f0:	e7e4      	b.n	80a49bc <HAL_RCCEx_PeriphCLKConfig+0x918>
    switch (PeriphClkInit->RngClockSelection)
 80a49f2:	b133      	cbz	r3, 80a4a02 <HAL_RCCEx_PeriphCLKConfig+0x95e>
 80a49f4:	2601      	movs	r6, #1
 80a49f6:	e00e      	b.n	80a4a16 <HAL_RCCEx_PeriphCLKConfig+0x972>
        __HAL_RCC_PLLCLKOUT_ENABLE(RCC_PLL1_DIVQ);
 80a49f8:	4a54      	ldr	r2, [pc, #336]	@ (80a4b4c <HAL_RCCEx_PeriphCLKConfig+0xaa8>)
 80a49fa:	6ad3      	ldr	r3, [r2, #44]	@ 0x2c
 80a49fc:	f443 3300 	orr.w	r3, r3, #131072	@ 0x20000
 80a4a00:	62d3      	str	r3, [r2, #44]	@ 0x2c
    if (ret == HAL_OK)
 80a4a02:	2d00      	cmp	r5, #0
 80a4a04:	d169      	bne.n	80a4ada <HAL_RCCEx_PeriphCLKConfig+0xa36>
      __HAL_RCC_RNG_CONFIG(PeriphClkInit->RngClockSelection);
 80a4a06:	4a51      	ldr	r2, [pc, #324]	@ (80a4b4c <HAL_RCCEx_PeriphCLKConfig+0xaa8>)
 80a4a08:	6d53      	ldr	r3, [r2, #84]	@ 0x54
 80a4a0a:	f423 7340 	bic.w	r3, r3, #768	@ 0x300
 80a4a0e:	f8d4 1080 	ldr.w	r1, [r4, #128]	@ 0x80
 80a4a12:	430b      	orrs	r3, r1
 80a4a14:	6553      	str	r3, [r2, #84]	@ 0x54
  if (((PeriphClkInit->PeriphClockSelection) & RCC_PERIPHCLK_SWPMI1) == RCC_PERIPHCLK_SWPMI1)
 80a4a16:	6823      	ldr	r3, [r4, #0]
 80a4a18:	f413 1f80 	tst.w	r3, #1048576	@ 0x100000
 80a4a1c:	d006      	beq.n	80a4a2c <HAL_RCCEx_PeriphCLKConfig+0x988>
    __HAL_RCC_SWPMI1_CONFIG(PeriphClkInit->Swpmi1ClockSelection);
 80a4a1e:	4a4b      	ldr	r2, [pc, #300]	@ (80a4b4c <HAL_RCCEx_PeriphCLKConfig+0xaa8>)
 80a4a20:	6d13      	ldr	r3, [r2, #80]	@ 0x50
 80a4a22:	f023 4300 	bic.w	r3, r3, #2147483648	@ 0x80000000
 80a4a26:	6f61      	ldr	r1, [r4, #116]	@ 0x74
 80a4a28:	430b      	orrs	r3, r1
 80a4a2a:	6513      	str	r3, [r2, #80]	@ 0x50
  if (((PeriphClkInit->PeriphClockSelection) & RCC_PERIPHCLK_HRTIM1) == RCC_PERIPHCLK_HRTIM1)
 80a4a2c:	6823      	ldr	r3, [r4, #0]
 80a4a2e:	f013 5f80 	tst.w	r3, #268435456	@ 0x10000000
 80a4a32:	d007      	beq.n	80a4a44 <HAL_RCCEx_PeriphCLKConfig+0x9a0>
    __HAL_RCC_HRTIM1_CONFIG(PeriphClkInit->Hrtim1ClockSelection);
 80a4a34:	4a45      	ldr	r2, [pc, #276]	@ (80a4b4c <HAL_RCCEx_PeriphCLKConfig+0xaa8>)
 80a4a36:	6913      	ldr	r3, [r2, #16]
 80a4a38:	f423 4380 	bic.w	r3, r3, #16384	@ 0x4000
 80a4a3c:	f8d4 10b8 	ldr.w	r1, [r4, #184]	@ 0xb8
 80a4a40:	430b      	orrs	r3, r1
 80a4a42:	6113      	str	r3, [r2, #16]
  if (((PeriphClkInit->PeriphClockSelection) & RCC_PERIPHCLK_DFSDM1) == RCC_PERIPHCLK_DFSDM1)
 80a4a44:	6823      	ldr	r3, [r4, #0]
 80a4a46:	f413 1f00 	tst.w	r3, #2097152	@ 0x200000
 80a4a4a:	d006      	beq.n	80a4a5a <HAL_RCCEx_PeriphCLKConfig+0x9b6>
    __HAL_RCC_DFSDM1_CONFIG(PeriphClkInit->Dfsdm1ClockSelection);
 80a4a4c:	4a3f      	ldr	r2, [pc, #252]	@ (80a4b4c <HAL_RCCEx_PeriphCLKConfig+0xaa8>)
 80a4a4e:	6d13      	ldr	r3, [r2, #80]	@ 0x50
 80a4a50:	f023 7380 	bic.w	r3, r3, #16777216	@ 0x1000000
 80a4a54:	6ee1      	ldr	r1, [r4, #108]	@ 0x6c
 80a4a56:	430b      	orrs	r3, r1
 80a4a58:	6513      	str	r3, [r2, #80]	@ 0x50
  if (((PeriphClkInit->PeriphClockSelection) & RCC_PERIPHCLK_TIM) == RCC_PERIPHCLK_TIM)
 80a4a5a:	6823      	ldr	r3, [r4, #0]
 80a4a5c:	f013 4f80 	tst.w	r3, #1073741824	@ 0x40000000
 80a4a60:	d009      	beq.n	80a4a76 <HAL_RCCEx_PeriphCLKConfig+0x9d2>
    __HAL_RCC_TIMCLKPRESCALER(PeriphClkInit->TIMPresSelection);
 80a4a62:	4b3a      	ldr	r3, [pc, #232]	@ (80a4b4c <HAL_RCCEx_PeriphCLKConfig+0xaa8>)
 80a4a64:	691a      	ldr	r2, [r3, #16]
 80a4a66:	f422 4200 	bic.w	r2, r2, #32768	@ 0x8000
 80a4a6a:	611a      	str	r2, [r3, #16]
 80a4a6c:	691a      	ldr	r2, [r3, #16]
 80a4a6e:	f8d4 10bc 	ldr.w	r1, [r4, #188]	@ 0xbc
 80a4a72:	430a      	orrs	r2, r1
 80a4a74:	611a      	str	r2, [r3, #16]
  if (((PeriphClkInit->PeriphClockSelection) & RCC_PERIPHCLK_CKPER) == RCC_PERIPHCLK_CKPER)
 80a4a76:	6823      	ldr	r3, [r4, #0]
 80a4a78:	2b00      	cmp	r3, #0
 80a4a7a:	da06      	bge.n	80a4a8a <HAL_RCCEx_PeriphCLKConfig+0x9e6>
    __HAL_RCC_CLKP_CONFIG(PeriphClkInit->CkperClockSelection);
 80a4a7c:	4a33      	ldr	r2, [pc, #204]	@ (80a4b4c <HAL_RCCEx_PeriphCLKConfig+0xaa8>)
 80a4a7e:	6cd3      	ldr	r3, [r2, #76]	@ 0x4c
 80a4a80:	f023 5340 	bic.w	r3, r3, #805306368	@ 0x30000000
 80a4a84:	6d61      	ldr	r1, [r4, #84]	@ 0x54
 80a4a86:	430b      	orrs	r3, r1
 80a4a88:	64d3      	str	r3, [r2, #76]	@ 0x4c
  if (((PeriphClkInit->PeriphClockSelection) & RCC_PERIPHCLK_CEC) == RCC_PERIPHCLK_CEC)
 80a4a8a:	6823      	ldr	r3, [r4, #0]
 80a4a8c:	f413 0f00 	tst.w	r3, #8388608	@ 0x800000
 80a4a90:	d007      	beq.n	80a4aa2 <HAL_RCCEx_PeriphCLKConfig+0x9fe>
    __HAL_RCC_CEC_CONFIG(PeriphClkInit->CecClockSelection);
 80a4a92:	4a2e      	ldr	r2, [pc, #184]	@ (80a4b4c <HAL_RCCEx_PeriphCLKConfig+0xaa8>)
 80a4a94:	6d53      	ldr	r3, [r2, #84]	@ 0x54
 80a4a96:	f423 0340 	bic.w	r3, r3, #12582912	@ 0xc00000
 80a4a9a:	f8d4 108c 	ldr.w	r1, [r4, #140]	@ 0x8c
 80a4a9e:	430b      	orrs	r3, r1
 80a4aa0:	6553      	str	r3, [r2, #84]	@ 0x54
  if (((PeriphClkInit->PeriphClockSelection) & RCC_PERIPHCLK_PLL2_DIVP) == RCC_PERIPHCLK_PLL2_DIVP)
 80a4aa2:	6863      	ldr	r3, [r4, #4]
 80a4aa4:	f013 0f01 	tst.w	r3, #1
 80a4aa8:	d119      	bne.n	80a4ade <HAL_RCCEx_PeriphCLKConfig+0xa3a>
  if (((PeriphClkInit->PeriphClockSelection) & RCC_PERIPHCLK_PLL2_DIVQ) == RCC_PERIPHCLK_PLL2_DIVQ)
 80a4aaa:	6863      	ldr	r3, [r4, #4]
 80a4aac:	f013 0f02 	tst.w	r3, #2
 80a4ab0:	d11e      	bne.n	80a4af0 <HAL_RCCEx_PeriphCLKConfig+0xa4c>
  if (((PeriphClkInit->PeriphClockSelection) & RCC_PERIPHCLK_PLL2_DIVR) == RCC_PERIPHCLK_PLL2_DIVR)
 80a4ab2:	6863      	ldr	r3, [r4, #4]
 80a4ab4:	f013 0f04 	tst.w	r3, #4
 80a4ab8:	d123      	bne.n	80a4b02 <HAL_RCCEx_PeriphCLKConfig+0xa5e>
  if (((PeriphClkInit->PeriphClockSelection) & RCC_PERIPHCLK_PLL3_DIVP) == RCC_PERIPHCLK_PLL3_DIVP)
 80a4aba:	6863      	ldr	r3, [r4, #4]
 80a4abc:	f013 0f08 	tst.w	r3, #8
 80a4ac0:	d128      	bne.n	80a4b14 <HAL_RCCEx_PeriphCLKConfig+0xa70>
  if (((PeriphClkInit->PeriphClockSelection) & RCC_PERIPHCLK_PLL3_DIVQ) == RCC_PERIPHCLK_PLL3_DIVQ)
 80a4ac2:	6863      	ldr	r3, [r4, #4]
 80a4ac4:	f013 0f10 	tst.w	r3, #16
 80a4ac8:	d12d      	bne.n	80a4b26 <HAL_RCCEx_PeriphCLKConfig+0xa82>
  if (((PeriphClkInit->PeriphClockSelection) & RCC_PERIPHCLK_PLL3_DIVR) == RCC_PERIPHCLK_PLL3_DIVR)
 80a4aca:	6863      	ldr	r3, [r4, #4]
 80a4acc:	f013 0f20 	tst.w	r3, #32
 80a4ad0:	d132      	bne.n	80a4b38 <HAL_RCCEx_PeriphCLKConfig+0xa94>
  if (status == HAL_OK)
 80a4ad2:	b106      	cbz	r6, 80a4ad6 <HAL_RCCEx_PeriphCLKConfig+0xa32>
  return HAL_ERROR;
 80a4ad4:	2601      	movs	r6, #1
}
 80a4ad6:	4630      	mov	r0, r6
 80a4ad8:	bdf8      	pop	{r3, r4, r5, r6, r7, pc}
      status = ret;
 80a4ada:	462e      	mov	r6, r5
 80a4adc:	e79b      	b.n	80a4a16 <HAL_RCCEx_PeriphCLKConfig+0x972>
    ret = RCCEx_PLL2_Config(&(PeriphClkInit->PLL2), DIVIDER_P_UPDATE);
 80a4ade:	2100      	movs	r1, #0
 80a4ae0:	f104 0008 	add.w	r0, r4, #8
 80a4ae4:	f7ff f9d6 	bl	80a3e94 <RCCEx_PLL2_Config>
    if (ret == HAL_OK)
 80a4ae8:	2800      	cmp	r0, #0
 80a4aea:	d0de      	beq.n	80a4aaa <HAL_RCCEx_PeriphCLKConfig+0xa06>
      status = ret;
 80a4aec:	4606      	mov	r6, r0
 80a4aee:	e7dc      	b.n	80a4aaa <HAL_RCCEx_PeriphCLKConfig+0xa06>
    ret = RCCEx_PLL2_Config(&(PeriphClkInit->PLL2), DIVIDER_Q_UPDATE);
 80a4af0:	2101      	movs	r1, #1
 80a4af2:	f104 0008 	add.w	r0, r4, #8
 80a4af6:	f7ff f9cd 	bl	80a3e94 <RCCEx_PLL2_Config>
    if (ret == HAL_OK)
 80a4afa:	2800      	cmp	r0, #0
 80a4afc:	d0d9      	beq.n	80a4ab2 <HAL_RCCEx_PeriphCLKConfig+0xa0e>
      status = ret;
 80a4afe:	4606      	mov	r6, r0
 80a4b00:	e7d7      	b.n	80a4ab2 <HAL_RCCEx_PeriphCLKConfig+0xa0e>
    ret = RCCEx_PLL2_Config(&(PeriphClkInit->PLL2), DIVIDER_R_UPDATE);
 80a4b02:	2102      	movs	r1, #2
 80a4b04:	f104 0008 	add.w	r0, r4, #8
 80a4b08:	f7ff f9c4 	bl	80a3e94 <RCCEx_PLL2_Config>
    if (ret == HAL_OK)
 80a4b0c:	2800      	cmp	r0, #0
 80a4b0e:	d0d4      	beq.n	80a4aba <HAL_RCCEx_PeriphCLKConfig+0xa16>
      status = ret;
 80a4b10:	4606      	mov	r6, r0
 80a4b12:	e7d2      	b.n	80a4aba <HAL_RCCEx_PeriphCLKConfig+0xa16>
    ret = RCCEx_PLL3_Config(&(PeriphClkInit->PLL3), DIVIDER_P_UPDATE);
 80a4b14:	2100      	movs	r1, #0
 80a4b16:	f104 0028 	add.w	r0, r4, #40	@ 0x28
 80a4b1a:	f7ff fa3f 	bl	80a3f9c <RCCEx_PLL3_Config>
    if (ret == HAL_OK)
 80a4b1e:	2800      	cmp	r0, #0
 80a4b20:	d0cf      	beq.n	80a4ac2 <HAL_RCCEx_PeriphCLKConfig+0xa1e>
      status = ret;
 80a4b22:	4606      	mov	r6, r0
 80a4b24:	e7cd      	b.n	80a4ac2 <HAL_RCCEx_PeriphCLKConfig+0xa1e>
    ret = RCCEx_PLL3_Config(&(PeriphClkInit->PLL3), DIVIDER_Q_UPDATE);
 80a4b26:	2101      	movs	r1, #1
 80a4b28:	f104 0028 	add.w	r0, r4, #40	@ 0x28
 80a4b2c:	f7ff fa36 	bl	80a3f9c <RCCEx_PLL3_Config>
    if (ret == HAL_OK)
 80a4b30:	2800      	cmp	r0, #0
 80a4b32:	d0ca      	beq.n	80a4aca <HAL_RCCEx_PeriphCLKConfig+0xa26>
      status = ret;
 80a4b34:	4606      	mov	r6, r0
 80a4b36:	e7c8      	b.n	80a4aca <HAL_RCCEx_PeriphCLKConfig+0xa26>
    ret = RCCEx_PLL3_Config(&(PeriphClkInit->PLL3), DIVIDER_R_UPDATE);
 80a4b38:	2102      	movs	r1, #2
 80a4b3a:	f104 0028 	add.w	r0, r4, #40	@ 0x28
 80a4b3e:	f7ff fa2d 	bl	80a3f9c <RCCEx_PLL3_Config>
    if (ret == HAL_OK)
 80a4b42:	2800      	cmp	r0, #0
 80a4b44:	d0c5      	beq.n	80a4ad2 <HAL_RCCEx_PeriphCLKConfig+0xa2e>
  return HAL_ERROR;
 80a4b46:	2601      	movs	r6, #1
 80a4b48:	e7c5      	b.n	80a4ad6 <HAL_RCCEx_PeriphCLKConfig+0xa32>
 80a4b4a:	bf00      	nop
 80a4b4c:	58024400 	.word	0x58024400

080a4b50 <SPI_CloseTransfer>:
  * @retval HAL_ERROR: if any error detected
  *         HAL_OK: if nothing detected
  */
static void SPI_CloseTransfer(SPI_HandleTypeDef *hspi)
{
  uint32_t itflag = hspi->Instance->SR;
 80a4b50:	6803      	ldr	r3, [r0, #0]
 80a4b52:	695a      	ldr	r2, [r3, #20]

  __HAL_SPI_CLEAR_EOTFLAG(hspi);
 80a4b54:	6999      	ldr	r1, [r3, #24]
 80a4b56:	f041 0108 	orr.w	r1, r1, #8
 80a4b5a:	6199      	str	r1, [r3, #24]
  __HAL_SPI_CLEAR_TXTFFLAG(hspi);
 80a4b5c:	6801      	ldr	r1, [r0, #0]
 80a4b5e:	698b      	ldr	r3, [r1, #24]
 80a4b60:	f043 0310 	orr.w	r3, r3, #16
 80a4b64:	618b      	str	r3, [r1, #24]

  /* Disable SPI peripheral */
  __HAL_SPI_DISABLE(hspi);
 80a4b66:	6801      	ldr	r1, [r0, #0]
 80a4b68:	680b      	ldr	r3, [r1, #0]
 80a4b6a:	f023 0301 	bic.w	r3, r3, #1
 80a4b6e:	600b      	str	r3, [r1, #0]

  /* Disable ITs */
  __HAL_SPI_DISABLE_IT(hspi, (SPI_IT_EOT | SPI_IT_TXP | SPI_IT_RXP | SPI_IT_DXP | SPI_IT_UDR | SPI_IT_OVR | \
 80a4b70:	6801      	ldr	r1, [r0, #0]
 80a4b72:	690b      	ldr	r3, [r1, #16]
 80a4b74:	f423 735b 	bic.w	r3, r3, #876	@ 0x36c
 80a4b78:	f023 0303 	bic.w	r3, r3, #3
 80a4b7c:	610b      	str	r3, [r1, #16]
                              SPI_IT_FRE | SPI_IT_MODF));

  /* Disable Tx DMA Request */
  CLEAR_BIT(hspi->Instance->CFG1, SPI_CFG1_TXDMAEN | SPI_CFG1_RXDMAEN);
 80a4b7e:	6801      	ldr	r1, [r0, #0]
 80a4b80:	688b      	ldr	r3, [r1, #8]
 80a4b82:	f423 4340 	bic.w	r3, r3, #49152	@ 0xc000
 80a4b86:	608b      	str	r3, [r1, #8]

  /* Report UnderRun error for non RX Only communication */
  if (hspi->State != HAL_SPI_STATE_BUSY_RX)
 80a4b88:	f890 3081 	ldrb.w	r3, [r0, #129]	@ 0x81
 80a4b8c:	b2db      	uxtb	r3, r3
 80a4b8e:	2b04      	cmp	r3, #4
 80a4b90:	d00d      	beq.n	80a4bae <SPI_CloseTransfer+0x5e>
  {
    if ((itflag & SPI_FLAG_UDR) != 0UL)
 80a4b92:	f012 0f20 	tst.w	r2, #32
 80a4b96:	d00a      	beq.n	80a4bae <SPI_CloseTransfer+0x5e>
    {
      SET_BIT(hspi->ErrorCode, HAL_SPI_ERROR_UDR);
 80a4b98:	f8d0 3084 	ldr.w	r3, [r0, #132]	@ 0x84
 80a4b9c:	f043 0380 	orr.w	r3, r3, #128	@ 0x80
 80a4ba0:	f8c0 3084 	str.w	r3, [r0, #132]	@ 0x84
      __HAL_SPI_CLEAR_UDRFLAG(hspi);
 80a4ba4:	6801      	ldr	r1, [r0, #0]
 80a4ba6:	698b      	ldr	r3, [r1, #24]
 80a4ba8:	f043 0320 	orr.w	r3, r3, #32
 80a4bac:	618b      	str	r3, [r1, #24]
    }
  }

  /* Report OverRun error for non TX Only communication */
  if (hspi->State != HAL_SPI_STATE_BUSY_TX)
 80a4bae:	f890 3081 	ldrb.w	r3, [r0, #129]	@ 0x81
 80a4bb2:	b2db      	uxtb	r3, r3
 80a4bb4:	2b03      	cmp	r3, #3
 80a4bb6:	d00d      	beq.n	80a4bd4 <SPI_CloseTransfer+0x84>
  {
    if ((itflag & SPI_FLAG_OVR) != 0UL)
 80a4bb8:	f012 0f40 	tst.w	r2, #64	@ 0x40
 80a4bbc:	d00a      	beq.n	80a4bd4 <SPI_CloseTransfer+0x84>
    {
      SET_BIT(hspi->ErrorCode, HAL_SPI_ERROR_OVR);
 80a4bbe:	f8d0 3084 	ldr.w	r3, [r0, #132]	@ 0x84
 80a4bc2:	f043 0304 	orr.w	r3, r3, #4
 80a4bc6:	f8c0 3084 	str.w	r3, [r0, #132]	@ 0x84
      __HAL_SPI_CLEAR_OVRFLAG(hspi);
 80a4bca:	6801      	ldr	r1, [r0, #0]
 80a4bcc:	698b      	ldr	r3, [r1, #24]
 80a4bce:	f043 0340 	orr.w	r3, r3, #64	@ 0x40
 80a4bd2:	618b      	str	r3, [r1, #24]
    }
#endif /* USE_SPI_CRC */
  }

  /* SPI Mode Fault error interrupt occurred -------------------------------*/
  if ((itflag & SPI_FLAG_MODF) != 0UL)
 80a4bd4:	f412 7f00 	tst.w	r2, #512	@ 0x200
 80a4bd8:	d00a      	beq.n	80a4bf0 <SPI_CloseTransfer+0xa0>
  {
    SET_BIT(hspi->ErrorCode, HAL_SPI_ERROR_MODF);
 80a4bda:	f8d0 3084 	ldr.w	r3, [r0, #132]	@ 0x84
 80a4bde:	f043 0301 	orr.w	r3, r3, #1
 80a4be2:	f8c0 3084 	str.w	r3, [r0, #132]	@ 0x84
    __HAL_SPI_CLEAR_MODFFLAG(hspi);
 80a4be6:	6801      	ldr	r1, [r0, #0]
 80a4be8:	698b      	ldr	r3, [r1, #24]
 80a4bea:	f443 7300 	orr.w	r3, r3, #512	@ 0x200
 80a4bee:	618b      	str	r3, [r1, #24]
  }

  /* SPI Frame error interrupt occurred ------------------------------------*/
  if ((itflag & SPI_FLAG_FRE) != 0UL)
 80a4bf0:	f412 7f80 	tst.w	r2, #256	@ 0x100
 80a4bf4:	d00a      	beq.n	80a4c0c <SPI_CloseTransfer+0xbc>
  {
    SET_BIT(hspi->ErrorCode, HAL_SPI_ERROR_FRE);
 80a4bf6:	f8d0 3084 	ldr.w	r3, [r0, #132]	@ 0x84
 80a4bfa:	f043 0308 	orr.w	r3, r3, #8
 80a4bfe:	f8c0 3084 	str.w	r3, [r0, #132]	@ 0x84
    __HAL_SPI_CLEAR_FREFLAG(hspi);
 80a4c02:	6802      	ldr	r2, [r0, #0]
 80a4c04:	6993      	ldr	r3, [r2, #24]
 80a4c06:	f443 7380 	orr.w	r3, r3, #256	@ 0x100
 80a4c0a:	6193      	str	r3, [r2, #24]
  }

  hspi->TxXferCount = (uint16_t)0UL;
 80a4c0c:	2300      	movs	r3, #0
 80a4c0e:	f8a0 3062 	strh.w	r3, [r0, #98]	@ 0x62
  hspi->RxXferCount = (uint16_t)0UL;
 80a4c12:	f8a0 306a 	strh.w	r3, [r0, #106]	@ 0x6a
}
 80a4c16:	4770      	bx	lr

080a4c18 <SPI_GetPacketSize>:
  *               the configuration information for SPI module.
  * @retval Packet size occupied in the fifo
  */
static uint32_t SPI_GetPacketSize(const SPI_HandleTypeDef *hspi)
{
  uint32_t fifo_threashold = (hspi->Init.FifoThreshold >> SPI_CFG1_FTHLV_Pos) + 1UL;
 80a4c18:	6bc3      	ldr	r3, [r0, #60]	@ 0x3c
 80a4c1a:	095b      	lsrs	r3, r3, #5
  uint32_t data_size       = (hspi->Init.DataSize      >> SPI_CFG1_DSIZE_Pos) + 1UL;
 80a4c1c:	68c0      	ldr	r0, [r0, #12]

  /* Convert data size to Byte */
  data_size = (data_size + 7UL) / 8UL;
 80a4c1e:	3008      	adds	r0, #8
 80a4c20:	08c0      	lsrs	r0, r0, #3

  return data_size * fifo_threashold;
}
 80a4c22:	fb03 0000 	mla	r0, r3, r0, r0
 80a4c26:	4770      	bx	lr

080a4c28 <HAL_SPI_Init>:
  if (hspi == NULL)
 80a4c28:	2800      	cmp	r0, #0
 80a4c2a:	f000 80bd 	beq.w	80a4da8 <HAL_SPI_Init+0x180>
{
 80a4c2e:	b538      	push	{r3, r4, r5, lr}
 80a4c30:	4604      	mov	r4, r0
  hspi->Init.CRCCalculation = SPI_CRCCALCULATION_DISABLE;
 80a4c32:	2300      	movs	r3, #0
 80a4c34:	6283      	str	r3, [r0, #40]	@ 0x28
  if ((!IS_SPI_HIGHEND_INSTANCE(hspi->Instance)) && (hspi->Init.DataSize > SPI_DATASIZE_16BIT))
 80a4c36:	6805      	ldr	r5, [r0, #0]
 80a4c38:	4b5f      	ldr	r3, [pc, #380]	@ (80a4db8 <HAL_SPI_Init+0x190>)
 80a4c3a:	429d      	cmp	r5, r3
 80a4c3c:	d00b      	beq.n	80a4c56 <HAL_SPI_Init+0x2e>
 80a4c3e:	f5a3 4378 	sub.w	r3, r3, #63488	@ 0xf800
 80a4c42:	429d      	cmp	r5, r3
 80a4c44:	d007      	beq.n	80a4c56 <HAL_SPI_Init+0x2e>
 80a4c46:	f503 6380 	add.w	r3, r3, #1024	@ 0x400
 80a4c4a:	429d      	cmp	r5, r3
 80a4c4c:	d003      	beq.n	80a4c56 <HAL_SPI_Init+0x2e>
 80a4c4e:	68c3      	ldr	r3, [r0, #12]
 80a4c50:	2b0f      	cmp	r3, #15
 80a4c52:	f200 80ab 	bhi.w	80a4dac <HAL_SPI_Init+0x184>
  packet_length = SPI_GetPacketSize(hspi);
 80a4c56:	4620      	mov	r0, r4
 80a4c58:	f7ff ffde 	bl	80a4c18 <SPI_GetPacketSize>
  if (((!IS_SPI_HIGHEND_INSTANCE(hspi->Instance)) && (packet_length > SPI_LOWEND_FIFO_SIZE)) ||
 80a4c5c:	4b56      	ldr	r3, [pc, #344]	@ (80a4db8 <HAL_SPI_Init+0x190>)
 80a4c5e:	429d      	cmp	r5, r3
 80a4c60:	d00a      	beq.n	80a4c78 <HAL_SPI_Init+0x50>
 80a4c62:	f5a3 4378 	sub.w	r3, r3, #63488	@ 0xf800
 80a4c66:	429d      	cmp	r5, r3
 80a4c68:	d006      	beq.n	80a4c78 <HAL_SPI_Init+0x50>
 80a4c6a:	f503 6380 	add.w	r3, r3, #1024	@ 0x400
 80a4c6e:	429d      	cmp	r5, r3
 80a4c70:	d002      	beq.n	80a4c78 <HAL_SPI_Init+0x50>
 80a4c72:	2808      	cmp	r0, #8
 80a4c74:	f200 809c 	bhi.w	80a4db0 <HAL_SPI_Init+0x188>
 80a4c78:	4b4f      	ldr	r3, [pc, #316]	@ (80a4db8 <HAL_SPI_Init+0x190>)
 80a4c7a:	429d      	cmp	r5, r3
 80a4c7c:	d007      	beq.n	80a4c8e <HAL_SPI_Init+0x66>
      ((IS_SPI_HIGHEND_INSTANCE(hspi->Instance)) && (packet_length > SPI_HIGHEND_FIFO_SIZE)))
 80a4c7e:	f5a3 4378 	sub.w	r3, r3, #63488	@ 0xf800
 80a4c82:	429d      	cmp	r5, r3
 80a4c84:	d003      	beq.n	80a4c8e <HAL_SPI_Init+0x66>
 80a4c86:	f503 6380 	add.w	r3, r3, #1024	@ 0x400
 80a4c8a:	429d      	cmp	r5, r3
 80a4c8c:	d102      	bne.n	80a4c94 <HAL_SPI_Init+0x6c>
 80a4c8e:	2810      	cmp	r0, #16
 80a4c90:	f200 8090 	bhi.w	80a4db4 <HAL_SPI_Init+0x18c>
  if (hspi->State == HAL_SPI_STATE_RESET)
 80a4c94:	f894 3081 	ldrb.w	r3, [r4, #129]	@ 0x81
 80a4c98:	b1f3      	cbz	r3, 80a4cd8 <HAL_SPI_Init+0xb0>
  hspi->State = HAL_SPI_STATE_BUSY;
 80a4c9a:	2302      	movs	r3, #2
 80a4c9c:	f884 3081 	strb.w	r3, [r4, #129]	@ 0x81
  __HAL_SPI_DISABLE(hspi);
 80a4ca0:	6822      	ldr	r2, [r4, #0]
 80a4ca2:	6813      	ldr	r3, [r2, #0]
 80a4ca4:	f023 0301 	bic.w	r3, r3, #1
 80a4ca8:	6013      	str	r3, [r2, #0]
  crc_length = hspi->Instance->CFG1 & SPI_CFG1_CRCSIZE;
 80a4caa:	6823      	ldr	r3, [r4, #0]
 80a4cac:	689a      	ldr	r2, [r3, #8]
 80a4cae:	f402 12f8 	and.w	r2, r2, #2031616	@ 0x1f0000
  if ((hspi->Init.NSS == SPI_NSS_SOFT) && (((hspi->Init.Mode == SPI_MODE_MASTER) &&  \
 80a4cb2:	69a1      	ldr	r1, [r4, #24]
 80a4cb4:	f1b1 6f80 	cmp.w	r1, #67108864	@ 0x4000000
 80a4cb8:	d014      	beq.n	80a4ce4 <HAL_SPI_Init+0xbc>
  if (((hspi->Init.Mode & SPI_MODE_MASTER) == SPI_MODE_MASTER) && (hspi->Init.DataSize >= SPI_DATASIZE_8BIT))
 80a4cba:	6863      	ldr	r3, [r4, #4]
 80a4cbc:	f413 0f80 	tst.w	r3, #4194304	@ 0x400000
 80a4cc0:	d023      	beq.n	80a4d0a <HAL_SPI_Init+0xe2>
 80a4cc2:	68e3      	ldr	r3, [r4, #12]
 80a4cc4:	2b06      	cmp	r3, #6
 80a4cc6:	d920      	bls.n	80a4d0a <HAL_SPI_Init+0xe2>
    MODIFY_REG(hspi->Instance->CR1, SPI_CR1_MASRX, hspi->Init.MasterReceiverAutoSusp);
 80a4cc8:	6821      	ldr	r1, [r4, #0]
 80a4cca:	680b      	ldr	r3, [r1, #0]
 80a4ccc:	f423 7380 	bic.w	r3, r3, #256	@ 0x100
 80a4cd0:	6d20      	ldr	r0, [r4, #80]	@ 0x50
 80a4cd2:	4303      	orrs	r3, r0
 80a4cd4:	600b      	str	r3, [r1, #0]
 80a4cd6:	e01d      	b.n	80a4d14 <HAL_SPI_Init+0xec>
    hspi->Lock = HAL_UNLOCKED;
 80a4cd8:	f884 3080 	strb.w	r3, [r4, #128]	@ 0x80
    HAL_SPI_MspInit(hspi);
 80a4cdc:	4620      	mov	r0, r4
 80a4cde:	f7fc fb99 	bl	80a1414 <HAL_SPI_MspInit>
 80a4ce2:	e7da      	b.n	80a4c9a <HAL_SPI_Init+0x72>
  if ((hspi->Init.NSS == SPI_NSS_SOFT) && (((hspi->Init.Mode == SPI_MODE_MASTER) &&  \
 80a4ce4:	6861      	ldr	r1, [r4, #4]
 80a4ce6:	f5b1 0f80 	cmp.w	r1, #4194304	@ 0x400000
 80a4cea:	d006      	beq.n	80a4cfa <HAL_SPI_Init+0xd2>
                                            (hspi->Init.NSSPolarity == SPI_NSS_POLARITY_LOW)) || \
 80a4cec:	2900      	cmp	r1, #0
 80a4cee:	d1e4      	bne.n	80a4cba <HAL_SPI_Init+0x92>
                                            (hspi->Init.NSSPolarity == SPI_NSS_POLARITY_HIGH))))
 80a4cf0:	6ba1      	ldr	r1, [r4, #56]	@ 0x38
                                           ((hspi->Init.Mode == SPI_MODE_SLAVE) && \
 80a4cf2:	f1b1 5f80 	cmp.w	r1, #268435456	@ 0x10000000
 80a4cf6:	d1e0      	bne.n	80a4cba <HAL_SPI_Init+0x92>
 80a4cf8:	e002      	b.n	80a4d00 <HAL_SPI_Init+0xd8>
                                            (hspi->Init.NSSPolarity == SPI_NSS_POLARITY_LOW)) || \
 80a4cfa:	6ba0      	ldr	r0, [r4, #56]	@ 0x38
  if ((hspi->Init.NSS == SPI_NSS_SOFT) && (((hspi->Init.Mode == SPI_MODE_MASTER) &&  \
 80a4cfc:	2800      	cmp	r0, #0
 80a4cfe:	d1f5      	bne.n	80a4cec <HAL_SPI_Init+0xc4>
    SET_BIT(hspi->Instance->CR1, SPI_CR1_SSI);
 80a4d00:	6819      	ldr	r1, [r3, #0]
 80a4d02:	f441 5180 	orr.w	r1, r1, #4096	@ 0x1000
 80a4d06:	6019      	str	r1, [r3, #0]
 80a4d08:	e7d7      	b.n	80a4cba <HAL_SPI_Init+0x92>
    CLEAR_BIT(hspi->Instance->CR1, SPI_CR1_MASRX);
 80a4d0a:	6821      	ldr	r1, [r4, #0]
 80a4d0c:	680b      	ldr	r3, [r1, #0]
 80a4d0e:	f423 7380 	bic.w	r3, r3, #256	@ 0x100
 80a4d12:	600b      	str	r3, [r1, #0]
  WRITE_REG(hspi->Instance->CFG1, (hspi->Init.BaudRatePrescaler | hspi->Init.CRCCalculation | crc_length |
 80a4d14:	69e3      	ldr	r3, [r4, #28]
 80a4d16:	6aa1      	ldr	r1, [r4, #40]	@ 0x28
 80a4d18:	430b      	orrs	r3, r1
 80a4d1a:	4313      	orrs	r3, r2
 80a4d1c:	6be2      	ldr	r2, [r4, #60]	@ 0x3c
 80a4d1e:	4313      	orrs	r3, r2
 80a4d20:	68e1      	ldr	r1, [r4, #12]
 80a4d22:	6822      	ldr	r2, [r4, #0]
 80a4d24:	430b      	orrs	r3, r1
 80a4d26:	6093      	str	r3, [r2, #8]
  WRITE_REG(hspi->Instance->CFG2, (hspi->Init.NSSPMode                | hspi->Init.TIMode    |
 80a4d28:	6b63      	ldr	r3, [r4, #52]	@ 0x34
 80a4d2a:	6a62      	ldr	r2, [r4, #36]	@ 0x24
 80a4d2c:	4313      	orrs	r3, r2
 80a4d2e:	6ba2      	ldr	r2, [r4, #56]	@ 0x38
 80a4d30:	4313      	orrs	r3, r2
 80a4d32:	69a2      	ldr	r2, [r4, #24]
 80a4d34:	4313      	orrs	r3, r2
 80a4d36:	6922      	ldr	r2, [r4, #16]
 80a4d38:	4313      	orrs	r3, r2
 80a4d3a:	6962      	ldr	r2, [r4, #20]
 80a4d3c:	4313      	orrs	r3, r2
 80a4d3e:	6a22      	ldr	r2, [r4, #32]
 80a4d40:	4313      	orrs	r3, r2
 80a4d42:	6862      	ldr	r2, [r4, #4]
 80a4d44:	4313      	orrs	r3, r2
 80a4d46:	6ce2      	ldr	r2, [r4, #76]	@ 0x4c
 80a4d48:	4313      	orrs	r3, r2
 80a4d4a:	68a2      	ldr	r2, [r4, #8]
 80a4d4c:	4313      	orrs	r3, r2
 80a4d4e:	6ca2      	ldr	r2, [r4, #72]	@ 0x48
 80a4d50:	4313      	orrs	r3, r2
 80a4d52:	6da1      	ldr	r1, [r4, #88]	@ 0x58
 80a4d54:	6822      	ldr	r2, [r4, #0]
 80a4d56:	430b      	orrs	r3, r1
 80a4d58:	60d3      	str	r3, [r2, #12]
  if (hspi->Init.Mode == SPI_MODE_SLAVE)
 80a4d5a:	6863      	ldr	r3, [r4, #4]
 80a4d5c:	b96b      	cbnz	r3, 80a4d7a <HAL_SPI_Init+0x152>
      MODIFY_REG(hspi->Instance->CFG1, SPI_CFG1_UDRDET, SPI_CFG1_UDRDET_0);
 80a4d5e:	6822      	ldr	r2, [r4, #0]
 80a4d60:	6893      	ldr	r3, [r2, #8]
 80a4d62:	f423 53c0 	bic.w	r3, r3, #6144	@ 0x1800
 80a4d66:	f443 6300 	orr.w	r3, r3, #2048	@ 0x800
 80a4d6a:	6093      	str	r3, [r2, #8]
    MODIFY_REG(hspi->Instance->CFG1, SPI_CFG1_UDRCFG, SPI_CFG1_UDRCFG_1);
 80a4d6c:	6822      	ldr	r2, [r4, #0]
 80a4d6e:	6893      	ldr	r3, [r2, #8]
 80a4d70:	f423 63c0 	bic.w	r3, r3, #1536	@ 0x600
 80a4d74:	f443 6380 	orr.w	r3, r3, #1024	@ 0x400
 80a4d78:	6093      	str	r3, [r2, #8]
  CLEAR_BIT(hspi->Instance->I2SCFGR, SPI_I2SCFGR_I2SMOD);
 80a4d7a:	6822      	ldr	r2, [r4, #0]
 80a4d7c:	6d13      	ldr	r3, [r2, #80]	@ 0x50
 80a4d7e:	f023 0301 	bic.w	r3, r3, #1
 80a4d82:	6513      	str	r3, [r2, #80]	@ 0x50
  if ((hspi->Init.Mode & SPI_MODE_MASTER) == SPI_MODE_MASTER)
 80a4d84:	6863      	ldr	r3, [r4, #4]
 80a4d86:	f413 0f80 	tst.w	r3, #4194304	@ 0x400000
 80a4d8a:	d006      	beq.n	80a4d9a <HAL_SPI_Init+0x172>
    MODIFY_REG(hspi->Instance->CFG2, SPI_CFG2_AFCNTR, (hspi->Init.MasterKeepIOState));
 80a4d8c:	6822      	ldr	r2, [r4, #0]
 80a4d8e:	68d3      	ldr	r3, [r2, #12]
 80a4d90:	f023 4300 	bic.w	r3, r3, #2147483648	@ 0x80000000
 80a4d94:	6d61      	ldr	r1, [r4, #84]	@ 0x54
 80a4d96:	430b      	orrs	r3, r1
 80a4d98:	60d3      	str	r3, [r2, #12]
  hspi->ErrorCode = HAL_SPI_ERROR_NONE;
 80a4d9a:	2000      	movs	r0, #0
 80a4d9c:	f8c4 0084 	str.w	r0, [r4, #132]	@ 0x84
  hspi->State     = HAL_SPI_STATE_READY;
 80a4da0:	2301      	movs	r3, #1
 80a4da2:	f884 3081 	strb.w	r3, [r4, #129]	@ 0x81
}
 80a4da6:	bd38      	pop	{r3, r4, r5, pc}
    return HAL_ERROR;
 80a4da8:	2001      	movs	r0, #1
}
 80a4daa:	4770      	bx	lr
    return HAL_ERROR;
 80a4dac:	2001      	movs	r0, #1
 80a4dae:	e7fa      	b.n	80a4da6 <HAL_SPI_Init+0x17e>
    return HAL_ERROR;
 80a4db0:	2001      	movs	r0, #1
 80a4db2:	e7f8      	b.n	80a4da6 <HAL_SPI_Init+0x17e>
 80a4db4:	2001      	movs	r0, #1
 80a4db6:	e7f6      	b.n	80a4da6 <HAL_SPI_Init+0x17e>
 80a4db8:	40013000 	.word	0x40013000

080a4dbc <HAL_SPI_TransmitReceive_DMA>:
{
 80a4dbc:	b570      	push	{r4, r5, r6, lr}
  if (hspi->State != HAL_SPI_STATE_READY)
 80a4dbe:	f890 5081 	ldrb.w	r5, [r0, #129]	@ 0x81
 80a4dc2:	b2ed      	uxtb	r5, r5
 80a4dc4:	2d01      	cmp	r5, #1
 80a4dc6:	f040 811f 	bne.w	80a5008 <HAL_SPI_TransmitReceive_DMA+0x24c>
 80a4dca:	4604      	mov	r4, r0
 80a4dcc:	461e      	mov	r6, r3
  if ((pTxData == NULL) || (pRxData == NULL) || (Size == 0UL))
 80a4dce:	2900      	cmp	r1, #0
 80a4dd0:	f000 811b 	beq.w	80a500a <HAL_SPI_TransmitReceive_DMA+0x24e>
 80a4dd4:	2a00      	cmp	r2, #0
 80a4dd6:	f000 8118 	beq.w	80a500a <HAL_SPI_TransmitReceive_DMA+0x24e>
 80a4dda:	2b00      	cmp	r3, #0
 80a4ddc:	f000 8115 	beq.w	80a500a <HAL_SPI_TransmitReceive_DMA+0x24e>
  __HAL_LOCK(hspi);
 80a4de0:	f890 3080 	ldrb.w	r3, [r0, #128]	@ 0x80
 80a4de4:	2b01      	cmp	r3, #1
 80a4de6:	f000 8112 	beq.w	80a500e <HAL_SPI_TransmitReceive_DMA+0x252>
 80a4dea:	2301      	movs	r3, #1
 80a4dec:	f880 3080 	strb.w	r3, [r0, #128]	@ 0x80
  hspi->State       = HAL_SPI_STATE_BUSY_TX_RX;
 80a4df0:	2305      	movs	r3, #5
 80a4df2:	f880 3081 	strb.w	r3, [r0, #129]	@ 0x81
  hspi->ErrorCode   = HAL_SPI_ERROR_NONE;
 80a4df6:	2300      	movs	r3, #0
 80a4df8:	f8c0 3084 	str.w	r3, [r0, #132]	@ 0x84
  hspi->pTxBuffPtr  = (const uint8_t *)pTxData;
 80a4dfc:	65c1      	str	r1, [r0, #92]	@ 0x5c
  hspi->TxXferSize  = Size;
 80a4dfe:	f8a0 6060 	strh.w	r6, [r0, #96]	@ 0x60
  hspi->TxXferCount = Size;
 80a4e02:	f8a0 6062 	strh.w	r6, [r0, #98]	@ 0x62
  hspi->pRxBuffPtr  = (uint8_t *)pRxData;
 80a4e06:	6642      	str	r2, [r0, #100]	@ 0x64
  hspi->RxXferSize  = Size;
 80a4e08:	f8a0 6068 	strh.w	r6, [r0, #104]	@ 0x68
  hspi->RxXferCount = Size;
 80a4e0c:	f8a0 606a 	strh.w	r6, [r0, #106]	@ 0x6a
  hspi->RxISR       = NULL;
 80a4e10:	6703      	str	r3, [r0, #112]	@ 0x70
  hspi->TxISR       = NULL;
 80a4e12:	6743      	str	r3, [r0, #116]	@ 0x74
  SPI_2LINES(hspi);
 80a4e14:	6802      	ldr	r2, [r0, #0]
 80a4e16:	68d3      	ldr	r3, [r2, #12]
 80a4e18:	f423 23c0 	bic.w	r3, r3, #393216	@ 0x60000
 80a4e1c:	60d3      	str	r3, [r2, #12]
  CLEAR_BIT(hspi->Instance->CFG1, SPI_CFG1_TXDMAEN | SPI_CFG1_RXDMAEN);
 80a4e1e:	6802      	ldr	r2, [r0, #0]
 80a4e20:	6893      	ldr	r3, [r2, #8]
 80a4e22:	f423 4340 	bic.w	r3, r3, #49152	@ 0xc000
 80a4e26:	6093      	str	r3, [r2, #8]
  if (((hspi->Init.DataSize > SPI_DATASIZE_16BIT) && \
 80a4e28:	68c3      	ldr	r3, [r0, #12]
 80a4e2a:	2b0f      	cmp	r3, #15
 80a4e2c:	d909      	bls.n	80a4e42 <HAL_SPI_TransmitReceive_DMA+0x86>
       ((hspi->hdmarx->Init.MemDataAlignment != DMA_MDATAALIGN_WORD) || \
 80a4e2e:	6fc2      	ldr	r2, [r0, #124]	@ 0x7c
 80a4e30:	6992      	ldr	r2, [r2, #24]
  if (((hspi->Init.DataSize > SPI_DATASIZE_16BIT) && \
 80a4e32:	f5b2 4f80 	cmp.w	r2, #16384	@ 0x4000
 80a4e36:	d116      	bne.n	80a4e66 <HAL_SPI_TransmitReceive_DMA+0xaa>
        (hspi->hdmatx->Init.MemDataAlignment != DMA_MDATAALIGN_WORD))) || \
 80a4e38:	6f82      	ldr	r2, [r0, #120]	@ 0x78
 80a4e3a:	6992      	ldr	r2, [r2, #24]
       ((hspi->hdmarx->Init.MemDataAlignment != DMA_MDATAALIGN_WORD) || \
 80a4e3c:	f5b2 4f80 	cmp.w	r2, #16384	@ 0x4000
 80a4e40:	d111      	bne.n	80a4e66 <HAL_SPI_TransmitReceive_DMA+0xaa>
        (hspi->hdmatx->Init.MemDataAlignment != DMA_MDATAALIGN_WORD))) || \
 80a4e42:	2b07      	cmp	r3, #7
 80a4e44:	d913      	bls.n	80a4e6e <HAL_SPI_TransmitReceive_DMA+0xb2>
       (((hspi->hdmarx->Init.MemDataAlignment != DMA_MDATAALIGN_HALFWORD) && \
 80a4e46:	6fe2      	ldr	r2, [r4, #124]	@ 0x7c
 80a4e48:	6992      	ldr	r2, [r2, #24]
      ((hspi->Init.DataSize > SPI_DATASIZE_8BIT) && \
 80a4e4a:	f5b2 5f00 	cmp.w	r2, #8192	@ 0x2000
 80a4e4e:	d002      	beq.n	80a4e56 <HAL_SPI_TransmitReceive_DMA+0x9a>
       (((hspi->hdmarx->Init.MemDataAlignment != DMA_MDATAALIGN_HALFWORD) && \
 80a4e50:	f5b2 4f80 	cmp.w	r2, #16384	@ 0x4000
 80a4e54:	d107      	bne.n	80a4e66 <HAL_SPI_TransmitReceive_DMA+0xaa>
        ((hspi->hdmatx->Init.MemDataAlignment != DMA_MDATAALIGN_HALFWORD) && \
 80a4e56:	6fa2      	ldr	r2, [r4, #120]	@ 0x78
 80a4e58:	6992      	ldr	r2, [r2, #24]
         (hspi->hdmarx->Init.MemDataAlignment != DMA_MDATAALIGN_WORD)) || \
 80a4e5a:	f5b2 5f00 	cmp.w	r2, #8192	@ 0x2000
 80a4e5e:	d006      	beq.n	80a4e6e <HAL_SPI_TransmitReceive_DMA+0xb2>
        ((hspi->hdmatx->Init.MemDataAlignment != DMA_MDATAALIGN_HALFWORD) && \
 80a4e60:	f5b2 4f80 	cmp.w	r2, #16384	@ 0x4000
 80a4e64:	d003      	beq.n	80a4e6e <HAL_SPI_TransmitReceive_DMA+0xb2>
    __HAL_UNLOCK(hspi);
 80a4e66:	2300      	movs	r3, #0
 80a4e68:	f884 3080 	strb.w	r3, [r4, #128]	@ 0x80
    return HAL_ERROR;
 80a4e6c:	e0cd      	b.n	80a500a <HAL_SPI_TransmitReceive_DMA+0x24e>
  if (hspi->Init.DataSize <= SPI_DATASIZE_8BIT)
 80a4e6e:	2b07      	cmp	r3, #7
 80a4e70:	d855      	bhi.n	80a4f1e <HAL_SPI_TransmitReceive_DMA+0x162>
    if (hspi->hdmatx->Init.MemDataAlignment == DMA_MDATAALIGN_HALFWORD)
 80a4e72:	6fa3      	ldr	r3, [r4, #120]	@ 0x78
 80a4e74:	699a      	ldr	r2, [r3, #24]
 80a4e76:	f5b2 5f00 	cmp.w	r2, #8192	@ 0x2000
 80a4e7a:	d030      	beq.n	80a4ede <HAL_SPI_TransmitReceive_DMA+0x122>
    if (hspi->hdmatx->Init.MemDataAlignment == DMA_MDATAALIGN_WORD)
 80a4e7c:	699b      	ldr	r3, [r3, #24]
 80a4e7e:	f5b3 4f80 	cmp.w	r3, #16384	@ 0x4000
 80a4e82:	d034      	beq.n	80a4eee <HAL_SPI_TransmitReceive_DMA+0x132>
    if (hspi->hdmarx->Init.MemDataAlignment == DMA_MDATAALIGN_HALFWORD)
 80a4e84:	6fe3      	ldr	r3, [r4, #124]	@ 0x7c
 80a4e86:	699a      	ldr	r2, [r3, #24]
 80a4e88:	f5b2 5f00 	cmp.w	r2, #8192	@ 0x2000
 80a4e8c:	d037      	beq.n	80a4efe <HAL_SPI_TransmitReceive_DMA+0x142>
    if (hspi->hdmarx->Init.MemDataAlignment == DMA_MDATAALIGN_WORD)
 80a4e8e:	699b      	ldr	r3, [r3, #24]
 80a4e90:	f5b3 4f80 	cmp.w	r3, #16384	@ 0x4000
 80a4e94:	d03b      	beq.n	80a4f0e <HAL_SPI_TransmitReceive_DMA+0x152>
  hspi->hdmarx->XferHalfCpltCallback = SPI_DMAHalfTransmitReceiveCplt;
 80a4e96:	6fe3      	ldr	r3, [r4, #124]	@ 0x7c
 80a4e98:	4a5e      	ldr	r2, [pc, #376]	@ (80a5014 <HAL_SPI_TransmitReceive_DMA+0x258>)
 80a4e9a:	641a      	str	r2, [r3, #64]	@ 0x40
  hspi->hdmarx->XferCpltCallback     = SPI_DMATransmitReceiveCplt;
 80a4e9c:	6fe3      	ldr	r3, [r4, #124]	@ 0x7c
 80a4e9e:	4a5e      	ldr	r2, [pc, #376]	@ (80a5018 <HAL_SPI_TransmitReceive_DMA+0x25c>)
 80a4ea0:	63da      	str	r2, [r3, #60]	@ 0x3c
  hspi->hdmarx->XferErrorCallback = SPI_DMAError;
 80a4ea2:	6fe3      	ldr	r3, [r4, #124]	@ 0x7c
 80a4ea4:	4a5d      	ldr	r2, [pc, #372]	@ (80a501c <HAL_SPI_TransmitReceive_DMA+0x260>)
 80a4ea6:	64da      	str	r2, [r3, #76]	@ 0x4c
  hspi->hdmarx->XferAbortCallback = NULL;
 80a4ea8:	6fe3      	ldr	r3, [r4, #124]	@ 0x7c
 80a4eaa:	2200      	movs	r2, #0
 80a4eac:	651a      	str	r2, [r3, #80]	@ 0x50
  if (HAL_OK != HAL_DMA_Start_IT(hspi->hdmarx, (uint32_t)&hspi->Instance->RXDR, (uint32_t)hspi->pRxBuffPtr,
 80a4eae:	6821      	ldr	r1, [r4, #0]
                                 hspi->RxXferCount))
 80a4eb0:	f8b4 306a 	ldrh.w	r3, [r4, #106]	@ 0x6a
  if (HAL_OK != HAL_DMA_Start_IT(hspi->hdmarx, (uint32_t)&hspi->Instance->RXDR, (uint32_t)hspi->pRxBuffPtr,
 80a4eb4:	b29b      	uxth	r3, r3
 80a4eb6:	6e62      	ldr	r2, [r4, #100]	@ 0x64
 80a4eb8:	3130      	adds	r1, #48	@ 0x30
 80a4eba:	6fe0      	ldr	r0, [r4, #124]	@ 0x7c
 80a4ebc:	f7fd f9ba 	bl	80a2234 <HAL_DMA_Start_IT>
 80a4ec0:	2800      	cmp	r0, #0
 80a4ec2:	d048      	beq.n	80a4f56 <HAL_SPI_TransmitReceive_DMA+0x19a>
    SET_BIT(hspi->ErrorCode, HAL_SPI_ERROR_DMA);
 80a4ec4:	f8d4 3084 	ldr.w	r3, [r4, #132]	@ 0x84
 80a4ec8:	f043 0310 	orr.w	r3, r3, #16
 80a4ecc:	f8c4 3084 	str.w	r3, [r4, #132]	@ 0x84
    hspi->State = HAL_SPI_STATE_READY;
 80a4ed0:	2301      	movs	r3, #1
 80a4ed2:	f884 3081 	strb.w	r3, [r4, #129]	@ 0x81
    __HAL_UNLOCK(hspi);
 80a4ed6:	2300      	movs	r3, #0
 80a4ed8:	f884 3080 	strb.w	r3, [r4, #128]	@ 0x80
    return HAL_ERROR;
 80a4edc:	e095      	b.n	80a500a <HAL_SPI_TransmitReceive_DMA+0x24e>
      hspi->TxXferCount = (hspi->TxXferCount + (uint16_t) 1UL) >> 1UL;
 80a4ede:	f8b4 2062 	ldrh.w	r2, [r4, #98]	@ 0x62
 80a4ee2:	b292      	uxth	r2, r2
 80a4ee4:	3201      	adds	r2, #1
 80a4ee6:	0852      	lsrs	r2, r2, #1
 80a4ee8:	f8a4 2062 	strh.w	r2, [r4, #98]	@ 0x62
 80a4eec:	e7c6      	b.n	80a4e7c <HAL_SPI_TransmitReceive_DMA+0xc0>
      hspi->TxXferCount = (hspi->TxXferCount + (uint16_t) 3UL) >> 2UL;
 80a4eee:	f8b4 3062 	ldrh.w	r3, [r4, #98]	@ 0x62
 80a4ef2:	b29b      	uxth	r3, r3
 80a4ef4:	3303      	adds	r3, #3
 80a4ef6:	089b      	lsrs	r3, r3, #2
 80a4ef8:	f8a4 3062 	strh.w	r3, [r4, #98]	@ 0x62
 80a4efc:	e7c2      	b.n	80a4e84 <HAL_SPI_TransmitReceive_DMA+0xc8>
      hspi->RxXferCount = (hspi->RxXferCount + (uint16_t) 1UL) >> 1UL;
 80a4efe:	f8b4 206a 	ldrh.w	r2, [r4, #106]	@ 0x6a
 80a4f02:	b292      	uxth	r2, r2
 80a4f04:	3201      	adds	r2, #1
 80a4f06:	0852      	lsrs	r2, r2, #1
 80a4f08:	f8a4 206a 	strh.w	r2, [r4, #106]	@ 0x6a
 80a4f0c:	e7bf      	b.n	80a4e8e <HAL_SPI_TransmitReceive_DMA+0xd2>
      hspi->RxXferCount = (hspi->RxXferCount + (uint16_t) 3UL) >> 2UL;
 80a4f0e:	f8b4 306a 	ldrh.w	r3, [r4, #106]	@ 0x6a
 80a4f12:	b29b      	uxth	r3, r3
 80a4f14:	3303      	adds	r3, #3
 80a4f16:	089b      	lsrs	r3, r3, #2
 80a4f18:	f8a4 306a 	strh.w	r3, [r4, #106]	@ 0x6a
 80a4f1c:	e7bb      	b.n	80a4e96 <HAL_SPI_TransmitReceive_DMA+0xda>
  else if (hspi->Init.DataSize <= SPI_DATASIZE_16BIT)
 80a4f1e:	2b0f      	cmp	r3, #15
 80a4f20:	d8b9      	bhi.n	80a4e96 <HAL_SPI_TransmitReceive_DMA+0xda>
    if (hspi->hdmatx->Init.MemDataAlignment == DMA_MDATAALIGN_WORD)
 80a4f22:	6fa3      	ldr	r3, [r4, #120]	@ 0x78
 80a4f24:	699b      	ldr	r3, [r3, #24]
 80a4f26:	f5b3 4f80 	cmp.w	r3, #16384	@ 0x4000
 80a4f2a:	d00c      	beq.n	80a4f46 <HAL_SPI_TransmitReceive_DMA+0x18a>
    if (hspi->hdmarx->Init.MemDataAlignment == DMA_MDATAALIGN_WORD)
 80a4f2c:	6fe3      	ldr	r3, [r4, #124]	@ 0x7c
 80a4f2e:	699b      	ldr	r3, [r3, #24]
 80a4f30:	f5b3 4f80 	cmp.w	r3, #16384	@ 0x4000
 80a4f34:	d1af      	bne.n	80a4e96 <HAL_SPI_TransmitReceive_DMA+0xda>
      hspi->RxXferCount = (hspi->RxXferCount + (uint16_t) 1UL) >> 1UL;
 80a4f36:	f8b4 306a 	ldrh.w	r3, [r4, #106]	@ 0x6a
 80a4f3a:	b29b      	uxth	r3, r3
 80a4f3c:	3301      	adds	r3, #1
 80a4f3e:	085b      	lsrs	r3, r3, #1
 80a4f40:	f8a4 306a 	strh.w	r3, [r4, #106]	@ 0x6a
 80a4f44:	e7a7      	b.n	80a4e96 <HAL_SPI_TransmitReceive_DMA+0xda>
      hspi->TxXferCount = (hspi->TxXferCount + (uint16_t) 1UL) >> 1UL;
 80a4f46:	f8b4 3062 	ldrh.w	r3, [r4, #98]	@ 0x62
 80a4f4a:	b29b      	uxth	r3, r3
 80a4f4c:	3301      	adds	r3, #1
 80a4f4e:	085b      	lsrs	r3, r3, #1
 80a4f50:	f8a4 3062 	strh.w	r3, [r4, #98]	@ 0x62
 80a4f54:	e7ea      	b.n	80a4f2c <HAL_SPI_TransmitReceive_DMA+0x170>
  SET_BIT(hspi->Instance->CFG1, SPI_CFG1_RXDMAEN);
 80a4f56:	6822      	ldr	r2, [r4, #0]
 80a4f58:	6893      	ldr	r3, [r2, #8]
 80a4f5a:	f443 4380 	orr.w	r3, r3, #16384	@ 0x4000
 80a4f5e:	6093      	str	r3, [r2, #8]
  hspi->hdmatx->XferHalfCpltCallback = NULL;
 80a4f60:	6fa2      	ldr	r2, [r4, #120]	@ 0x78
 80a4f62:	2300      	movs	r3, #0
 80a4f64:	6413      	str	r3, [r2, #64]	@ 0x40
  hspi->hdmatx->XferCpltCallback     = NULL;
 80a4f66:	6fa2      	ldr	r2, [r4, #120]	@ 0x78
 80a4f68:	63d3      	str	r3, [r2, #60]	@ 0x3c
  hspi->hdmatx->XferAbortCallback    = NULL;
 80a4f6a:	6fa2      	ldr	r2, [r4, #120]	@ 0x78
 80a4f6c:	6513      	str	r3, [r2, #80]	@ 0x50
  hspi->hdmatx->XferErrorCallback    = SPI_DMAError;
 80a4f6e:	6fa3      	ldr	r3, [r4, #120]	@ 0x78
 80a4f70:	4a2a      	ldr	r2, [pc, #168]	@ (80a501c <HAL_SPI_TransmitReceive_DMA+0x260>)
 80a4f72:	64da      	str	r2, [r3, #76]	@ 0x4c
  if (HAL_OK != HAL_DMA_Start_IT(hspi->hdmatx, (uint32_t)hspi->pTxBuffPtr, (uint32_t)&hspi->Instance->TXDR,
 80a4f74:	6822      	ldr	r2, [r4, #0]
                                 hspi->TxXferCount))
 80a4f76:	f8b4 3062 	ldrh.w	r3, [r4, #98]	@ 0x62
  if (HAL_OK != HAL_DMA_Start_IT(hspi->hdmatx, (uint32_t)hspi->pTxBuffPtr, (uint32_t)&hspi->Instance->TXDR,
 80a4f7a:	b29b      	uxth	r3, r3
 80a4f7c:	3220      	adds	r2, #32
 80a4f7e:	6de1      	ldr	r1, [r4, #92]	@ 0x5c
 80a4f80:	6fa0      	ldr	r0, [r4, #120]	@ 0x78
 80a4f82:	f7fd f957 	bl	80a2234 <HAL_DMA_Start_IT>
 80a4f86:	4601      	mov	r1, r0
 80a4f88:	bb10      	cbnz	r0, 80a4fd0 <HAL_SPI_TransmitReceive_DMA+0x214>
  if (hspi->hdmatx->Init.Mode == DMA_CIRCULAR)
 80a4f8a:	6fa3      	ldr	r3, [r4, #120]	@ 0x78
 80a4f8c:	69db      	ldr	r3, [r3, #28]
 80a4f8e:	f5b3 7f80 	cmp.w	r3, #256	@ 0x100
 80a4f92:	d02d      	beq.n	80a4ff0 <HAL_SPI_TransmitReceive_DMA+0x234>
    MODIFY_REG(hspi->Instance->CR2, SPI_CR2_TSIZE, Size);
 80a4f94:	6822      	ldr	r2, [r4, #0]
 80a4f96:	6853      	ldr	r3, [r2, #4]
 80a4f98:	f36f 030f 	bfc	r3, #0, #16
 80a4f9c:	4333      	orrs	r3, r6
 80a4f9e:	6053      	str	r3, [r2, #4]
  SET_BIT(hspi->Instance->CFG1, SPI_CFG1_TXDMAEN);
 80a4fa0:	6822      	ldr	r2, [r4, #0]
 80a4fa2:	6893      	ldr	r3, [r2, #8]
 80a4fa4:	f443 4300 	orr.w	r3, r3, #32768	@ 0x8000
 80a4fa8:	6093      	str	r3, [r2, #8]
  __HAL_SPI_ENABLE_IT(hspi, (SPI_IT_OVR | SPI_IT_UDR | SPI_IT_FRE | SPI_IT_MODF));
 80a4faa:	6822      	ldr	r2, [r4, #0]
 80a4fac:	6913      	ldr	r3, [r2, #16]
 80a4fae:	f443 7358 	orr.w	r3, r3, #864	@ 0x360
 80a4fb2:	6113      	str	r3, [r2, #16]
  __HAL_SPI_ENABLE(hspi);
 80a4fb4:	6822      	ldr	r2, [r4, #0]
 80a4fb6:	6813      	ldr	r3, [r2, #0]
 80a4fb8:	f043 0301 	orr.w	r3, r3, #1
 80a4fbc:	6013      	str	r3, [r2, #0]
  if (hspi->Init.Mode == SPI_MODE_MASTER)
 80a4fbe:	6863      	ldr	r3, [r4, #4]
 80a4fc0:	f5b3 0f80 	cmp.w	r3, #4194304	@ 0x400000
 80a4fc4:	d01a      	beq.n	80a4ffc <HAL_SPI_TransmitReceive_DMA+0x240>
  __HAL_UNLOCK(hspi);
 80a4fc6:	2300      	movs	r3, #0
 80a4fc8:	f884 3080 	strb.w	r3, [r4, #128]	@ 0x80
  return HAL_OK;
 80a4fcc:	460d      	mov	r5, r1
 80a4fce:	e01c      	b.n	80a500a <HAL_SPI_TransmitReceive_DMA+0x24e>
    (void)HAL_DMA_Abort(hspi->hdmarx);
 80a4fd0:	6fe0      	ldr	r0, [r4, #124]	@ 0x7c
 80a4fd2:	f7fd fa79 	bl	80a24c8 <HAL_DMA_Abort>
    SET_BIT(hspi->ErrorCode, HAL_SPI_ERROR_DMA);
 80a4fd6:	f8d4 3084 	ldr.w	r3, [r4, #132]	@ 0x84
 80a4fda:	f043 0310 	orr.w	r3, r3, #16
 80a4fde:	f8c4 3084 	str.w	r3, [r4, #132]	@ 0x84
    hspi->State = HAL_SPI_STATE_READY;
 80a4fe2:	2301      	movs	r3, #1
 80a4fe4:	f884 3081 	strb.w	r3, [r4, #129]	@ 0x81
    __HAL_UNLOCK(hspi);
 80a4fe8:	2300      	movs	r3, #0
 80a4fea:	f884 3080 	strb.w	r3, [r4, #128]	@ 0x80
    return HAL_ERROR;
 80a4fee:	e00c      	b.n	80a500a <HAL_SPI_TransmitReceive_DMA+0x24e>
    MODIFY_REG(hspi->Instance->CR2, SPI_CR2_TSIZE, 0UL);
 80a4ff0:	6822      	ldr	r2, [r4, #0]
 80a4ff2:	6853      	ldr	r3, [r2, #4]
 80a4ff4:	f36f 030f 	bfc	r3, #0, #16
 80a4ff8:	6053      	str	r3, [r2, #4]
 80a4ffa:	e7d1      	b.n	80a4fa0 <HAL_SPI_TransmitReceive_DMA+0x1e4>
    SET_BIT(hspi->Instance->CR1, SPI_CR1_CSTART);
 80a4ffc:	6822      	ldr	r2, [r4, #0]
 80a4ffe:	6813      	ldr	r3, [r2, #0]
 80a5000:	f443 7300 	orr.w	r3, r3, #512	@ 0x200
 80a5004:	6013      	str	r3, [r2, #0]
 80a5006:	e7de      	b.n	80a4fc6 <HAL_SPI_TransmitReceive_DMA+0x20a>
    return HAL_BUSY;
 80a5008:	2502      	movs	r5, #2
}
 80a500a:	4628      	mov	r0, r5
 80a500c:	bd70      	pop	{r4, r5, r6, pc}
  __HAL_LOCK(hspi);
 80a500e:	2502      	movs	r5, #2
 80a5010:	e7fb      	b.n	80a500a <HAL_SPI_TransmitReceive_DMA+0x24e>
 80a5012:	bf00      	nop
 80a5014:	080a5051 	.word	0x080a5051
 80a5018:	080a5025 	.word	0x080a5025
 80a501c:	080a505b 	.word	0x080a505b

080a5020 <HAL_SPI_TxCpltCallback>:
}
 80a5020:	4770      	bx	lr

080a5022 <HAL_SPI_RxCpltCallback>:
}
 80a5022:	4770      	bx	lr

080a5024 <SPI_DMATransmitReceiveCplt>:
{
 80a5024:	b508      	push	{r3, lr}
  SPI_HandleTypeDef *hspi = (SPI_HandleTypeDef *)((DMA_HandleTypeDef *)hdma)->Parent;
 80a5026:	6b80      	ldr	r0, [r0, #56]	@ 0x38
  if (hspi->State != HAL_SPI_STATE_ABORT)
 80a5028:	f890 3081 	ldrb.w	r3, [r0, #129]	@ 0x81
 80a502c:	b2db      	uxtb	r3, r3
 80a502e:	2b07      	cmp	r3, #7
 80a5030:	d009      	beq.n	80a5046 <SPI_DMATransmitReceiveCplt+0x22>
    if (hspi->hdmatx->Init.Mode == DMA_CIRCULAR)
 80a5032:	6f83      	ldr	r3, [r0, #120]	@ 0x78
 80a5034:	69db      	ldr	r3, [r3, #28]
 80a5036:	f5b3 7f80 	cmp.w	r3, #256	@ 0x100
 80a503a:	d005      	beq.n	80a5048 <SPI_DMATransmitReceiveCplt+0x24>
      __HAL_SPI_ENABLE_IT(hspi, SPI_IT_EOT);
 80a503c:	6802      	ldr	r2, [r0, #0]
 80a503e:	6913      	ldr	r3, [r2, #16]
 80a5040:	f043 0308 	orr.w	r3, r3, #8
 80a5044:	6113      	str	r3, [r2, #16]
}
 80a5046:	bd08      	pop	{r3, pc}
      HAL_SPI_TxRxCpltCallback(hspi);
 80a5048:	f7fb ff60 	bl	80a0f0c <HAL_SPI_TxRxCpltCallback>
 80a504c:	e7fb      	b.n	80a5046 <SPI_DMATransmitReceiveCplt+0x22>

080a504e <HAL_SPI_TxRxHalfCpltCallback>:
}
 80a504e:	4770      	bx	lr

080a5050 <SPI_DMAHalfTransmitReceiveCplt>:
{
 80a5050:	b508      	push	{r3, lr}
  HAL_SPI_TxRxHalfCpltCallback(hspi);
 80a5052:	6b80      	ldr	r0, [r0, #56]	@ 0x38
 80a5054:	f7ff fffb 	bl	80a504e <HAL_SPI_TxRxHalfCpltCallback>
}
 80a5058:	bd08      	pop	{r3, pc}

080a505a <SPI_DMAError>:
{
 80a505a:	b510      	push	{r4, lr}
  SPI_HandleTypeDef *hspi = (SPI_HandleTypeDef *)((DMA_HandleTypeDef *)hdma)->Parent;
 80a505c:	6b84      	ldr	r4, [r0, #56]	@ 0x38
  if (HAL_DMA_GetError(hdma) != HAL_DMA_ERROR_FE)
 80a505e:	f7fe f897 	bl	80a3190 <HAL_DMA_GetError>
 80a5062:	2802      	cmp	r0, #2
 80a5064:	d100      	bne.n	80a5068 <SPI_DMAError+0xe>
}
 80a5066:	bd10      	pop	{r4, pc}
    SPI_CloseTransfer(hspi);
 80a5068:	4620      	mov	r0, r4
 80a506a:	f7ff fd71 	bl	80a4b50 <SPI_CloseTransfer>
    SET_BIT(hspi->ErrorCode, HAL_SPI_ERROR_DMA);
 80a506e:	f8d4 3084 	ldr.w	r3, [r4, #132]	@ 0x84
 80a5072:	f043 0310 	orr.w	r3, r3, #16
 80a5076:	f8c4 3084 	str.w	r3, [r4, #132]	@ 0x84
    hspi->State = HAL_SPI_STATE_READY;
 80a507a:	2301      	movs	r3, #1
 80a507c:	f884 3081 	strb.w	r3, [r4, #129]	@ 0x81
    HAL_SPI_ErrorCallback(hspi);
 80a5080:	4620      	mov	r0, r4
 80a5082:	f7fb ff5f 	bl	80a0f44 <HAL_SPI_ErrorCallback>
}
 80a5086:	e7ee      	b.n	80a5066 <SPI_DMAError+0xc>

080a5088 <SPI_DMAAbortOnError>:
{
 80a5088:	b508      	push	{r3, lr}
  SPI_HandleTypeDef *hspi = (SPI_HandleTypeDef *)((DMA_HandleTypeDef *)hdma)->Parent;
 80a508a:	6b80      	ldr	r0, [r0, #56]	@ 0x38
  hspi->RxXferCount = (uint16_t) 0UL;
 80a508c:	2300      	movs	r3, #0
 80a508e:	f8a0 306a 	strh.w	r3, [r0, #106]	@ 0x6a
  hspi->TxXferCount = (uint16_t) 0UL;
 80a5092:	f8a0 3062 	strh.w	r3, [r0, #98]	@ 0x62
  hspi->State = HAL_SPI_STATE_READY;
 80a5096:	2301      	movs	r3, #1
 80a5098:	f880 3081 	strb.w	r3, [r0, #129]	@ 0x81
  HAL_SPI_ErrorCallback(hspi);
 80a509c:	f7fb ff52 	bl	80a0f44 <HAL_SPI_ErrorCallback>
}
 80a50a0:	bd08      	pop	{r3, pc}

080a50a2 <HAL_SPI_SuspendCallback>:
}
 80a50a2:	4770      	bx	lr

080a50a4 <HAL_SPI_IRQHandler>:
{
 80a50a4:	e92d 43f8 	stmdb	sp!, {r3, r4, r5, r6, r7, r8, r9, lr}
 80a50a8:	4604      	mov	r4, r0
  uint32_t itsource = hspi->Instance->IER;
 80a50aa:	6806      	ldr	r6, [r0, #0]
 80a50ac:	6932      	ldr	r2, [r6, #16]
  uint32_t itflag   = hspi->Instance->SR;
 80a50ae:	6973      	ldr	r3, [r6, #20]
  uint32_t trigger  = itsource & itflag;
 80a50b0:	ea02 0503 	and.w	r5, r2, r3
  uint32_t cfg1     = hspi->Instance->CFG1;
 80a50b4:	f8d6 9008 	ldr.w	r9, [r6, #8]
  HAL_SPI_StateTypeDef State = hspi->State;
 80a50b8:	f890 7081 	ldrb.w	r7, [r0, #129]	@ 0x81
 80a50bc:	b2ff      	uxtb	r7, r7
  if (HAL_IS_BIT_SET(itflag, SPI_FLAG_SUSP) && HAL_IS_BIT_SET(itsource, SPI_FLAG_EOT))
 80a50be:	f413 6f00 	tst.w	r3, #2048	@ 0x800
 80a50c2:	d002      	beq.n	80a50ca <HAL_SPI_IRQHandler+0x26>
 80a50c4:	f012 0f08 	tst.w	r2, #8
 80a50c8:	d13f      	bne.n	80a514a <HAL_SPI_IRQHandler+0xa6>
  if (HAL_IS_BIT_CLR(trigger, SPI_FLAG_OVR) && HAL_IS_BIT_CLR(trigger, SPI_FLAG_UDR) && \
 80a50ca:	f005 0364 	and.w	r3, r5, #100	@ 0x64
 80a50ce:	2b04      	cmp	r3, #4
 80a50d0:	d042      	beq.n	80a5158 <HAL_SPI_IRQHandler+0xb4>
  uint32_t handled  = 0UL;
 80a50d2:	2300      	movs	r3, #0
  if (HAL_IS_BIT_CLR(trigger, SPI_FLAG_OVR) && HAL_IS_BIT_SET(trigger, SPI_FLAG_RXP) && \
 80a50d4:	f005 0845 	and.w	r8, r5, #69	@ 0x45
 80a50d8:	f1b8 0f01 	cmp.w	r8, #1
 80a50dc:	d044      	beq.n	80a5168 <HAL_SPI_IRQHandler+0xc4>
  if (HAL_IS_BIT_CLR(trigger, SPI_FLAG_UDR) && HAL_IS_BIT_SET(trigger, SPI_FLAG_TXP) && \
 80a50de:	f005 0226 	and.w	r2, r5, #38	@ 0x26
 80a50e2:	2a02      	cmp	r2, #2
 80a50e4:	d045      	beq.n	80a5172 <HAL_SPI_IRQHandler+0xce>
  if (handled != 0UL)
 80a50e6:	2b00      	cmp	r3, #0
 80a50e8:	d146      	bne.n	80a5178 <HAL_SPI_IRQHandler+0xd4>
  if (HAL_IS_BIT_SET(trigger, SPI_FLAG_EOT))
 80a50ea:	f015 0f08 	tst.w	r5, #8
 80a50ee:	d079      	beq.n	80a51e4 <HAL_SPI_IRQHandler+0x140>
    __HAL_SPI_CLEAR_EOTFLAG(hspi);
 80a50f0:	6822      	ldr	r2, [r4, #0]
 80a50f2:	6993      	ldr	r3, [r2, #24]
 80a50f4:	f043 0308 	orr.w	r3, r3, #8
 80a50f8:	6193      	str	r3, [r2, #24]
    __HAL_SPI_CLEAR_TXTFFLAG(hspi);
 80a50fa:	6822      	ldr	r2, [r4, #0]
 80a50fc:	6993      	ldr	r3, [r2, #24]
 80a50fe:	f043 0310 	orr.w	r3, r3, #16
 80a5102:	6193      	str	r3, [r2, #24]
    __HAL_SPI_CLEAR_SUSPFLAG(hspi);
 80a5104:	6822      	ldr	r2, [r4, #0]
 80a5106:	6993      	ldr	r3, [r2, #24]
 80a5108:	f443 6300 	orr.w	r3, r3, #2048	@ 0x800
 80a510c:	6193      	str	r3, [r2, #24]
    __HAL_SPI_DISABLE_IT(hspi, SPI_IT_EOT);
 80a510e:	6822      	ldr	r2, [r4, #0]
 80a5110:	6913      	ldr	r3, [r2, #16]
 80a5112:	f023 0308 	bic.w	r3, r3, #8
 80a5116:	6113      	str	r3, [r2, #16]
    if (HAL_IS_BIT_CLR(hspi->Instance->CFG1, SPI_CFG1_TXDMAEN | SPI_CFG1_RXDMAEN))
 80a5118:	6823      	ldr	r3, [r4, #0]
 80a511a:	689b      	ldr	r3, [r3, #8]
 80a511c:	f413 4f40 	tst.w	r3, #49152	@ 0xc000
 80a5120:	d03b      	beq.n	80a519a <HAL_SPI_IRQHandler+0xf6>
    SPI_CloseTransfer(hspi);
 80a5122:	4620      	mov	r0, r4
 80a5124:	f7ff fd14 	bl	80a4b50 <SPI_CloseTransfer>
    hspi->State = HAL_SPI_STATE_READY;
 80a5128:	2301      	movs	r3, #1
 80a512a:	f884 3081 	strb.w	r3, [r4, #129]	@ 0x81
    if (hspi->ErrorCode != HAL_SPI_ERROR_NONE)
 80a512e:	f8d4 3084 	ldr.w	r3, [r4, #132]	@ 0x84
 80a5132:	2b00      	cmp	r3, #0
 80a5134:	d14a      	bne.n	80a51cc <HAL_SPI_IRQHandler+0x128>
    if (State == HAL_SPI_STATE_BUSY_TX_RX)
 80a5136:	2f05      	cmp	r7, #5
 80a5138:	d04c      	beq.n	80a51d4 <HAL_SPI_IRQHandler+0x130>
    else if (State == HAL_SPI_STATE_BUSY_RX)
 80a513a:	2f04      	cmp	r7, #4
 80a513c:	d04e      	beq.n	80a51dc <HAL_SPI_IRQHandler+0x138>
    else if (State == HAL_SPI_STATE_BUSY_TX)
 80a513e:	2f03      	cmp	r7, #3
 80a5140:	d11a      	bne.n	80a5178 <HAL_SPI_IRQHandler+0xd4>
      HAL_SPI_TxCpltCallback(hspi);
 80a5142:	4620      	mov	r0, r4
 80a5144:	f7ff ff6c 	bl	80a5020 <HAL_SPI_TxCpltCallback>
    return;
 80a5148:	e016      	b.n	80a5178 <HAL_SPI_IRQHandler+0xd4>
    __HAL_SPI_CLEAR_SUSPFLAG(hspi);
 80a514a:	69b3      	ldr	r3, [r6, #24]
 80a514c:	f443 6300 	orr.w	r3, r3, #2048	@ 0x800
 80a5150:	61b3      	str	r3, [r6, #24]
    HAL_SPI_SuspendCallback(hspi);
 80a5152:	f7ff ffa6 	bl	80a50a2 <HAL_SPI_SuspendCallback>
    return;
 80a5156:	e00f      	b.n	80a5178 <HAL_SPI_IRQHandler+0xd4>
    hspi->TxISR(hspi);
 80a5158:	6f63      	ldr	r3, [r4, #116]	@ 0x74
 80a515a:	4620      	mov	r0, r4
 80a515c:	4798      	blx	r3
    hspi->RxISR(hspi);
 80a515e:	6f23      	ldr	r3, [r4, #112]	@ 0x70
 80a5160:	4620      	mov	r0, r4
 80a5162:	4798      	blx	r3
    handled = 1UL;
 80a5164:	2301      	movs	r3, #1
 80a5166:	e7b5      	b.n	80a50d4 <HAL_SPI_IRQHandler+0x30>
    hspi->RxISR(hspi);
 80a5168:	6f23      	ldr	r3, [r4, #112]	@ 0x70
 80a516a:	4620      	mov	r0, r4
 80a516c:	4798      	blx	r3
    handled = 1UL;
 80a516e:	4643      	mov	r3, r8
 80a5170:	e7b5      	b.n	80a50de <HAL_SPI_IRQHandler+0x3a>
    hspi->TxISR(hspi);
 80a5172:	6f63      	ldr	r3, [r4, #116]	@ 0x74
 80a5174:	4620      	mov	r0, r4
 80a5176:	4798      	blx	r3
}
 80a5178:	e8bd 83f8 	ldmia.w	sp!, {r3, r4, r5, r6, r7, r8, r9, pc}
        else if (hspi->Init.DataSize > SPI_DATASIZE_8BIT)
 80a517c:	2b07      	cmp	r3, #7
 80a517e:	d91c      	bls.n	80a51ba <HAL_SPI_IRQHandler+0x116>
          *((uint16_t *)hspi->pRxBuffPtr) = *prxdr_16bits;
 80a5180:	6e63      	ldr	r3, [r4, #100]	@ 0x64
 80a5182:	8e32      	ldrh	r2, [r6, #48]	@ 0x30
 80a5184:	801a      	strh	r2, [r3, #0]
          hspi->pRxBuffPtr += sizeof(uint16_t);
 80a5186:	6e63      	ldr	r3, [r4, #100]	@ 0x64
 80a5188:	3302      	adds	r3, #2
 80a518a:	6663      	str	r3, [r4, #100]	@ 0x64
        hspi->RxXferCount--;
 80a518c:	f8b4 306a 	ldrh.w	r3, [r4, #106]	@ 0x6a
 80a5190:	b29b      	uxth	r3, r3
 80a5192:	3b01      	subs	r3, #1
 80a5194:	b29b      	uxth	r3, r3
 80a5196:	f8a4 306a 	strh.w	r3, [r4, #106]	@ 0x6a
      while (hspi->RxXferCount != 0UL)
 80a519a:	f8b4 306a 	ldrh.w	r3, [r4, #106]	@ 0x6a
 80a519e:	b29b      	uxth	r3, r3
 80a51a0:	2b00      	cmp	r3, #0
 80a51a2:	d0be      	beq.n	80a5122 <HAL_SPI_IRQHandler+0x7e>
        if (hspi->Init.DataSize > SPI_DATASIZE_16BIT)
 80a51a4:	68e3      	ldr	r3, [r4, #12]
 80a51a6:	2b0f      	cmp	r3, #15
 80a51a8:	d9e8      	bls.n	80a517c <HAL_SPI_IRQHandler+0xd8>
          *((uint32_t *)hspi->pRxBuffPtr) = *((__IO uint32_t *)&hspi->Instance->RXDR);
 80a51aa:	6822      	ldr	r2, [r4, #0]
 80a51ac:	6e63      	ldr	r3, [r4, #100]	@ 0x64
 80a51ae:	6b12      	ldr	r2, [r2, #48]	@ 0x30
 80a51b0:	601a      	str	r2, [r3, #0]
          hspi->pRxBuffPtr += sizeof(uint32_t);
 80a51b2:	6e63      	ldr	r3, [r4, #100]	@ 0x64
 80a51b4:	3304      	adds	r3, #4
 80a51b6:	6663      	str	r3, [r4, #100]	@ 0x64
 80a51b8:	e7e8      	b.n	80a518c <HAL_SPI_IRQHandler+0xe8>
          *((uint8_t *)hspi->pRxBuffPtr) = *((__IO uint8_t *)&hspi->Instance->RXDR);
 80a51ba:	6822      	ldr	r2, [r4, #0]
 80a51bc:	6e63      	ldr	r3, [r4, #100]	@ 0x64
 80a51be:	f892 2030 	ldrb.w	r2, [r2, #48]	@ 0x30
 80a51c2:	701a      	strb	r2, [r3, #0]
          hspi->pRxBuffPtr += sizeof(uint8_t);
 80a51c4:	6e63      	ldr	r3, [r4, #100]	@ 0x64
 80a51c6:	3301      	adds	r3, #1
 80a51c8:	6663      	str	r3, [r4, #100]	@ 0x64
 80a51ca:	e7df      	b.n	80a518c <HAL_SPI_IRQHandler+0xe8>
      HAL_SPI_ErrorCallback(hspi);
 80a51cc:	4620      	mov	r0, r4
 80a51ce:	f7fb feb9 	bl	80a0f44 <HAL_SPI_ErrorCallback>
      return;
 80a51d2:	e7d1      	b.n	80a5178 <HAL_SPI_IRQHandler+0xd4>
      HAL_SPI_TxRxCpltCallback(hspi);
 80a51d4:	4620      	mov	r0, r4
 80a51d6:	f7fb fe99 	bl	80a0f0c <HAL_SPI_TxRxCpltCallback>
 80a51da:	e7cd      	b.n	80a5178 <HAL_SPI_IRQHandler+0xd4>
      HAL_SPI_RxCpltCallback(hspi);
 80a51dc:	4620      	mov	r0, r4
 80a51de:	f7ff ff20 	bl	80a5022 <HAL_SPI_RxCpltCallback>
 80a51e2:	e7c9      	b.n	80a5178 <HAL_SPI_IRQHandler+0xd4>
  if ((trigger & (SPI_FLAG_MODF | SPI_FLAG_OVR | SPI_FLAG_FRE | SPI_FLAG_UDR)) != 0UL)
 80a51e4:	f415 7f58 	tst.w	r5, #864	@ 0x360
 80a51e8:	d0c6      	beq.n	80a5178 <HAL_SPI_IRQHandler+0xd4>
    if ((trigger & SPI_FLAG_OVR) != 0UL)
 80a51ea:	f015 0f40 	tst.w	r5, #64	@ 0x40
 80a51ee:	d00a      	beq.n	80a5206 <HAL_SPI_IRQHandler+0x162>
      SET_BIT(hspi->ErrorCode, HAL_SPI_ERROR_OVR);
 80a51f0:	f8d4 3084 	ldr.w	r3, [r4, #132]	@ 0x84
 80a51f4:	f043 0304 	orr.w	r3, r3, #4
 80a51f8:	f8c4 3084 	str.w	r3, [r4, #132]	@ 0x84
      __HAL_SPI_CLEAR_OVRFLAG(hspi);
 80a51fc:	6822      	ldr	r2, [r4, #0]
 80a51fe:	6993      	ldr	r3, [r2, #24]
 80a5200:	f043 0340 	orr.w	r3, r3, #64	@ 0x40
 80a5204:	6193      	str	r3, [r2, #24]
    if ((trigger & SPI_FLAG_MODF) != 0UL)
 80a5206:	f415 7f00 	tst.w	r5, #512	@ 0x200
 80a520a:	d00a      	beq.n	80a5222 <HAL_SPI_IRQHandler+0x17e>
      SET_BIT(hspi->ErrorCode, HAL_SPI_ERROR_MODF);
 80a520c:	f8d4 3084 	ldr.w	r3, [r4, #132]	@ 0x84
 80a5210:	f043 0301 	orr.w	r3, r3, #1
 80a5214:	f8c4 3084 	str.w	r3, [r4, #132]	@ 0x84
      __HAL_SPI_CLEAR_MODFFLAG(hspi);
 80a5218:	6822      	ldr	r2, [r4, #0]
 80a521a:	6993      	ldr	r3, [r2, #24]
 80a521c:	f443 7300 	orr.w	r3, r3, #512	@ 0x200
 80a5220:	6193      	str	r3, [r2, #24]
    if ((trigger & SPI_FLAG_FRE) != 0UL)
 80a5222:	f415 7f80 	tst.w	r5, #256	@ 0x100
 80a5226:	d00a      	beq.n	80a523e <HAL_SPI_IRQHandler+0x19a>
      SET_BIT(hspi->ErrorCode, HAL_SPI_ERROR_FRE);
 80a5228:	f8d4 3084 	ldr.w	r3, [r4, #132]	@ 0x84
 80a522c:	f043 0308 	orr.w	r3, r3, #8
 80a5230:	f8c4 3084 	str.w	r3, [r4, #132]	@ 0x84
      __HAL_SPI_CLEAR_FREFLAG(hspi);
 80a5234:	6822      	ldr	r2, [r4, #0]
 80a5236:	6993      	ldr	r3, [r2, #24]
 80a5238:	f443 7380 	orr.w	r3, r3, #256	@ 0x100
 80a523c:	6193      	str	r3, [r2, #24]
    if ((trigger & SPI_FLAG_UDR) != 0UL)
 80a523e:	f015 0f20 	tst.w	r5, #32
 80a5242:	d00a      	beq.n	80a525a <HAL_SPI_IRQHandler+0x1b6>
      SET_BIT(hspi->ErrorCode, HAL_SPI_ERROR_UDR);
 80a5244:	f8d4 3084 	ldr.w	r3, [r4, #132]	@ 0x84
 80a5248:	f043 0380 	orr.w	r3, r3, #128	@ 0x80
 80a524c:	f8c4 3084 	str.w	r3, [r4, #132]	@ 0x84
      __HAL_SPI_CLEAR_UDRFLAG(hspi);
 80a5250:	6822      	ldr	r2, [r4, #0]
 80a5252:	6993      	ldr	r3, [r2, #24]
 80a5254:	f043 0320 	orr.w	r3, r3, #32
 80a5258:	6193      	str	r3, [r2, #24]
    if (hspi->ErrorCode != HAL_SPI_ERROR_NONE)
 80a525a:	f8d4 3084 	ldr.w	r3, [r4, #132]	@ 0x84
 80a525e:	2b00      	cmp	r3, #0
 80a5260:	d08a      	beq.n	80a5178 <HAL_SPI_IRQHandler+0xd4>
      __HAL_SPI_DISABLE(hspi);
 80a5262:	6822      	ldr	r2, [r4, #0]
 80a5264:	6813      	ldr	r3, [r2, #0]
 80a5266:	f023 0301 	bic.w	r3, r3, #1
 80a526a:	6013      	str	r3, [r2, #0]
      __HAL_SPI_DISABLE_IT(hspi, (SPI_IT_EOT | SPI_IT_RXP | SPI_IT_TXP | SPI_IT_MODF |
 80a526c:	6822      	ldr	r2, [r4, #0]
 80a526e:	6913      	ldr	r3, [r2, #16]
 80a5270:	f423 735a 	bic.w	r3, r3, #872	@ 0x368
 80a5274:	f023 0303 	bic.w	r3, r3, #3
 80a5278:	6113      	str	r3, [r2, #16]
      if (HAL_IS_BIT_SET(cfg1, SPI_CFG1_TXDMAEN | SPI_CFG1_RXDMAEN))
 80a527a:	f409 4940 	and.w	r9, r9, #49152	@ 0xc000
 80a527e:	f5b9 4f40 	cmp.w	r9, #49152	@ 0xc000
 80a5282:	d125      	bne.n	80a52d0 <HAL_SPI_IRQHandler+0x22c>
        CLEAR_BIT(hspi->Instance->CFG1, SPI_CFG1_TXDMAEN | SPI_CFG1_RXDMAEN);
 80a5284:	6822      	ldr	r2, [r4, #0]
 80a5286:	6893      	ldr	r3, [r2, #8]
 80a5288:	f423 4340 	bic.w	r3, r3, #49152	@ 0xc000
 80a528c:	6093      	str	r3, [r2, #8]
        if (hspi->hdmarx != NULL)
 80a528e:	6fe3      	ldr	r3, [r4, #124]	@ 0x7c
 80a5290:	b15b      	cbz	r3, 80a52aa <HAL_SPI_IRQHandler+0x206>
          hspi->hdmarx->XferAbortCallback = SPI_DMAAbortOnError;
 80a5292:	4a13      	ldr	r2, [pc, #76]	@ (80a52e0 <HAL_SPI_IRQHandler+0x23c>)
 80a5294:	651a      	str	r2, [r3, #80]	@ 0x50
          if (HAL_OK != HAL_DMA_Abort_IT(hspi->hdmarx))
 80a5296:	6fe0      	ldr	r0, [r4, #124]	@ 0x7c
 80a5298:	f7fd fab2 	bl	80a2800 <HAL_DMA_Abort_IT>
 80a529c:	b128      	cbz	r0, 80a52aa <HAL_SPI_IRQHandler+0x206>
            SET_BIT(hspi->ErrorCode, HAL_SPI_ERROR_ABORT);
 80a529e:	f8d4 3084 	ldr.w	r3, [r4, #132]	@ 0x84
 80a52a2:	f043 0340 	orr.w	r3, r3, #64	@ 0x40
 80a52a6:	f8c4 3084 	str.w	r3, [r4, #132]	@ 0x84
        if (hspi->hdmatx != NULL)
 80a52aa:	6fa3      	ldr	r3, [r4, #120]	@ 0x78
 80a52ac:	2b00      	cmp	r3, #0
 80a52ae:	f43f af63 	beq.w	80a5178 <HAL_SPI_IRQHandler+0xd4>
          hspi->hdmatx->XferAbortCallback = SPI_DMAAbortOnError;
 80a52b2:	4a0b      	ldr	r2, [pc, #44]	@ (80a52e0 <HAL_SPI_IRQHandler+0x23c>)
 80a52b4:	651a      	str	r2, [r3, #80]	@ 0x50
          if (HAL_OK != HAL_DMA_Abort_IT(hspi->hdmatx))
 80a52b6:	6fa0      	ldr	r0, [r4, #120]	@ 0x78
 80a52b8:	f7fd faa2 	bl	80a2800 <HAL_DMA_Abort_IT>
 80a52bc:	2800      	cmp	r0, #0
 80a52be:	f43f af5b 	beq.w	80a5178 <HAL_SPI_IRQHandler+0xd4>
            SET_BIT(hspi->ErrorCode, HAL_SPI_ERROR_ABORT);
 80a52c2:	f8d4 3084 	ldr.w	r3, [r4, #132]	@ 0x84
 80a52c6:	f043 0340 	orr.w	r3, r3, #64	@ 0x40
 80a52ca:	f8c4 3084 	str.w	r3, [r4, #132]	@ 0x84
 80a52ce:	e753      	b.n	80a5178 <HAL_SPI_IRQHandler+0xd4>
        hspi->State = HAL_SPI_STATE_READY;
 80a52d0:	2301      	movs	r3, #1
 80a52d2:	f884 3081 	strb.w	r3, [r4, #129]	@ 0x81
        HAL_SPI_ErrorCallback(hspi);
 80a52d6:	4620      	mov	r0, r4
 80a52d8:	f7fb fe34 	bl	80a0f44 <HAL_SPI_ErrorCallback>
    return;
 80a52dc:	e74c      	b.n	80a5178 <HAL_SPI_IRQHandler+0xd4>
 80a52de:	bf00      	nop
 80a52e0:	080a5089 	.word	0x080a5089

080a52e4 <TIM_OC1_SetConfig>:
  * @param  TIMx to select the TIM peripheral
  * @param  OC_Config The output configuration structure
  * @retval None
  */
static void TIM_OC1_SetConfig(TIM_TypeDef *TIMx, const TIM_OC_InitTypeDef *OC_Config)
{
 80a52e4:	b430      	push	{r4, r5}
  uint32_t tmpccmrx;
  uint32_t tmpccer;
  uint32_t tmpcr2;

  /* Get the TIMx CCER register value */
  tmpccer = TIMx->CCER;
 80a52e6:	6a02      	ldr	r2, [r0, #32]

  /* Disable the Channel 1: Reset the CC1E Bit */
  TIMx->CCER &= ~TIM_CCER_CC1E;
 80a52e8:	6a03      	ldr	r3, [r0, #32]
 80a52ea:	f023 0301 	bic.w	r3, r3, #1
 80a52ee:	6203      	str	r3, [r0, #32]

  /* Get the TIMx CR2 register value */
  tmpcr2 =  TIMx->CR2;
 80a52f0:	6844      	ldr	r4, [r0, #4]

  /* Get the TIMx CCMR1 register value */
  tmpccmrx = TIMx->CCMR1;
 80a52f2:	6983      	ldr	r3, [r0, #24]

  /* Reset the Output Compare Mode Bits */
  tmpccmrx &= ~TIM_CCMR1_OC1M;
  tmpccmrx &= ~TIM_CCMR1_CC1S;
 80a52f4:	f423 3380 	bic.w	r3, r3, #65536	@ 0x10000
 80a52f8:	f023 0373 	bic.w	r3, r3, #115	@ 0x73
  /* Select the Output Compare Mode */
  tmpccmrx |= OC_Config->OCMode;
 80a52fc:	680d      	ldr	r5, [r1, #0]
 80a52fe:	431d      	orrs	r5, r3

  /* Reset the Output Polarity level */
  tmpccer &= ~TIM_CCER_CC1P;
 80a5300:	f022 0202 	bic.w	r2, r2, #2
  /* Set the Output Compare Polarity */
  tmpccer |= OC_Config->OCPolarity;
 80a5304:	688b      	ldr	r3, [r1, #8]
 80a5306:	4313      	orrs	r3, r2

  if (IS_TIM_CCXN_INSTANCE(TIMx, TIM_CHANNEL_1))
 80a5308:	4a1c      	ldr	r2, [pc, #112]	@ (80a537c <TIM_OC1_SetConfig+0x98>)
 80a530a:	4290      	cmp	r0, r2
 80a530c:	d00f      	beq.n	80a532e <TIM_OC1_SetConfig+0x4a>
 80a530e:	f502 6280 	add.w	r2, r2, #1024	@ 0x400
 80a5312:	4290      	cmp	r0, r2
 80a5314:	d00b      	beq.n	80a532e <TIM_OC1_SetConfig+0x4a>
 80a5316:	f502 5270 	add.w	r2, r2, #15360	@ 0x3c00
 80a531a:	4290      	cmp	r0, r2
 80a531c:	d007      	beq.n	80a532e <TIM_OC1_SetConfig+0x4a>
 80a531e:	f502 6280 	add.w	r2, r2, #1024	@ 0x400
 80a5322:	4290      	cmp	r0, r2
 80a5324:	d003      	beq.n	80a532e <TIM_OC1_SetConfig+0x4a>
 80a5326:	f502 6280 	add.w	r2, r2, #1024	@ 0x400
 80a532a:	4290      	cmp	r0, r2
 80a532c:	d105      	bne.n	80a533a <TIM_OC1_SetConfig+0x56>
  {
    /* Check parameters */
    assert_param(IS_TIM_OCN_POLARITY(OC_Config->OCNPolarity));

    /* Reset the Output N Polarity level */
    tmpccer &= ~TIM_CCER_CC1NP;
 80a532e:	f023 0308 	bic.w	r3, r3, #8
    /* Set the Output N Polarity */
    tmpccer |= OC_Config->OCNPolarity;
 80a5332:	68ca      	ldr	r2, [r1, #12]
 80a5334:	431a      	orrs	r2, r3
    /* Reset the Output N State */
    tmpccer &= ~TIM_CCER_CC1NE;
 80a5336:	f022 0304 	bic.w	r3, r2, #4
  }

  if (IS_TIM_BREAK_INSTANCE(TIMx))
 80a533a:	4a10      	ldr	r2, [pc, #64]	@ (80a537c <TIM_OC1_SetConfig+0x98>)
 80a533c:	4290      	cmp	r0, r2
 80a533e:	d00f      	beq.n	80a5360 <TIM_OC1_SetConfig+0x7c>
 80a5340:	f502 6280 	add.w	r2, r2, #1024	@ 0x400
 80a5344:	4290      	cmp	r0, r2
 80a5346:	d00b      	beq.n	80a5360 <TIM_OC1_SetConfig+0x7c>
 80a5348:	f502 5270 	add.w	r2, r2, #15360	@ 0x3c00
 80a534c:	4290      	cmp	r0, r2
 80a534e:	d007      	beq.n	80a5360 <TIM_OC1_SetConfig+0x7c>
 80a5350:	f502 6280 	add.w	r2, r2, #1024	@ 0x400
 80a5354:	4290      	cmp	r0, r2
 80a5356:	d003      	beq.n	80a5360 <TIM_OC1_SetConfig+0x7c>
 80a5358:	f502 6280 	add.w	r2, r2, #1024	@ 0x400
 80a535c:	4290      	cmp	r0, r2
 80a535e:	d105      	bne.n	80a536c <TIM_OC1_SetConfig+0x88>
    assert_param(IS_TIM_OCNIDLE_STATE(OC_Config->OCNIdleState));
    assert_param(IS_TIM_OCIDLE_STATE(OC_Config->OCIdleState));

    /* Reset the Output Compare and Output Compare N IDLE State */
    tmpcr2 &= ~TIM_CR2_OIS1;
    tmpcr2 &= ~TIM_CR2_OIS1N;
 80a5360:	f424 7440 	bic.w	r4, r4, #768	@ 0x300
    /* Set the Output Idle state */
    tmpcr2 |= OC_Config->OCIdleState;
 80a5364:	694a      	ldr	r2, [r1, #20]
 80a5366:	4322      	orrs	r2, r4
    /* Set the Output N Idle state */
    tmpcr2 |= OC_Config->OCNIdleState;
 80a5368:	698c      	ldr	r4, [r1, #24]
 80a536a:	4314      	orrs	r4, r2
  }

  /* Write to TIMx CR2 */
  TIMx->CR2 = tmpcr2;
 80a536c:	6044      	str	r4, [r0, #4]

  /* Write to TIMx CCMR1 */
  TIMx->CCMR1 = tmpccmrx;
 80a536e:	6185      	str	r5, [r0, #24]

  /* Set the Capture Compare Register value */
  TIMx->CCR1 = OC_Config->Pulse;
 80a5370:	684a      	ldr	r2, [r1, #4]
 80a5372:	6342      	str	r2, [r0, #52]	@ 0x34

  /* Write to TIMx CCER */
  TIMx->CCER = tmpccer;
 80a5374:	6203      	str	r3, [r0, #32]
}
 80a5376:	bc30      	pop	{r4, r5}
 80a5378:	4770      	bx	lr
 80a537a:	bf00      	nop
 80a537c:	40010000 	.word	0x40010000

080a5380 <TIM_OC3_SetConfig>:
  * @param  TIMx to select the TIM peripheral
  * @param  OC_Config The output configuration structure
  * @retval None
  */
static void TIM_OC3_SetConfig(TIM_TypeDef *TIMx, const TIM_OC_InitTypeDef *OC_Config)
{
 80a5380:	b430      	push	{r4, r5}
  uint32_t tmpccmrx;
  uint32_t tmpccer;
  uint32_t tmpcr2;

  /* Get the TIMx CCER register value */
  tmpccer = TIMx->CCER;
 80a5382:	6a03      	ldr	r3, [r0, #32]

  /* Disable the Channel 3: Reset the CC2E Bit */
  TIMx->CCER &= ~TIM_CCER_CC3E;
 80a5384:	6a02      	ldr	r2, [r0, #32]
 80a5386:	f422 7280 	bic.w	r2, r2, #256	@ 0x100
 80a538a:	6202      	str	r2, [r0, #32]

  /* Get the TIMx CR2 register value */
  tmpcr2 =  TIMx->CR2;
 80a538c:	6844      	ldr	r4, [r0, #4]

  /* Get the TIMx CCMR2 register value */
  tmpccmrx = TIMx->CCMR2;
 80a538e:	69c2      	ldr	r2, [r0, #28]

  /* Reset the Output Compare mode and Capture/Compare selection Bits */
  tmpccmrx &= ~TIM_CCMR2_OC3M;
  tmpccmrx &= ~TIM_CCMR2_CC3S;
 80a5390:	f422 3280 	bic.w	r2, r2, #65536	@ 0x10000
 80a5394:	f022 0273 	bic.w	r2, r2, #115	@ 0x73
  /* Select the Output Compare Mode */
  tmpccmrx |= OC_Config->OCMode;
 80a5398:	680d      	ldr	r5, [r1, #0]
 80a539a:	4315      	orrs	r5, r2

  /* Reset the Output Polarity level */
  tmpccer &= ~TIM_CCER_CC3P;
 80a539c:	f423 7300 	bic.w	r3, r3, #512	@ 0x200
  /* Set the Output Compare Polarity */
  tmpccer |= (OC_Config->OCPolarity << 8U);
 80a53a0:	688a      	ldr	r2, [r1, #8]
 80a53a2:	ea43 2302 	orr.w	r3, r3, r2, lsl #8

  if (IS_TIM_CCXN_INSTANCE(TIMx, TIM_CHANNEL_3))
 80a53a6:	4a18      	ldr	r2, [pc, #96]	@ (80a5408 <TIM_OC3_SetConfig+0x88>)
 80a53a8:	4290      	cmp	r0, r2
 80a53aa:	d003      	beq.n	80a53b4 <TIM_OC3_SetConfig+0x34>
 80a53ac:	f502 6280 	add.w	r2, r2, #1024	@ 0x400
 80a53b0:	4290      	cmp	r0, r2
 80a53b2:	d106      	bne.n	80a53c2 <TIM_OC3_SetConfig+0x42>
  {
    assert_param(IS_TIM_OCN_POLARITY(OC_Config->OCNPolarity));

    /* Reset the Output N Polarity level */
    tmpccer &= ~TIM_CCER_CC3NP;
 80a53b4:	f423 6300 	bic.w	r3, r3, #2048	@ 0x800
    /* Set the Output N Polarity */
    tmpccer |= (OC_Config->OCNPolarity << 8U);
 80a53b8:	68ca      	ldr	r2, [r1, #12]
 80a53ba:	ea43 2302 	orr.w	r3, r3, r2, lsl #8
    /* Reset the Output N State */
    tmpccer &= ~TIM_CCER_CC3NE;
 80a53be:	f423 6380 	bic.w	r3, r3, #1024	@ 0x400
  }

  if (IS_TIM_BREAK_INSTANCE(TIMx))
 80a53c2:	4a11      	ldr	r2, [pc, #68]	@ (80a5408 <TIM_OC3_SetConfig+0x88>)
 80a53c4:	4290      	cmp	r0, r2
 80a53c6:	d00f      	beq.n	80a53e8 <TIM_OC3_SetConfig+0x68>
 80a53c8:	f502 6280 	add.w	r2, r2, #1024	@ 0x400
 80a53cc:	4290      	cmp	r0, r2
 80a53ce:	d00b      	beq.n	80a53e8 <TIM_OC3_SetConfig+0x68>
 80a53d0:	f502 5270 	add.w	r2, r2, #15360	@ 0x3c00
 80a53d4:	4290      	cmp	r0, r2
 80a53d6:	d007      	beq.n	80a53e8 <TIM_OC3_SetConfig+0x68>
 80a53d8:	f502 6280 	add.w	r2, r2, #1024	@ 0x400
 80a53dc:	4290      	cmp	r0, r2
 80a53de:	d003      	beq.n	80a53e8 <TIM_OC3_SetConfig+0x68>
 80a53e0:	f502 6280 	add.w	r2, r2, #1024	@ 0x400
 80a53e4:	4290      	cmp	r0, r2
 80a53e6:	d107      	bne.n	80a53f8 <TIM_OC3_SetConfig+0x78>
    assert_param(IS_TIM_OCNIDLE_STATE(OC_Config->OCNIdleState));
    assert_param(IS_TIM_OCIDLE_STATE(OC_Config->OCIdleState));

    /* Reset the Output Compare and Output Compare N IDLE State */
    tmpcr2 &= ~TIM_CR2_OIS3;
    tmpcr2 &= ~TIM_CR2_OIS3N;
 80a53e8:	f424 5240 	bic.w	r2, r4, #12288	@ 0x3000
    /* Set the Output Idle state */
    tmpcr2 |= (OC_Config->OCIdleState << 4U);
 80a53ec:	694c      	ldr	r4, [r1, #20]
 80a53ee:	ea42 1204 	orr.w	r2, r2, r4, lsl #4
    /* Set the Output N Idle state */
    tmpcr2 |= (OC_Config->OCNIdleState << 4U);
 80a53f2:	698c      	ldr	r4, [r1, #24]
 80a53f4:	ea42 1404 	orr.w	r4, r2, r4, lsl #4
  }

  /* Write to TIMx CR2 */
  TIMx->CR2 = tmpcr2;
 80a53f8:	6044      	str	r4, [r0, #4]

  /* Write to TIMx CCMR2 */
  TIMx->CCMR2 = tmpccmrx;
 80a53fa:	61c5      	str	r5, [r0, #28]

  /* Set the Capture Compare Register value */
  TIMx->CCR3 = OC_Config->Pulse;
 80a53fc:	684a      	ldr	r2, [r1, #4]
 80a53fe:	63c2      	str	r2, [r0, #60]	@ 0x3c

  /* Write to TIMx CCER */
  TIMx->CCER = tmpccer;
 80a5400:	6203      	str	r3, [r0, #32]
}
 80a5402:	bc30      	pop	{r4, r5}
 80a5404:	4770      	bx	lr
 80a5406:	bf00      	nop
 80a5408:	40010000 	.word	0x40010000

080a540c <TIM_OC4_SetConfig>:
  * @param  TIMx to select the TIM peripheral
  * @param  OC_Config The output configuration structure
  * @retval None
  */
static void TIM_OC4_SetConfig(TIM_TypeDef *TIMx, const TIM_OC_InitTypeDef *OC_Config)
{
 80a540c:	b430      	push	{r4, r5}
  uint32_t tmpccmrx;
  uint32_t tmpccer;
  uint32_t tmpcr2;

  /* Get the TIMx CCER register value */
  tmpccer = TIMx->CCER;
 80a540e:	6a03      	ldr	r3, [r0, #32]

  /* Disable the Channel 4: Reset the CC4E Bit */
  TIMx->CCER &= ~TIM_CCER_CC4E;
 80a5410:	6a02      	ldr	r2, [r0, #32]
 80a5412:	f422 5280 	bic.w	r2, r2, #4096	@ 0x1000
 80a5416:	6202      	str	r2, [r0, #32]

  /* Get the TIMx CR2 register value */
  tmpcr2 =  TIMx->CR2;
 80a5418:	6844      	ldr	r4, [r0, #4]

  /* Get the TIMx CCMR2 register value */
  tmpccmrx = TIMx->CCMR2;
 80a541a:	69c2      	ldr	r2, [r0, #28]

  /* Reset the Output Compare mode and Capture/Compare selection Bits */
  tmpccmrx &= ~TIM_CCMR2_OC4M;
  tmpccmrx &= ~TIM_CCMR2_CC4S;
 80a541c:	f022 7280 	bic.w	r2, r2, #16777216	@ 0x1000000
 80a5420:	f422 42e6 	bic.w	r2, r2, #29440	@ 0x7300

  /* Select the Output Compare Mode */
  tmpccmrx |= (OC_Config->OCMode << 8U);
 80a5424:	680d      	ldr	r5, [r1, #0]
 80a5426:	ea42 2205 	orr.w	r2, r2, r5, lsl #8

  /* Reset the Output Polarity level */
  tmpccer &= ~TIM_CCER_CC4P;
 80a542a:	f423 5300 	bic.w	r3, r3, #8192	@ 0x2000
  /* Set the Output Compare Polarity */
  tmpccer |= (OC_Config->OCPolarity << 12U);
 80a542e:	688d      	ldr	r5, [r1, #8]
 80a5430:	ea43 3305 	orr.w	r3, r3, r5, lsl #12

  if (IS_TIM_BREAK_INSTANCE(TIMx))
 80a5434:	4d0f      	ldr	r5, [pc, #60]	@ (80a5474 <TIM_OC4_SetConfig+0x68>)
 80a5436:	42a8      	cmp	r0, r5
 80a5438:	d00f      	beq.n	80a545a <TIM_OC4_SetConfig+0x4e>
 80a543a:	f505 6580 	add.w	r5, r5, #1024	@ 0x400
 80a543e:	42a8      	cmp	r0, r5
 80a5440:	d00b      	beq.n	80a545a <TIM_OC4_SetConfig+0x4e>
 80a5442:	f505 5570 	add.w	r5, r5, #15360	@ 0x3c00
 80a5446:	42a8      	cmp	r0, r5
 80a5448:	d007      	beq.n	80a545a <TIM_OC4_SetConfig+0x4e>
 80a544a:	f505 6580 	add.w	r5, r5, #1024	@ 0x400
 80a544e:	42a8      	cmp	r0, r5
 80a5450:	d003      	beq.n	80a545a <TIM_OC4_SetConfig+0x4e>
 80a5452:	f505 6580 	add.w	r5, r5, #1024	@ 0x400
 80a5456:	42a8      	cmp	r0, r5
 80a5458:	d104      	bne.n	80a5464 <TIM_OC4_SetConfig+0x58>
  {
    /* Check parameters */
    assert_param(IS_TIM_OCIDLE_STATE(OC_Config->OCIdleState));

    /* Reset the Output Compare IDLE State */
    tmpcr2 &= ~TIM_CR2_OIS4;
 80a545a:	f424 4480 	bic.w	r4, r4, #16384	@ 0x4000

    /* Set the Output Idle state */
    tmpcr2 |= (OC_Config->OCIdleState << 6U);
 80a545e:	694d      	ldr	r5, [r1, #20]
 80a5460:	ea44 1485 	orr.w	r4, r4, r5, lsl #6
  }

  /* Write to TIMx CR2 */
  TIMx->CR2 = tmpcr2;
 80a5464:	6044      	str	r4, [r0, #4]

  /* Write to TIMx CCMR2 */
  TIMx->CCMR2 = tmpccmrx;
 80a5466:	61c2      	str	r2, [r0, #28]

  /* Set the Capture Compare Register value */
  TIMx->CCR4 = OC_Config->Pulse;
 80a5468:	684a      	ldr	r2, [r1, #4]
 80a546a:	6402      	str	r2, [r0, #64]	@ 0x40

  /* Write to TIMx CCER */
  TIMx->CCER = tmpccer;
 80a546c:	6203      	str	r3, [r0, #32]
}
 80a546e:	bc30      	pop	{r4, r5}
 80a5470:	4770      	bx	lr
 80a5472:	bf00      	nop
 80a5474:	40010000 	.word	0x40010000

080a5478 <TIM_OC5_SetConfig>:
  * @param  OC_Config The output configuration structure
  * @retval None
  */
static void TIM_OC5_SetConfig(TIM_TypeDef *TIMx,
                              const TIM_OC_InitTypeDef *OC_Config)
{
 80a5478:	b430      	push	{r4, r5}
  uint32_t tmpccmrx;
  uint32_t tmpccer;
  uint32_t tmpcr2;

  /* Get the TIMx CCER register value */
  tmpccer = TIMx->CCER;
 80a547a:	6a03      	ldr	r3, [r0, #32]

  /* Disable the output: Reset the CCxE Bit */
  TIMx->CCER &= ~TIM_CCER_CC5E;
 80a547c:	6a02      	ldr	r2, [r0, #32]
 80a547e:	f422 3280 	bic.w	r2, r2, #65536	@ 0x10000
 80a5482:	6202      	str	r2, [r0, #32]

  /* Get the TIMx CR2 register value */
  tmpcr2 =  TIMx->CR2;
 80a5484:	6844      	ldr	r4, [r0, #4]
  /* Get the TIMx CCMR1 register value */
  tmpccmrx = TIMx->CCMR3;
 80a5486:	6d42      	ldr	r2, [r0, #84]	@ 0x54

  /* Reset the Output Compare Mode Bits */
  tmpccmrx &= ~(TIM_CCMR3_OC5M);
 80a5488:	f422 3280 	bic.w	r2, r2, #65536	@ 0x10000
 80a548c:	f022 0270 	bic.w	r2, r2, #112	@ 0x70
  /* Select the Output Compare Mode */
  tmpccmrx |= OC_Config->OCMode;
 80a5490:	680d      	ldr	r5, [r1, #0]
 80a5492:	4315      	orrs	r5, r2

  /* Reset the Output Polarity level */
  tmpccer &= ~TIM_CCER_CC5P;
 80a5494:	f423 3300 	bic.w	r3, r3, #131072	@ 0x20000
  /* Set the Output Compare Polarity */
  tmpccer |= (OC_Config->OCPolarity << 16U);
 80a5498:	688a      	ldr	r2, [r1, #8]
 80a549a:	ea43 4302 	orr.w	r3, r3, r2, lsl #16

  if (IS_TIM_BREAK_INSTANCE(TIMx))
 80a549e:	4a0f      	ldr	r2, [pc, #60]	@ (80a54dc <TIM_OC5_SetConfig+0x64>)
 80a54a0:	4290      	cmp	r0, r2
 80a54a2:	d00f      	beq.n	80a54c4 <TIM_OC5_SetConfig+0x4c>
 80a54a4:	f502 6280 	add.w	r2, r2, #1024	@ 0x400
 80a54a8:	4290      	cmp	r0, r2
 80a54aa:	d00b      	beq.n	80a54c4 <TIM_OC5_SetConfig+0x4c>
 80a54ac:	f502 5270 	add.w	r2, r2, #15360	@ 0x3c00
 80a54b0:	4290      	cmp	r0, r2
 80a54b2:	d007      	beq.n	80a54c4 <TIM_OC5_SetConfig+0x4c>
 80a54b4:	f502 6280 	add.w	r2, r2, #1024	@ 0x400
 80a54b8:	4290      	cmp	r0, r2
 80a54ba:	d003      	beq.n	80a54c4 <TIM_OC5_SetConfig+0x4c>
 80a54bc:	f502 6280 	add.w	r2, r2, #1024	@ 0x400
 80a54c0:	4290      	cmp	r0, r2
 80a54c2:	d104      	bne.n	80a54ce <TIM_OC5_SetConfig+0x56>
  {
    /* Reset the Output Compare IDLE State */
    tmpcr2 &= ~TIM_CR2_OIS5;
 80a54c4:	f424 3480 	bic.w	r4, r4, #65536	@ 0x10000
    /* Set the Output Idle state */
    tmpcr2 |= (OC_Config->OCIdleState << 8U);
 80a54c8:	694a      	ldr	r2, [r1, #20]
 80a54ca:	ea44 2402 	orr.w	r4, r4, r2, lsl #8
  }
  /* Write to TIMx CR2 */
  TIMx->CR2 = tmpcr2;
 80a54ce:	6044      	str	r4, [r0, #4]

  /* Write to TIMx CCMR3 */
  TIMx->CCMR3 = tmpccmrx;
 80a54d0:	6545      	str	r5, [r0, #84]	@ 0x54

  /* Set the Capture Compare Register value */
  TIMx->CCR5 = OC_Config->Pulse;
 80a54d2:	684a      	ldr	r2, [r1, #4]
 80a54d4:	6582      	str	r2, [r0, #88]	@ 0x58

  /* Write to TIMx CCER */
  TIMx->CCER = tmpccer;
 80a54d6:	6203      	str	r3, [r0, #32]
}
 80a54d8:	bc30      	pop	{r4, r5}
 80a54da:	4770      	bx	lr
 80a54dc:	40010000 	.word	0x40010000

080a54e0 <TIM_OC6_SetConfig>:
  * @param  OC_Config The output configuration structure
  * @retval None
  */
static void TIM_OC6_SetConfig(TIM_TypeDef *TIMx,
                              const TIM_OC_InitTypeDef *OC_Config)
{
 80a54e0:	b430      	push	{r4, r5}
  uint32_t tmpccmrx;
  uint32_t tmpccer;
  uint32_t tmpcr2;

  /* Get the TIMx CCER register value */
  tmpccer = TIMx->CCER;
 80a54e2:	6a03      	ldr	r3, [r0, #32]

  /* Disable the output: Reset the CCxE Bit */
  TIMx->CCER &= ~TIM_CCER_CC6E;
 80a54e4:	6a02      	ldr	r2, [r0, #32]
 80a54e6:	f422 1280 	bic.w	r2, r2, #1048576	@ 0x100000
 80a54ea:	6202      	str	r2, [r0, #32]

  /* Get the TIMx CR2 register value */
  tmpcr2 =  TIMx->CR2;
 80a54ec:	6844      	ldr	r4, [r0, #4]
  /* Get the TIMx CCMR1 register value */
  tmpccmrx = TIMx->CCMR3;
 80a54ee:	6d42      	ldr	r2, [r0, #84]	@ 0x54

  /* Reset the Output Compare Mode Bits */
  tmpccmrx &= ~(TIM_CCMR3_OC6M);
 80a54f0:	f022 7280 	bic.w	r2, r2, #16777216	@ 0x1000000
 80a54f4:	f422 42e0 	bic.w	r2, r2, #28672	@ 0x7000
  /* Select the Output Compare Mode */
  tmpccmrx |= (OC_Config->OCMode << 8U);
 80a54f8:	680d      	ldr	r5, [r1, #0]
 80a54fa:	ea42 2205 	orr.w	r2, r2, r5, lsl #8

  /* Reset the Output Polarity level */
  tmpccer &= (uint32_t)~TIM_CCER_CC6P;
 80a54fe:	f423 1300 	bic.w	r3, r3, #2097152	@ 0x200000
  /* Set the Output Compare Polarity */
  tmpccer |= (OC_Config->OCPolarity << 20U);
 80a5502:	688d      	ldr	r5, [r1, #8]
 80a5504:	ea43 5305 	orr.w	r3, r3, r5, lsl #20

  if (IS_TIM_BREAK_INSTANCE(TIMx))
 80a5508:	4d0f      	ldr	r5, [pc, #60]	@ (80a5548 <TIM_OC6_SetConfig+0x68>)
 80a550a:	42a8      	cmp	r0, r5
 80a550c:	d00f      	beq.n	80a552e <TIM_OC6_SetConfig+0x4e>
 80a550e:	f505 6580 	add.w	r5, r5, #1024	@ 0x400
 80a5512:	42a8      	cmp	r0, r5
 80a5514:	d00b      	beq.n	80a552e <TIM_OC6_SetConfig+0x4e>
 80a5516:	f505 5570 	add.w	r5, r5, #15360	@ 0x3c00
 80a551a:	42a8      	cmp	r0, r5
 80a551c:	d007      	beq.n	80a552e <TIM_OC6_SetConfig+0x4e>
 80a551e:	f505 6580 	add.w	r5, r5, #1024	@ 0x400
 80a5522:	42a8      	cmp	r0, r5
 80a5524:	d003      	beq.n	80a552e <TIM_OC6_SetConfig+0x4e>
 80a5526:	f505 6580 	add.w	r5, r5, #1024	@ 0x400
 80a552a:	42a8      	cmp	r0, r5
 80a552c:	d104      	bne.n	80a5538 <TIM_OC6_SetConfig+0x58>
  {
    /* Reset the Output Compare IDLE State */
    tmpcr2 &= ~TIM_CR2_OIS6;
 80a552e:	f424 2480 	bic.w	r4, r4, #262144	@ 0x40000
    /* Set the Output Idle state */
    tmpcr2 |= (OC_Config->OCIdleState << 10U);
 80a5532:	694d      	ldr	r5, [r1, #20]
 80a5534:	ea44 2485 	orr.w	r4, r4, r5, lsl #10
  }

  /* Write to TIMx CR2 */
  TIMx->CR2 = tmpcr2;
 80a5538:	6044      	str	r4, [r0, #4]

  /* Write to TIMx CCMR3 */
  TIMx->CCMR3 = tmpccmrx;
 80a553a:	6542      	str	r2, [r0, #84]	@ 0x54

  /* Set the Capture Compare Register value */
  TIMx->CCR6 = OC_Config->Pulse;
 80a553c:	684a      	ldr	r2, [r1, #4]
 80a553e:	65c2      	str	r2, [r0, #92]	@ 0x5c

  /* Write to TIMx CCER */
  TIMx->CCER = tmpccer;
 80a5540:	6203      	str	r3, [r0, #32]
}
 80a5542:	bc30      	pop	{r4, r5}
 80a5544:	4770      	bx	lr
 80a5546:	bf00      	nop
 80a5548:	40010000 	.word	0x40010000

080a554c <TIM_TI1_ConfigInputStage>:
  * @param  TIM_ICFilter Specifies the Input Capture Filter.
  *          This parameter must be a value between 0x00 and 0x0F.
  * @retval None
  */
static void TIM_TI1_ConfigInputStage(TIM_TypeDef *TIMx, uint32_t TIM_ICPolarity, uint32_t TIM_ICFilter)
{
 80a554c:	b410      	push	{r4}
  uint32_t tmpccmr1;
  uint32_t tmpccer;

  /* Disable the Channel 1: Reset the CC1E Bit */
  tmpccer = TIMx->CCER;
 80a554e:	6a03      	ldr	r3, [r0, #32]
  TIMx->CCER &= ~TIM_CCER_CC1E;
 80a5550:	6a04      	ldr	r4, [r0, #32]
 80a5552:	f024 0401 	bic.w	r4, r4, #1
 80a5556:	6204      	str	r4, [r0, #32]
  tmpccmr1 = TIMx->CCMR1;
 80a5558:	6984      	ldr	r4, [r0, #24]

  /* Set the filter */
  tmpccmr1 &= ~TIM_CCMR1_IC1F;
 80a555a:	f024 0cf0 	bic.w	ip, r4, #240	@ 0xf0
  tmpccmr1 |= (TIM_ICFilter << 4U);
 80a555e:	ea4c 1202 	orr.w	r2, ip, r2, lsl #4

  /* Select the Polarity and set the CC1E Bit */
  tmpccer &= ~(TIM_CCER_CC1P | TIM_CCER_CC1NP);
 80a5562:	f023 030a 	bic.w	r3, r3, #10
  tmpccer |= TIM_ICPolarity;
 80a5566:	430b      	orrs	r3, r1

  /* Write to TIMx CCMR1 and CCER registers */
  TIMx->CCMR1 = tmpccmr1;
 80a5568:	6182      	str	r2, [r0, #24]
  TIMx->CCER = tmpccer;
 80a556a:	6203      	str	r3, [r0, #32]
}
 80a556c:	f85d 4b04 	ldr.w	r4, [sp], #4
 80a5570:	4770      	bx	lr

080a5572 <TIM_TI2_ConfigInputStage>:
  * @param  TIM_ICFilter Specifies the Input Capture Filter.
  *          This parameter must be a value between 0x00 and 0x0F.
  * @retval None
  */
static void TIM_TI2_ConfigInputStage(TIM_TypeDef *TIMx, uint32_t TIM_ICPolarity, uint32_t TIM_ICFilter)
{
 80a5572:	b410      	push	{r4}
  uint32_t tmpccmr1;
  uint32_t tmpccer;

  /* Disable the Channel 2: Reset the CC2E Bit */
  tmpccer = TIMx->CCER;
 80a5574:	6a03      	ldr	r3, [r0, #32]
  TIMx->CCER &= ~TIM_CCER_CC2E;
 80a5576:	6a04      	ldr	r4, [r0, #32]
 80a5578:	f024 0410 	bic.w	r4, r4, #16
 80a557c:	6204      	str	r4, [r0, #32]
  tmpccmr1 = TIMx->CCMR1;
 80a557e:	6984      	ldr	r4, [r0, #24]

  /* Set the filter */
  tmpccmr1 &= ~TIM_CCMR1_IC2F;
 80a5580:	f424 4c70 	bic.w	ip, r4, #61440	@ 0xf000
  tmpccmr1 |= (TIM_ICFilter << 12U);
 80a5584:	ea4c 3202 	orr.w	r2, ip, r2, lsl #12

  /* Select the Polarity and set the CC2E Bit */
  tmpccer &= ~(TIM_CCER_CC2P | TIM_CCER_CC2NP);
 80a5588:	f023 03a0 	bic.w	r3, r3, #160	@ 0xa0
  tmpccer |= (TIM_ICPolarity << 4U);
 80a558c:	ea43 1301 	orr.w	r3, r3, r1, lsl #4

  /* Write to TIMx CCMR1 and CCER registers */
  TIMx->CCMR1 = tmpccmr1 ;
 80a5590:	6182      	str	r2, [r0, #24]
  TIMx->CCER = tmpccer;
 80a5592:	6203      	str	r3, [r0, #32]
}
 80a5594:	f85d 4b04 	ldr.w	r4, [sp], #4
 80a5598:	4770      	bx	lr

080a559a <TIM_ITRx_SetConfig>:
static void TIM_ITRx_SetConfig(TIM_TypeDef *TIMx, uint32_t InputTriggerSource)
{
  uint32_t tmpsmcr;

  /* Get the TIMx SMCR register value */
  tmpsmcr = TIMx->SMCR;
 80a559a:	6883      	ldr	r3, [r0, #8]
  /* Reset the TS Bits */
  tmpsmcr &= ~TIM_SMCR_TS;
 80a559c:	f423 1340 	bic.w	r3, r3, #3145728	@ 0x300000
 80a55a0:	f023 0370 	bic.w	r3, r3, #112	@ 0x70
  /* Set the Input Trigger source and the slave mode*/
  tmpsmcr |= (InputTriggerSource | TIM_SLAVEMODE_EXTERNAL1);
 80a55a4:	430b      	orrs	r3, r1
 80a55a6:	f043 0307 	orr.w	r3, r3, #7
  /* Write to TIMx SMCR */
  TIMx->SMCR = tmpsmcr;
 80a55aa:	6083      	str	r3, [r0, #8]
}
 80a55ac:	4770      	bx	lr
	...

080a55b0 <TIM_Base_SetConfig>:
  tmpcr1 = TIMx->CR1;
 80a55b0:	6803      	ldr	r3, [r0, #0]
  if (IS_TIM_COUNTER_MODE_SELECT_INSTANCE(TIMx))
 80a55b2:	4a32      	ldr	r2, [pc, #200]	@ (80a567c <TIM_Base_SetConfig+0xcc>)
 80a55b4:	4290      	cmp	r0, r2
 80a55b6:	d012      	beq.n	80a55de <TIM_Base_SetConfig+0x2e>
 80a55b8:	f1b0 4f80 	cmp.w	r0, #1073741824	@ 0x40000000
 80a55bc:	d00f      	beq.n	80a55de <TIM_Base_SetConfig+0x2e>
 80a55be:	f5a2 427c 	sub.w	r2, r2, #64512	@ 0xfc00
 80a55c2:	4290      	cmp	r0, r2
 80a55c4:	d00b      	beq.n	80a55de <TIM_Base_SetConfig+0x2e>
 80a55c6:	f502 6280 	add.w	r2, r2, #1024	@ 0x400
 80a55ca:	4290      	cmp	r0, r2
 80a55cc:	d007      	beq.n	80a55de <TIM_Base_SetConfig+0x2e>
 80a55ce:	f502 6280 	add.w	r2, r2, #1024	@ 0x400
 80a55d2:	4290      	cmp	r0, r2
 80a55d4:	d003      	beq.n	80a55de <TIM_Base_SetConfig+0x2e>
 80a55d6:	f502 4278 	add.w	r2, r2, #63488	@ 0xf800
 80a55da:	4290      	cmp	r0, r2
 80a55dc:	d103      	bne.n	80a55e6 <TIM_Base_SetConfig+0x36>
    tmpcr1 &= ~(TIM_CR1_DIR | TIM_CR1_CMS);
 80a55de:	f023 0370 	bic.w	r3, r3, #112	@ 0x70
    tmpcr1 |= Structure->CounterMode;
 80a55e2:	684a      	ldr	r2, [r1, #4]
 80a55e4:	4313      	orrs	r3, r2
  if (IS_TIM_CLOCK_DIVISION_INSTANCE(TIMx))
 80a55e6:	4a25      	ldr	r2, [pc, #148]	@ (80a567c <TIM_Base_SetConfig+0xcc>)
 80a55e8:	4290      	cmp	r0, r2
 80a55ea:	d01e      	beq.n	80a562a <TIM_Base_SetConfig+0x7a>
 80a55ec:	f1b0 4f80 	cmp.w	r0, #1073741824	@ 0x40000000
 80a55f0:	d01b      	beq.n	80a562a <TIM_Base_SetConfig+0x7a>
 80a55f2:	f5a2 427c 	sub.w	r2, r2, #64512	@ 0xfc00
 80a55f6:	4290      	cmp	r0, r2
 80a55f8:	d017      	beq.n	80a562a <TIM_Base_SetConfig+0x7a>
 80a55fa:	f502 6280 	add.w	r2, r2, #1024	@ 0x400
 80a55fe:	4290      	cmp	r0, r2
 80a5600:	d013      	beq.n	80a562a <TIM_Base_SetConfig+0x7a>
 80a5602:	f502 6280 	add.w	r2, r2, #1024	@ 0x400
 80a5606:	4290      	cmp	r0, r2
 80a5608:	d00f      	beq.n	80a562a <TIM_Base_SetConfig+0x7a>
 80a560a:	f502 4278 	add.w	r2, r2, #63488	@ 0xf800
 80a560e:	4290      	cmp	r0, r2
 80a5610:	d00b      	beq.n	80a562a <TIM_Base_SetConfig+0x7a>
 80a5612:	f502 5270 	add.w	r2, r2, #15360	@ 0x3c00
 80a5616:	4290      	cmp	r0, r2
 80a5618:	d007      	beq.n	80a562a <TIM_Base_SetConfig+0x7a>
 80a561a:	f502 6280 	add.w	r2, r2, #1024	@ 0x400
 80a561e:	4290      	cmp	r0, r2
 80a5620:	d003      	beq.n	80a562a <TIM_Base_SetConfig+0x7a>
 80a5622:	f502 6280 	add.w	r2, r2, #1024	@ 0x400
 80a5626:	4290      	cmp	r0, r2
 80a5628:	d103      	bne.n	80a5632 <TIM_Base_SetConfig+0x82>
    tmpcr1 &= ~TIM_CR1_CKD;
 80a562a:	f423 7340 	bic.w	r3, r3, #768	@ 0x300
    tmpcr1 |= (uint32_t)Structure->ClockDivision;
 80a562e:	68ca      	ldr	r2, [r1, #12]
 80a5630:	4313      	orrs	r3, r2
  MODIFY_REG(tmpcr1, TIM_CR1_ARPE, Structure->AutoReloadPreload);
 80a5632:	f023 0380 	bic.w	r3, r3, #128	@ 0x80
 80a5636:	694a      	ldr	r2, [r1, #20]
 80a5638:	4313      	orrs	r3, r2
  TIMx->ARR = (uint32_t)Structure->Period ;
 80a563a:	688a      	ldr	r2, [r1, #8]
 80a563c:	62c2      	str	r2, [r0, #44]	@ 0x2c
  TIMx->PSC = Structure->Prescaler;
 80a563e:	680a      	ldr	r2, [r1, #0]
 80a5640:	6282      	str	r2, [r0, #40]	@ 0x28
  if (IS_TIM_REPETITION_COUNTER_INSTANCE(TIMx))
 80a5642:	4a0e      	ldr	r2, [pc, #56]	@ (80a567c <TIM_Base_SetConfig+0xcc>)
 80a5644:	4290      	cmp	r0, r2
 80a5646:	d00f      	beq.n	80a5668 <TIM_Base_SetConfig+0xb8>
 80a5648:	f502 6280 	add.w	r2, r2, #1024	@ 0x400
 80a564c:	4290      	cmp	r0, r2
 80a564e:	d00b      	beq.n	80a5668 <TIM_Base_SetConfig+0xb8>
 80a5650:	f502 5270 	add.w	r2, r2, #15360	@ 0x3c00
 80a5654:	4290      	cmp	r0, r2
 80a5656:	d007      	beq.n	80a5668 <TIM_Base_SetConfig+0xb8>
 80a5658:	f502 6280 	add.w	r2, r2, #1024	@ 0x400
 80a565c:	4290      	cmp	r0, r2
 80a565e:	d003      	beq.n	80a5668 <TIM_Base_SetConfig+0xb8>
 80a5660:	f502 6280 	add.w	r2, r2, #1024	@ 0x400
 80a5664:	4290      	cmp	r0, r2
 80a5666:	d101      	bne.n	80a566c <TIM_Base_SetConfig+0xbc>
    TIMx->RCR = Structure->RepetitionCounter;
 80a5668:	690a      	ldr	r2, [r1, #16]
 80a566a:	6302      	str	r2, [r0, #48]	@ 0x30
  SET_BIT(TIMx->CR1, TIM_CR1_URS);
 80a566c:	6802      	ldr	r2, [r0, #0]
 80a566e:	f042 0204 	orr.w	r2, r2, #4
 80a5672:	6002      	str	r2, [r0, #0]
  TIMx->EGR = TIM_EGR_UG;
 80a5674:	2201      	movs	r2, #1
 80a5676:	6142      	str	r2, [r0, #20]
  TIMx->CR1 = tmpcr1;
 80a5678:	6003      	str	r3, [r0, #0]
}
 80a567a:	4770      	bx	lr
 80a567c:	40010000 	.word	0x40010000

080a5680 <HAL_TIM_Base_Init>:
  if (htim == NULL)
 80a5680:	b360      	cbz	r0, 80a56dc <HAL_TIM_Base_Init+0x5c>
{
 80a5682:	b510      	push	{r4, lr}
 80a5684:	4604      	mov	r4, r0
  if (htim->State == HAL_TIM_STATE_RESET)
 80a5686:	f890 303d 	ldrb.w	r3, [r0, #61]	@ 0x3d
 80a568a:	b313      	cbz	r3, 80a56d2 <HAL_TIM_Base_Init+0x52>
  htim->State = HAL_TIM_STATE_BUSY;
 80a568c:	2302      	movs	r3, #2
 80a568e:	f884 303d 	strb.w	r3, [r4, #61]	@ 0x3d
  TIM_Base_SetConfig(htim->Instance, &htim->Init);
 80a5692:	4621      	mov	r1, r4
 80a5694:	f851 0b04 	ldr.w	r0, [r1], #4
 80a5698:	f7ff ff8a 	bl	80a55b0 <TIM_Base_SetConfig>
  htim->DMABurstState = HAL_DMA_BURST_STATE_READY;
 80a569c:	2301      	movs	r3, #1
 80a569e:	f884 3048 	strb.w	r3, [r4, #72]	@ 0x48
  TIM_CHANNEL_STATE_SET_ALL(htim, HAL_TIM_CHANNEL_STATE_READY);
 80a56a2:	f884 303e 	strb.w	r3, [r4, #62]	@ 0x3e
 80a56a6:	f884 303f 	strb.w	r3, [r4, #63]	@ 0x3f
 80a56aa:	f884 3040 	strb.w	r3, [r4, #64]	@ 0x40
 80a56ae:	f884 3041 	strb.w	r3, [r4, #65]	@ 0x41
 80a56b2:	f884 3042 	strb.w	r3, [r4, #66]	@ 0x42
 80a56b6:	f884 3043 	strb.w	r3, [r4, #67]	@ 0x43
  TIM_CHANNEL_N_STATE_SET_ALL(htim, HAL_TIM_CHANNEL_STATE_READY);
 80a56ba:	f884 3044 	strb.w	r3, [r4, #68]	@ 0x44
 80a56be:	f884 3045 	strb.w	r3, [r4, #69]	@ 0x45
 80a56c2:	f884 3046 	strb.w	r3, [r4, #70]	@ 0x46
 80a56c6:	f884 3047 	strb.w	r3, [r4, #71]	@ 0x47
  htim->State = HAL_TIM_STATE_READY;
 80a56ca:	f884 303d 	strb.w	r3, [r4, #61]	@ 0x3d
  return HAL_OK;
 80a56ce:	2000      	movs	r0, #0
}
 80a56d0:	bd10      	pop	{r4, pc}
    htim->Lock = HAL_UNLOCKED;
 80a56d2:	f880 303c 	strb.w	r3, [r0, #60]	@ 0x3c
    HAL_TIM_Base_MspInit(htim);
 80a56d6:	f7fb ff8d 	bl	80a15f4 <HAL_TIM_Base_MspInit>
 80a56da:	e7d7      	b.n	80a568c <HAL_TIM_Base_Init+0xc>
    return HAL_ERROR;
 80a56dc:	2001      	movs	r0, #1
}
 80a56de:	4770      	bx	lr

080a56e0 <HAL_TIM_PWM_Init>:
  if (htim == NULL)
 80a56e0:	b360      	cbz	r0, 80a573c <HAL_TIM_PWM_Init+0x5c>
{
 80a56e2:	b510      	push	{r4, lr}
 80a56e4:	4604      	mov	r4, r0
  if (htim->State == HAL_TIM_STATE_RESET)
 80a56e6:	f890 303d 	ldrb.w	r3, [r0, #61]	@ 0x3d
 80a56ea:	b313      	cbz	r3, 80a5732 <HAL_TIM_PWM_Init+0x52>
  htim->State = HAL_TIM_STATE_BUSY;
 80a56ec:	2302      	movs	r3, #2
 80a56ee:	f884 303d 	strb.w	r3, [r4, #61]	@ 0x3d
  TIM_Base_SetConfig(htim->Instance, &htim->Init);
 80a56f2:	4621      	mov	r1, r4
 80a56f4:	f851 0b04 	ldr.w	r0, [r1], #4
 80a56f8:	f7ff ff5a 	bl	80a55b0 <TIM_Base_SetConfig>
  htim->DMABurstState = HAL_DMA_BURST_STATE_READY;
 80a56fc:	2301      	movs	r3, #1
 80a56fe:	f884 3048 	strb.w	r3, [r4, #72]	@ 0x48
  TIM_CHANNEL_STATE_SET_ALL(htim, HAL_TIM_CHANNEL_STATE_READY);
 80a5702:	f884 303e 	strb.w	r3, [r4, #62]	@ 0x3e
 80a5706:	f884 303f 	strb.w	r3, [r4, #63]	@ 0x3f
 80a570a:	f884 3040 	strb.w	r3, [r4, #64]	@ 0x40
 80a570e:	f884 3041 	strb.w	r3, [r4, #65]	@ 0x41
 80a5712:	f884 3042 	strb.w	r3, [r4, #66]	@ 0x42
 80a5716:	f884 3043 	strb.w	r3, [r4, #67]	@ 0x43
  TIM_CHANNEL_N_STATE_SET_ALL(htim, HAL_TIM_CHANNEL_STATE_READY);
 80a571a:	f884 3044 	strb.w	r3, [r4, #68]	@ 0x44
 80a571e:	f884 3045 	strb.w	r3, [r4, #69]	@ 0x45
 80a5722:	f884 3046 	strb.w	r3, [r4, #70]	@ 0x46
 80a5726:	f884 3047 	strb.w	r3, [r4, #71]	@ 0x47
  htim->State = HAL_TIM_STATE_READY;
 80a572a:	f884 303d 	strb.w	r3, [r4, #61]	@ 0x3d
  return HAL_OK;
 80a572e:	2000      	movs	r0, #0
}
 80a5730:	bd10      	pop	{r4, pc}
    htim->Lock = HAL_UNLOCKED;
 80a5732:	f880 303c 	strb.w	r3, [r0, #60]	@ 0x3c
    HAL_TIM_PWM_MspInit(htim);
 80a5736:	f7fb ff75 	bl	80a1624 <HAL_TIM_PWM_MspInit>
 80a573a:	e7d7      	b.n	80a56ec <HAL_TIM_PWM_Init+0xc>
    return HAL_ERROR;
 80a573c:	2001      	movs	r0, #1
}
 80a573e:	4770      	bx	lr

080a5740 <TIM_OC2_SetConfig>:
{
 80a5740:	b430      	push	{r4, r5}
  tmpccer = TIMx->CCER;
 80a5742:	6a03      	ldr	r3, [r0, #32]
  TIMx->CCER &= ~TIM_CCER_CC2E;
 80a5744:	6a02      	ldr	r2, [r0, #32]
 80a5746:	f022 0210 	bic.w	r2, r2, #16
 80a574a:	6202      	str	r2, [r0, #32]
  tmpcr2 =  TIMx->CR2;
 80a574c:	6844      	ldr	r4, [r0, #4]
  tmpccmrx = TIMx->CCMR1;
 80a574e:	6982      	ldr	r2, [r0, #24]
  tmpccmrx &= ~TIM_CCMR1_CC2S;
 80a5750:	f022 7280 	bic.w	r2, r2, #16777216	@ 0x1000000
 80a5754:	f422 42e6 	bic.w	r2, r2, #29440	@ 0x7300
  tmpccmrx |= (OC_Config->OCMode << 8U);
 80a5758:	680d      	ldr	r5, [r1, #0]
 80a575a:	ea42 2205 	orr.w	r2, r2, r5, lsl #8
  tmpccer &= ~TIM_CCER_CC2P;
 80a575e:	f023 0320 	bic.w	r3, r3, #32
  tmpccer |= (OC_Config->OCPolarity << 4U);
 80a5762:	688d      	ldr	r5, [r1, #8]
 80a5764:	ea43 1305 	orr.w	r3, r3, r5, lsl #4
  if (IS_TIM_CCXN_INSTANCE(TIMx, TIM_CHANNEL_2))
 80a5768:	4d17      	ldr	r5, [pc, #92]	@ (80a57c8 <TIM_OC2_SetConfig+0x88>)
 80a576a:	42a8      	cmp	r0, r5
 80a576c:	d003      	beq.n	80a5776 <TIM_OC2_SetConfig+0x36>
 80a576e:	f505 6580 	add.w	r5, r5, #1024	@ 0x400
 80a5772:	42a8      	cmp	r0, r5
 80a5774:	d106      	bne.n	80a5784 <TIM_OC2_SetConfig+0x44>
    tmpccer &= ~TIM_CCER_CC2NP;
 80a5776:	f023 0380 	bic.w	r3, r3, #128	@ 0x80
    tmpccer |= (OC_Config->OCNPolarity << 4U);
 80a577a:	68cd      	ldr	r5, [r1, #12]
 80a577c:	ea43 1305 	orr.w	r3, r3, r5, lsl #4
    tmpccer &= ~TIM_CCER_CC2NE;
 80a5780:	f023 0340 	bic.w	r3, r3, #64	@ 0x40
  if (IS_TIM_BREAK_INSTANCE(TIMx))
 80a5784:	4d10      	ldr	r5, [pc, #64]	@ (80a57c8 <TIM_OC2_SetConfig+0x88>)
 80a5786:	42a8      	cmp	r0, r5
 80a5788:	d00f      	beq.n	80a57aa <TIM_OC2_SetConfig+0x6a>
 80a578a:	f505 6580 	add.w	r5, r5, #1024	@ 0x400
 80a578e:	42a8      	cmp	r0, r5
 80a5790:	d00b      	beq.n	80a57aa <TIM_OC2_SetConfig+0x6a>
 80a5792:	f505 5570 	add.w	r5, r5, #15360	@ 0x3c00
 80a5796:	42a8      	cmp	r0, r5
 80a5798:	d007      	beq.n	80a57aa <TIM_OC2_SetConfig+0x6a>
 80a579a:	f505 6580 	add.w	r5, r5, #1024	@ 0x400
 80a579e:	42a8      	cmp	r0, r5
 80a57a0:	d003      	beq.n	80a57aa <TIM_OC2_SetConfig+0x6a>
 80a57a2:	f505 6580 	add.w	r5, r5, #1024	@ 0x400
 80a57a6:	42a8      	cmp	r0, r5
 80a57a8:	d107      	bne.n	80a57ba <TIM_OC2_SetConfig+0x7a>
    tmpcr2 &= ~TIM_CR2_OIS2N;
 80a57aa:	f424 6c40 	bic.w	ip, r4, #3072	@ 0xc00
    tmpcr2 |= (OC_Config->OCIdleState << 2U);
 80a57ae:	694c      	ldr	r4, [r1, #20]
 80a57b0:	ea4c 0c84 	orr.w	ip, ip, r4, lsl #2
    tmpcr2 |= (OC_Config->OCNIdleState << 2U);
 80a57b4:	698c      	ldr	r4, [r1, #24]
 80a57b6:	ea4c 0484 	orr.w	r4, ip, r4, lsl #2
  TIMx->CR2 = tmpcr2;
 80a57ba:	6044      	str	r4, [r0, #4]
  TIMx->CCMR1 = tmpccmrx;
 80a57bc:	6182      	str	r2, [r0, #24]
  TIMx->CCR2 = OC_Config->Pulse;
 80a57be:	684a      	ldr	r2, [r1, #4]
 80a57c0:	6382      	str	r2, [r0, #56]	@ 0x38
  TIMx->CCER = tmpccer;
 80a57c2:	6203      	str	r3, [r0, #32]
}
 80a57c4:	bc30      	pop	{r4, r5}
 80a57c6:	4770      	bx	lr
 80a57c8:	40010000 	.word	0x40010000

080a57cc <HAL_TIM_PWM_ConfigChannel>:
{
 80a57cc:	b538      	push	{r3, r4, r5, lr}
  __HAL_LOCK(htim);
 80a57ce:	f890 303c 	ldrb.w	r3, [r0, #60]	@ 0x3c
 80a57d2:	2b01      	cmp	r3, #1
 80a57d4:	f000 8095 	beq.w	80a5902 <HAL_TIM_PWM_ConfigChannel+0x136>
 80a57d8:	4604      	mov	r4, r0
 80a57da:	460d      	mov	r5, r1
 80a57dc:	2301      	movs	r3, #1
 80a57de:	f880 303c 	strb.w	r3, [r0, #60]	@ 0x3c
  switch (Channel)
 80a57e2:	2a14      	cmp	r2, #20
 80a57e4:	f200 8088 	bhi.w	80a58f8 <HAL_TIM_PWM_ConfigChannel+0x12c>
 80a57e8:	e8df f002 	tbb	[pc, r2]
 80a57ec:	8686860b 	.word	0x8686860b
 80a57f0:	8686861f 	.word	0x8686861f
 80a57f4:	86868634 	.word	0x86868634
 80a57f8:	86868648 	.word	0x86868648
 80a57fc:	8686865d 	.word	0x8686865d
 80a5800:	71          	.byte	0x71
 80a5801:	00          	.byte	0x00
      TIM_OC1_SetConfig(htim->Instance, sConfig);
 80a5802:	6800      	ldr	r0, [r0, #0]
 80a5804:	f7ff fd6e 	bl	80a52e4 <TIM_OC1_SetConfig>
      htim->Instance->CCMR1 |= TIM_CCMR1_OC1PE;
 80a5808:	6822      	ldr	r2, [r4, #0]
 80a580a:	6993      	ldr	r3, [r2, #24]
 80a580c:	f043 0308 	orr.w	r3, r3, #8
 80a5810:	6193      	str	r3, [r2, #24]
      htim->Instance->CCMR1 &= ~TIM_CCMR1_OC1FE;
 80a5812:	6822      	ldr	r2, [r4, #0]
 80a5814:	6993      	ldr	r3, [r2, #24]
 80a5816:	f023 0304 	bic.w	r3, r3, #4
 80a581a:	6193      	str	r3, [r2, #24]
      htim->Instance->CCMR1 |= sConfig->OCFastMode;
 80a581c:	6822      	ldr	r2, [r4, #0]
 80a581e:	6993      	ldr	r3, [r2, #24]
 80a5820:	6929      	ldr	r1, [r5, #16]
 80a5822:	430b      	orrs	r3, r1
 80a5824:	6193      	str	r3, [r2, #24]
  HAL_StatusTypeDef status = HAL_OK;
 80a5826:	2000      	movs	r0, #0
      break;
 80a5828:	e067      	b.n	80a58fa <HAL_TIM_PWM_ConfigChannel+0x12e>
      TIM_OC2_SetConfig(htim->Instance, sConfig);
 80a582a:	6800      	ldr	r0, [r0, #0]
 80a582c:	f7ff ff88 	bl	80a5740 <TIM_OC2_SetConfig>
      htim->Instance->CCMR1 |= TIM_CCMR1_OC2PE;
 80a5830:	6822      	ldr	r2, [r4, #0]
 80a5832:	6993      	ldr	r3, [r2, #24]
 80a5834:	f443 6300 	orr.w	r3, r3, #2048	@ 0x800
 80a5838:	6193      	str	r3, [r2, #24]
      htim->Instance->CCMR1 &= ~TIM_CCMR1_OC2FE;
 80a583a:	6822      	ldr	r2, [r4, #0]
 80a583c:	6993      	ldr	r3, [r2, #24]
 80a583e:	f423 6380 	bic.w	r3, r3, #1024	@ 0x400
 80a5842:	6193      	str	r3, [r2, #24]
      htim->Instance->CCMR1 |= sConfig->OCFastMode << 8U;
 80a5844:	6822      	ldr	r2, [r4, #0]
 80a5846:	6993      	ldr	r3, [r2, #24]
 80a5848:	6929      	ldr	r1, [r5, #16]
 80a584a:	ea43 2301 	orr.w	r3, r3, r1, lsl #8
 80a584e:	6193      	str	r3, [r2, #24]
  HAL_StatusTypeDef status = HAL_OK;
 80a5850:	2000      	movs	r0, #0
      break;
 80a5852:	e052      	b.n	80a58fa <HAL_TIM_PWM_ConfigChannel+0x12e>
      TIM_OC3_SetConfig(htim->Instance, sConfig);
 80a5854:	6800      	ldr	r0, [r0, #0]
 80a5856:	f7ff fd93 	bl	80a5380 <TIM_OC3_SetConfig>
      htim->Instance->CCMR2 |= TIM_CCMR2_OC3PE;
 80a585a:	6822      	ldr	r2, [r4, #0]
 80a585c:	69d3      	ldr	r3, [r2, #28]
 80a585e:	f043 0308 	orr.w	r3, r3, #8
 80a5862:	61d3      	str	r3, [r2, #28]
      htim->Instance->CCMR2 &= ~TIM_CCMR2_OC3FE;
 80a5864:	6822      	ldr	r2, [r4, #0]
 80a5866:	69d3      	ldr	r3, [r2, #28]
 80a5868:	f023 0304 	bic.w	r3, r3, #4
 80a586c:	61d3      	str	r3, [r2, #28]
      htim->Instance->CCMR2 |= sConfig->OCFastMode;
 80a586e:	6822      	ldr	r2, [r4, #0]
 80a5870:	69d3      	ldr	r3, [r2, #28]
 80a5872:	6929      	ldr	r1, [r5, #16]
 80a5874:	430b      	orrs	r3, r1
 80a5876:	61d3      	str	r3, [r2, #28]
  HAL_StatusTypeDef status = HAL_OK;
 80a5878:	2000      	movs	r0, #0
      break;
 80a587a:	e03e      	b.n	80a58fa <HAL_TIM_PWM_ConfigChannel+0x12e>
      TIM_OC4_SetConfig(htim->Instance, sConfig);
 80a587c:	6800      	ldr	r0, [r0, #0]
 80a587e:	f7ff fdc5 	bl	80a540c <TIM_OC4_SetConfig>
      htim->Instance->CCMR2 |= TIM_CCMR2_OC4PE;
 80a5882:	6822      	ldr	r2, [r4, #0]
 80a5884:	69d3      	ldr	r3, [r2, #28]
 80a5886:	f443 6300 	orr.w	r3, r3, #2048	@ 0x800
 80a588a:	61d3      	str	r3, [r2, #28]
      htim->Instance->CCMR2 &= ~TIM_CCMR2_OC4FE;
 80a588c:	6822      	ldr	r2, [r4, #0]
 80a588e:	69d3      	ldr	r3, [r2, #28]
 80a5890:	f423 6380 	bic.w	r3, r3, #1024	@ 0x400
 80a5894:	61d3      	str	r3, [r2, #28]
      htim->Instance->CCMR2 |= sConfig->OCFastMode << 8U;
 80a5896:	6822      	ldr	r2, [r4, #0]
 80a5898:	69d3      	ldr	r3, [r2, #28]
 80a589a:	6929      	ldr	r1, [r5, #16]
 80a589c:	ea43 2301 	orr.w	r3, r3, r1, lsl #8
 80a58a0:	61d3      	str	r3, [r2, #28]
  HAL_StatusTypeDef status = HAL_OK;
 80a58a2:	2000      	movs	r0, #0
      break;
 80a58a4:	e029      	b.n	80a58fa <HAL_TIM_PWM_ConfigChannel+0x12e>
      TIM_OC5_SetConfig(htim->Instance, sConfig);
 80a58a6:	6800      	ldr	r0, [r0, #0]
 80a58a8:	f7ff fde6 	bl	80a5478 <TIM_OC5_SetConfig>
      htim->Instance->CCMR3 |= TIM_CCMR3_OC5PE;
 80a58ac:	6822      	ldr	r2, [r4, #0]
 80a58ae:	6d53      	ldr	r3, [r2, #84]	@ 0x54
 80a58b0:	f043 0308 	orr.w	r3, r3, #8
 80a58b4:	6553      	str	r3, [r2, #84]	@ 0x54
      htim->Instance->CCMR3 &= ~TIM_CCMR3_OC5FE;
 80a58b6:	6822      	ldr	r2, [r4, #0]
 80a58b8:	6d53      	ldr	r3, [r2, #84]	@ 0x54
 80a58ba:	f023 0304 	bic.w	r3, r3, #4
 80a58be:	6553      	str	r3, [r2, #84]	@ 0x54
      htim->Instance->CCMR3 |= sConfig->OCFastMode;
 80a58c0:	6822      	ldr	r2, [r4, #0]
 80a58c2:	6d53      	ldr	r3, [r2, #84]	@ 0x54
 80a58c4:	6929      	ldr	r1, [r5, #16]
 80a58c6:	430b      	orrs	r3, r1
 80a58c8:	6553      	str	r3, [r2, #84]	@ 0x54
  HAL_StatusTypeDef status = HAL_OK;
 80a58ca:	2000      	movs	r0, #0
      break;
 80a58cc:	e015      	b.n	80a58fa <HAL_TIM_PWM_ConfigChannel+0x12e>
      TIM_OC6_SetConfig(htim->Instance, sConfig);
 80a58ce:	6800      	ldr	r0, [r0, #0]
 80a58d0:	f7ff fe06 	bl	80a54e0 <TIM_OC6_SetConfig>
      htim->Instance->CCMR3 |= TIM_CCMR3_OC6PE;
 80a58d4:	6822      	ldr	r2, [r4, #0]
 80a58d6:	6d53      	ldr	r3, [r2, #84]	@ 0x54
 80a58d8:	f443 6300 	orr.w	r3, r3, #2048	@ 0x800
 80a58dc:	6553      	str	r3, [r2, #84]	@ 0x54
      htim->Instance->CCMR3 &= ~TIM_CCMR3_OC6FE;
 80a58de:	6822      	ldr	r2, [r4, #0]
 80a58e0:	6d53      	ldr	r3, [r2, #84]	@ 0x54
 80a58e2:	f423 6380 	bic.w	r3, r3, #1024	@ 0x400
 80a58e6:	6553      	str	r3, [r2, #84]	@ 0x54
      htim->Instance->CCMR3 |= sConfig->OCFastMode << 8U;
 80a58e8:	6822      	ldr	r2, [r4, #0]
 80a58ea:	6d53      	ldr	r3, [r2, #84]	@ 0x54
 80a58ec:	6929      	ldr	r1, [r5, #16]
 80a58ee:	ea43 2301 	orr.w	r3, r3, r1, lsl #8
 80a58f2:	6553      	str	r3, [r2, #84]	@ 0x54
  HAL_StatusTypeDef status = HAL_OK;
 80a58f4:	2000      	movs	r0, #0
      break;
 80a58f6:	e000      	b.n	80a58fa <HAL_TIM_PWM_ConfigChannel+0x12e>
  switch (Channel)
 80a58f8:	2001      	movs	r0, #1
  __HAL_UNLOCK(htim);
 80a58fa:	2300      	movs	r3, #0
 80a58fc:	f884 303c 	strb.w	r3, [r4, #60]	@ 0x3c
}
 80a5900:	bd38      	pop	{r3, r4, r5, pc}
  __HAL_LOCK(htim);
 80a5902:	2002      	movs	r0, #2
 80a5904:	e7fc      	b.n	80a5900 <HAL_TIM_PWM_ConfigChannel+0x134>

080a5906 <TIM_ETR_SetConfig>:
  *          This parameter must be a value between 0x00 and 0x0F
  * @retval None
  */
void TIM_ETR_SetConfig(TIM_TypeDef *TIMx, uint32_t TIM_ExtTRGPrescaler,
                       uint32_t TIM_ExtTRGPolarity, uint32_t ExtTRGFilter)
{
 80a5906:	b410      	push	{r4}
  uint32_t tmpsmcr;

  tmpsmcr = TIMx->SMCR;
 80a5908:	6884      	ldr	r4, [r0, #8]

  /* Reset the ETR Bits */
  tmpsmcr &= ~(TIM_SMCR_ETF | TIM_SMCR_ETPS | TIM_SMCR_ECE | TIM_SMCR_ETP);
 80a590a:	f424 4c7f 	bic.w	ip, r4, #65280	@ 0xff00

  /* Set the Prescaler, the Filter value and the Polarity */
  tmpsmcr |= (uint32_t)(TIM_ExtTRGPrescaler | (TIM_ExtTRGPolarity | (ExtTRGFilter << 8U)));
 80a590e:	ea42 2203 	orr.w	r2, r2, r3, lsl #8
 80a5912:	430a      	orrs	r2, r1
 80a5914:	ea42 020c 	orr.w	r2, r2, ip

  /* Write to TIMx SMCR */
  TIMx->SMCR = tmpsmcr;
 80a5918:	6082      	str	r2, [r0, #8]
}
 80a591a:	f85d 4b04 	ldr.w	r4, [sp], #4
 80a591e:	4770      	bx	lr

080a5920 <HAL_TIM_ConfigClockSource>:
  __HAL_LOCK(htim);
 80a5920:	f890 303c 	ldrb.w	r3, [r0, #60]	@ 0x3c
 80a5924:	2b01      	cmp	r3, #1
 80a5926:	f000 808f 	beq.w	80a5a48 <HAL_TIM_ConfigClockSource+0x128>
{
 80a592a:	b510      	push	{r4, lr}
 80a592c:	4604      	mov	r4, r0
  __HAL_LOCK(htim);
 80a592e:	2301      	movs	r3, #1
 80a5930:	f880 303c 	strb.w	r3, [r0, #60]	@ 0x3c
  htim->State = HAL_TIM_STATE_BUSY;
 80a5934:	2302      	movs	r3, #2
 80a5936:	f880 303d 	strb.w	r3, [r0, #61]	@ 0x3d
  tmpsmcr = htim->Instance->SMCR;
 80a593a:	6802      	ldr	r2, [r0, #0]
 80a593c:	6890      	ldr	r0, [r2, #8]
  tmpsmcr &= ~(TIM_SMCR_ETF | TIM_SMCR_ETPS | TIM_SMCR_ECE | TIM_SMCR_ETP);
 80a593e:	4b43      	ldr	r3, [pc, #268]	@ (80a5a4c <HAL_TIM_ConfigClockSource+0x12c>)
 80a5940:	4003      	ands	r3, r0
  htim->Instance->SMCR = tmpsmcr;
 80a5942:	6093      	str	r3, [r2, #8]
  switch (sClockSourceConfig->ClockSource)
 80a5944:	680b      	ldr	r3, [r1, #0]
 80a5946:	2b70      	cmp	r3, #112	@ 0x70
 80a5948:	d055      	beq.n	80a59f6 <HAL_TIM_ConfigClockSource+0xd6>
 80a594a:	d831      	bhi.n	80a59b0 <HAL_TIM_ConfigClockSource+0x90>
 80a594c:	2b50      	cmp	r3, #80	@ 0x50
 80a594e:	d06c      	beq.n	80a5a2a <HAL_TIM_ConfigClockSource+0x10a>
 80a5950:	d81f      	bhi.n	80a5992 <HAL_TIM_ConfigClockSource+0x72>
 80a5952:	2b40      	cmp	r3, #64	@ 0x40
 80a5954:	d10a      	bne.n	80a596c <HAL_TIM_ConfigClockSource+0x4c>
      TIM_TI1_ConfigInputStage(htim->Instance,
 80a5956:	68ca      	ldr	r2, [r1, #12]
 80a5958:	6849      	ldr	r1, [r1, #4]
 80a595a:	6820      	ldr	r0, [r4, #0]
 80a595c:	f7ff fdf6 	bl	80a554c <TIM_TI1_ConfigInputStage>
      TIM_ITRx_SetConfig(htim->Instance, TIM_CLOCKSOURCE_TI1ED);
 80a5960:	2140      	movs	r1, #64	@ 0x40
 80a5962:	6820      	ldr	r0, [r4, #0]
 80a5964:	f7ff fe19 	bl	80a559a <TIM_ITRx_SetConfig>
  HAL_StatusTypeDef status = HAL_OK;
 80a5968:	2000      	movs	r0, #0
      break;
 80a596a:	e029      	b.n	80a59c0 <HAL_TIM_ConfigClockSource+0xa0>
  switch (sClockSourceConfig->ClockSource)
 80a596c:	d868      	bhi.n	80a5a40 <HAL_TIM_ConfigClockSource+0x120>
 80a596e:	2b20      	cmp	r3, #32
 80a5970:	d003      	beq.n	80a597a <HAL_TIM_ConfigClockSource+0x5a>
 80a5972:	d80a      	bhi.n	80a598a <HAL_TIM_ConfigClockSource+0x6a>
 80a5974:	b10b      	cbz	r3, 80a597a <HAL_TIM_ConfigClockSource+0x5a>
 80a5976:	2b10      	cmp	r3, #16
 80a5978:	d105      	bne.n	80a5986 <HAL_TIM_ConfigClockSource+0x66>
      TIM_ITRx_SetConfig(htim->Instance, sClockSourceConfig->ClockSource);
 80a597a:	4619      	mov	r1, r3
 80a597c:	6820      	ldr	r0, [r4, #0]
 80a597e:	f7ff fe0c 	bl	80a559a <TIM_ITRx_SetConfig>
  HAL_StatusTypeDef status = HAL_OK;
 80a5982:	2000      	movs	r0, #0
      break;
 80a5984:	e01c      	b.n	80a59c0 <HAL_TIM_ConfigClockSource+0xa0>
      status = HAL_ERROR;
 80a5986:	2001      	movs	r0, #1
 80a5988:	e01a      	b.n	80a59c0 <HAL_TIM_ConfigClockSource+0xa0>
  switch (sClockSourceConfig->ClockSource)
 80a598a:	2b30      	cmp	r3, #48	@ 0x30
 80a598c:	d0f5      	beq.n	80a597a <HAL_TIM_ConfigClockSource+0x5a>
      status = HAL_ERROR;
 80a598e:	2001      	movs	r0, #1
 80a5990:	e016      	b.n	80a59c0 <HAL_TIM_ConfigClockSource+0xa0>
  switch (sClockSourceConfig->ClockSource)
 80a5992:	2b60      	cmp	r3, #96	@ 0x60
 80a5994:	d10a      	bne.n	80a59ac <HAL_TIM_ConfigClockSource+0x8c>
      TIM_TI2_ConfigInputStage(htim->Instance,
 80a5996:	68ca      	ldr	r2, [r1, #12]
 80a5998:	6849      	ldr	r1, [r1, #4]
 80a599a:	6820      	ldr	r0, [r4, #0]
 80a599c:	f7ff fde9 	bl	80a5572 <TIM_TI2_ConfigInputStage>
      TIM_ITRx_SetConfig(htim->Instance, TIM_CLOCKSOURCE_TI2);
 80a59a0:	2160      	movs	r1, #96	@ 0x60
 80a59a2:	6820      	ldr	r0, [r4, #0]
 80a59a4:	f7ff fdf9 	bl	80a559a <TIM_ITRx_SetConfig>
  HAL_StatusTypeDef status = HAL_OK;
 80a59a8:	2000      	movs	r0, #0
      break;
 80a59aa:	e009      	b.n	80a59c0 <HAL_TIM_ConfigClockSource+0xa0>
      status = HAL_ERROR;
 80a59ac:	2001      	movs	r0, #1
 80a59ae:	e007      	b.n	80a59c0 <HAL_TIM_ConfigClockSource+0xa0>
  switch (sClockSourceConfig->ClockSource)
 80a59b0:	f5b3 5f00 	cmp.w	r3, #8192	@ 0x2000
 80a59b4:	d02c      	beq.n	80a5a10 <HAL_TIM_ConfigClockSource+0xf0>
 80a59b6:	d80a      	bhi.n	80a59ce <HAL_TIM_ConfigClockSource+0xae>
 80a59b8:	f5b3 5f80 	cmp.w	r3, #4096	@ 0x1000
 80a59bc:	d142      	bne.n	80a5a44 <HAL_TIM_ConfigClockSource+0x124>
 80a59be:	2000      	movs	r0, #0
  htim->State = HAL_TIM_STATE_READY;
 80a59c0:	2301      	movs	r3, #1
 80a59c2:	f884 303d 	strb.w	r3, [r4, #61]	@ 0x3d
  __HAL_UNLOCK(htim);
 80a59c6:	2300      	movs	r3, #0
 80a59c8:	f884 303c 	strb.w	r3, [r4, #60]	@ 0x3c
}
 80a59cc:	bd10      	pop	{r4, pc}
  switch (sClockSourceConfig->ClockSource)
 80a59ce:	4a20      	ldr	r2, [pc, #128]	@ (80a5a50 <HAL_TIM_ConfigClockSource+0x130>)
 80a59d0:	4293      	cmp	r3, r2
 80a59d2:	d0d2      	beq.n	80a597a <HAL_TIM_ConfigClockSource+0x5a>
 80a59d4:	d807      	bhi.n	80a59e6 <HAL_TIM_ConfigClockSource+0xc6>
 80a59d6:	f5b3 1f80 	cmp.w	r3, #1048576	@ 0x100000
 80a59da:	d0ce      	beq.n	80a597a <HAL_TIM_ConfigClockSource+0x5a>
 80a59dc:	f1b3 1f10 	cmp.w	r3, #1048592	@ 0x100010
 80a59e0:	d0cb      	beq.n	80a597a <HAL_TIM_ConfigClockSource+0x5a>
      status = HAL_ERROR;
 80a59e2:	2001      	movs	r0, #1
 80a59e4:	e7ec      	b.n	80a59c0 <HAL_TIM_ConfigClockSource+0xa0>
  switch (sClockSourceConfig->ClockSource)
 80a59e6:	4a1b      	ldr	r2, [pc, #108]	@ (80a5a54 <HAL_TIM_ConfigClockSource+0x134>)
 80a59e8:	4293      	cmp	r3, r2
 80a59ea:	d0c6      	beq.n	80a597a <HAL_TIM_ConfigClockSource+0x5a>
 80a59ec:	3210      	adds	r2, #16
 80a59ee:	4293      	cmp	r3, r2
 80a59f0:	d0c3      	beq.n	80a597a <HAL_TIM_ConfigClockSource+0x5a>
      status = HAL_ERROR;
 80a59f2:	2001      	movs	r0, #1
 80a59f4:	e7e4      	b.n	80a59c0 <HAL_TIM_ConfigClockSource+0xa0>
      TIM_ETR_SetConfig(htim->Instance,
 80a59f6:	68cb      	ldr	r3, [r1, #12]
 80a59f8:	684a      	ldr	r2, [r1, #4]
 80a59fa:	6889      	ldr	r1, [r1, #8]
 80a59fc:	6820      	ldr	r0, [r4, #0]
 80a59fe:	f7ff ff82 	bl	80a5906 <TIM_ETR_SetConfig>
      tmpsmcr = htim->Instance->SMCR;
 80a5a02:	6822      	ldr	r2, [r4, #0]
 80a5a04:	6893      	ldr	r3, [r2, #8]
      tmpsmcr |= (TIM_SLAVEMODE_EXTERNAL1 | TIM_CLOCKSOURCE_ETRMODE1);
 80a5a06:	f043 0377 	orr.w	r3, r3, #119	@ 0x77
      htim->Instance->SMCR = tmpsmcr;
 80a5a0a:	6093      	str	r3, [r2, #8]
  HAL_StatusTypeDef status = HAL_OK;
 80a5a0c:	2000      	movs	r0, #0
      break;
 80a5a0e:	e7d7      	b.n	80a59c0 <HAL_TIM_ConfigClockSource+0xa0>
      TIM_ETR_SetConfig(htim->Instance,
 80a5a10:	68cb      	ldr	r3, [r1, #12]
 80a5a12:	684a      	ldr	r2, [r1, #4]
 80a5a14:	6889      	ldr	r1, [r1, #8]
 80a5a16:	6820      	ldr	r0, [r4, #0]
 80a5a18:	f7ff ff75 	bl	80a5906 <TIM_ETR_SetConfig>
      htim->Instance->SMCR |= TIM_SMCR_ECE;
 80a5a1c:	6822      	ldr	r2, [r4, #0]
 80a5a1e:	6893      	ldr	r3, [r2, #8]
 80a5a20:	f443 4380 	orr.w	r3, r3, #16384	@ 0x4000
 80a5a24:	6093      	str	r3, [r2, #8]
  HAL_StatusTypeDef status = HAL_OK;
 80a5a26:	2000      	movs	r0, #0
      break;
 80a5a28:	e7ca      	b.n	80a59c0 <HAL_TIM_ConfigClockSource+0xa0>
      TIM_TI1_ConfigInputStage(htim->Instance,
 80a5a2a:	68ca      	ldr	r2, [r1, #12]
 80a5a2c:	6849      	ldr	r1, [r1, #4]
 80a5a2e:	6820      	ldr	r0, [r4, #0]
 80a5a30:	f7ff fd8c 	bl	80a554c <TIM_TI1_ConfigInputStage>
      TIM_ITRx_SetConfig(htim->Instance, TIM_CLOCKSOURCE_TI1);
 80a5a34:	2150      	movs	r1, #80	@ 0x50
 80a5a36:	6820      	ldr	r0, [r4, #0]
 80a5a38:	f7ff fdaf 	bl	80a559a <TIM_ITRx_SetConfig>
  HAL_StatusTypeDef status = HAL_OK;
 80a5a3c:	2000      	movs	r0, #0
      break;
 80a5a3e:	e7bf      	b.n	80a59c0 <HAL_TIM_ConfigClockSource+0xa0>
      status = HAL_ERROR;
 80a5a40:	2001      	movs	r0, #1
 80a5a42:	e7bd      	b.n	80a59c0 <HAL_TIM_ConfigClockSource+0xa0>
 80a5a44:	2001      	movs	r0, #1
 80a5a46:	e7bb      	b.n	80a59c0 <HAL_TIM_ConfigClockSource+0xa0>
  __HAL_LOCK(htim);
 80a5a48:	2002      	movs	r0, #2
}
 80a5a4a:	4770      	bx	lr
 80a5a4c:	ffce0088 	.word	0xffce0088
 80a5a50:	00100020 	.word	0x00100020
 80a5a54:	00100030 	.word	0x00100030

080a5a58 <TIM_CCxChannelCmd>:

  /* Check the parameters */
  assert_param(IS_TIM_CC1_INSTANCE(TIMx));
  assert_param(IS_TIM_CHANNELS(Channel));

  tmp = TIM_CCER_CC1E << (Channel & 0x1FU); /* 0x1FU = 31 bits max shift */
 80a5a58:	f001 011f 	and.w	r1, r1, #31
 80a5a5c:	f04f 0c01 	mov.w	ip, #1
 80a5a60:	fa0c fc01 	lsl.w	ip, ip, r1

  /* Reset the CCxE Bit */
  TIMx->CCER &= ~tmp;
 80a5a64:	6a03      	ldr	r3, [r0, #32]
 80a5a66:	ea23 030c 	bic.w	r3, r3, ip
 80a5a6a:	6203      	str	r3, [r0, #32]

  /* Set or reset the CCxE Bit */
  TIMx->CCER |= (uint32_t)(ChannelState << (Channel & 0x1FU)); /* 0x1FU = 31 bits max shift */
 80a5a6c:	6a03      	ldr	r3, [r0, #32]
 80a5a6e:	408a      	lsls	r2, r1
 80a5a70:	4313      	orrs	r3, r2
 80a5a72:	6203      	str	r3, [r0, #32]
}
 80a5a74:	4770      	bx	lr
	...

080a5a78 <HAL_TIM_PWM_Start>:
{
 80a5a78:	b510      	push	{r4, lr}
 80a5a7a:	4604      	mov	r4, r0
  if (TIM_CHANNEL_STATE_GET(htim, Channel) != HAL_TIM_CHANNEL_STATE_READY)
 80a5a7c:	2910      	cmp	r1, #16
 80a5a7e:	d83d      	bhi.n	80a5afc <HAL_TIM_PWM_Start+0x84>
 80a5a80:	e8df f001 	tbb	[pc, r1]
 80a5a84:	3c3c3c09 	.word	0x3c3c3c09
 80a5a88:	3c3c3c20 	.word	0x3c3c3c20
 80a5a8c:	3c3c3c27 	.word	0x3c3c3c27
 80a5a90:	3c3c3c2e 	.word	0x3c3c3c2e
 80a5a94:	35          	.byte	0x35
 80a5a95:	00          	.byte	0x00
 80a5a96:	f890 303e 	ldrb.w	r3, [r0, #62]	@ 0x3e
 80a5a9a:	b2db      	uxtb	r3, r3
 80a5a9c:	3b01      	subs	r3, #1
 80a5a9e:	bf18      	it	ne
 80a5aa0:	2301      	movne	r3, #1
 80a5aa2:	2b00      	cmp	r3, #0
 80a5aa4:	f040 8097 	bne.w	80a5bd6 <HAL_TIM_PWM_Start+0x15e>
  TIM_CHANNEL_STATE_SET(htim, Channel, HAL_TIM_CHANNEL_STATE_BUSY);
 80a5aa8:	2910      	cmp	r1, #16
 80a5aaa:	f200 8082 	bhi.w	80a5bb2 <HAL_TIM_PWM_Start+0x13a>
 80a5aae:	e8df f001 	tbb	[pc, r1]
 80a5ab2:	802c      	.short	0x802c
 80a5ab4:	80708080 	.word	0x80708080
 80a5ab8:	80748080 	.word	0x80748080
 80a5abc:	80788080 	.word	0x80788080
 80a5ac0:	8080      	.short	0x8080
 80a5ac2:	7c          	.byte	0x7c
 80a5ac3:	00          	.byte	0x00
  if (TIM_CHANNEL_STATE_GET(htim, Channel) != HAL_TIM_CHANNEL_STATE_READY)
 80a5ac4:	f890 303f 	ldrb.w	r3, [r0, #63]	@ 0x3f
 80a5ac8:	b2db      	uxtb	r3, r3
 80a5aca:	3b01      	subs	r3, #1
 80a5acc:	bf18      	it	ne
 80a5ace:	2301      	movne	r3, #1
 80a5ad0:	e7e7      	b.n	80a5aa2 <HAL_TIM_PWM_Start+0x2a>
 80a5ad2:	f890 3040 	ldrb.w	r3, [r0, #64]	@ 0x40
 80a5ad6:	b2db      	uxtb	r3, r3
 80a5ad8:	3b01      	subs	r3, #1
 80a5ada:	bf18      	it	ne
 80a5adc:	2301      	movne	r3, #1
 80a5ade:	e7e0      	b.n	80a5aa2 <HAL_TIM_PWM_Start+0x2a>
 80a5ae0:	f890 3041 	ldrb.w	r3, [r0, #65]	@ 0x41
 80a5ae4:	b2db      	uxtb	r3, r3
 80a5ae6:	3b01      	subs	r3, #1
 80a5ae8:	bf18      	it	ne
 80a5aea:	2301      	movne	r3, #1
 80a5aec:	e7d9      	b.n	80a5aa2 <HAL_TIM_PWM_Start+0x2a>
 80a5aee:	f890 3042 	ldrb.w	r3, [r0, #66]	@ 0x42
 80a5af2:	b2db      	uxtb	r3, r3
 80a5af4:	3b01      	subs	r3, #1
 80a5af6:	bf18      	it	ne
 80a5af8:	2301      	movne	r3, #1
 80a5afa:	e7d2      	b.n	80a5aa2 <HAL_TIM_PWM_Start+0x2a>
 80a5afc:	f890 3043 	ldrb.w	r3, [r0, #67]	@ 0x43
 80a5b00:	b2db      	uxtb	r3, r3
 80a5b02:	3b01      	subs	r3, #1
 80a5b04:	bf18      	it	ne
 80a5b06:	2301      	movne	r3, #1
 80a5b08:	e7cb      	b.n	80a5aa2 <HAL_TIM_PWM_Start+0x2a>
  TIM_CHANNEL_STATE_SET(htim, Channel, HAL_TIM_CHANNEL_STATE_BUSY);
 80a5b0a:	2302      	movs	r3, #2
 80a5b0c:	f884 303e 	strb.w	r3, [r4, #62]	@ 0x3e
  TIM_CCxChannelCmd(htim->Instance, Channel, TIM_CCx_ENABLE);
 80a5b10:	2201      	movs	r2, #1
 80a5b12:	6820      	ldr	r0, [r4, #0]
 80a5b14:	f7ff ffa0 	bl	80a5a58 <TIM_CCxChannelCmd>
  if (IS_TIM_BREAK_INSTANCE(htim->Instance) != RESET)
 80a5b18:	6823      	ldr	r3, [r4, #0]
 80a5b1a:	4a32      	ldr	r2, [pc, #200]	@ (80a5be4 <HAL_TIM_PWM_Start+0x16c>)
 80a5b1c:	4293      	cmp	r3, r2
 80a5b1e:	d00f      	beq.n	80a5b40 <HAL_TIM_PWM_Start+0xc8>
 80a5b20:	f502 6280 	add.w	r2, r2, #1024	@ 0x400
 80a5b24:	4293      	cmp	r3, r2
 80a5b26:	d00b      	beq.n	80a5b40 <HAL_TIM_PWM_Start+0xc8>
 80a5b28:	f502 5270 	add.w	r2, r2, #15360	@ 0x3c00
 80a5b2c:	4293      	cmp	r3, r2
 80a5b2e:	d007      	beq.n	80a5b40 <HAL_TIM_PWM_Start+0xc8>
 80a5b30:	f502 6280 	add.w	r2, r2, #1024	@ 0x400
 80a5b34:	4293      	cmp	r3, r2
 80a5b36:	d003      	beq.n	80a5b40 <HAL_TIM_PWM_Start+0xc8>
 80a5b38:	f502 6280 	add.w	r2, r2, #1024	@ 0x400
 80a5b3c:	4293      	cmp	r3, r2
 80a5b3e:	d103      	bne.n	80a5b48 <HAL_TIM_PWM_Start+0xd0>
    __HAL_TIM_MOE_ENABLE(htim);
 80a5b40:	6c5a      	ldr	r2, [r3, #68]	@ 0x44
 80a5b42:	f442 4200 	orr.w	r2, r2, #32768	@ 0x8000
 80a5b46:	645a      	str	r2, [r3, #68]	@ 0x44
  if (IS_TIM_SLAVE_INSTANCE(htim->Instance))
 80a5b48:	6823      	ldr	r3, [r4, #0]
 80a5b4a:	4a26      	ldr	r2, [pc, #152]	@ (80a5be4 <HAL_TIM_PWM_Start+0x16c>)
 80a5b4c:	4293      	cmp	r3, r2
 80a5b4e:	d034      	beq.n	80a5bba <HAL_TIM_PWM_Start+0x142>
 80a5b50:	f1b3 4f80 	cmp.w	r3, #1073741824	@ 0x40000000
 80a5b54:	d031      	beq.n	80a5bba <HAL_TIM_PWM_Start+0x142>
 80a5b56:	f5a2 427c 	sub.w	r2, r2, #64512	@ 0xfc00
 80a5b5a:	4293      	cmp	r3, r2
 80a5b5c:	d02d      	beq.n	80a5bba <HAL_TIM_PWM_Start+0x142>
 80a5b5e:	f502 6280 	add.w	r2, r2, #1024	@ 0x400
 80a5b62:	4293      	cmp	r3, r2
 80a5b64:	d029      	beq.n	80a5bba <HAL_TIM_PWM_Start+0x142>
 80a5b66:	f502 6280 	add.w	r2, r2, #1024	@ 0x400
 80a5b6a:	4293      	cmp	r3, r2
 80a5b6c:	d025      	beq.n	80a5bba <HAL_TIM_PWM_Start+0x142>
 80a5b6e:	f502 4278 	add.w	r2, r2, #63488	@ 0xf800
 80a5b72:	4293      	cmp	r3, r2
 80a5b74:	d021      	beq.n	80a5bba <HAL_TIM_PWM_Start+0x142>
 80a5b76:	f5a2 426c 	sub.w	r2, r2, #60416	@ 0xec00
 80a5b7a:	4293      	cmp	r3, r2
 80a5b7c:	d01d      	beq.n	80a5bba <HAL_TIM_PWM_Start+0x142>
 80a5b7e:	f502 3294 	add.w	r2, r2, #75776	@ 0x12800
 80a5b82:	4293      	cmp	r3, r2
 80a5b84:	d019      	beq.n	80a5bba <HAL_TIM_PWM_Start+0x142>
    __HAL_TIM_ENABLE(htim);
 80a5b86:	681a      	ldr	r2, [r3, #0]
 80a5b88:	f042 0201 	orr.w	r2, r2, #1
 80a5b8c:	601a      	str	r2, [r3, #0]
  return HAL_OK;
 80a5b8e:	2000      	movs	r0, #0
 80a5b90:	e022      	b.n	80a5bd8 <HAL_TIM_PWM_Start+0x160>
  TIM_CHANNEL_STATE_SET(htim, Channel, HAL_TIM_CHANNEL_STATE_BUSY);
 80a5b92:	2302      	movs	r3, #2
 80a5b94:	f884 303f 	strb.w	r3, [r4, #63]	@ 0x3f
 80a5b98:	e7ba      	b.n	80a5b10 <HAL_TIM_PWM_Start+0x98>
 80a5b9a:	2302      	movs	r3, #2
 80a5b9c:	f884 3040 	strb.w	r3, [r4, #64]	@ 0x40
 80a5ba0:	e7b6      	b.n	80a5b10 <HAL_TIM_PWM_Start+0x98>
 80a5ba2:	2302      	movs	r3, #2
 80a5ba4:	f884 3041 	strb.w	r3, [r4, #65]	@ 0x41
 80a5ba8:	e7b2      	b.n	80a5b10 <HAL_TIM_PWM_Start+0x98>
 80a5baa:	2302      	movs	r3, #2
 80a5bac:	f884 3042 	strb.w	r3, [r4, #66]	@ 0x42
 80a5bb0:	e7ae      	b.n	80a5b10 <HAL_TIM_PWM_Start+0x98>
 80a5bb2:	2302      	movs	r3, #2
 80a5bb4:	f884 3043 	strb.w	r3, [r4, #67]	@ 0x43
 80a5bb8:	e7aa      	b.n	80a5b10 <HAL_TIM_PWM_Start+0x98>
    tmpsmcr = htim->Instance->SMCR & TIM_SMCR_SMS;
 80a5bba:	6899      	ldr	r1, [r3, #8]
 80a5bbc:	4a0a      	ldr	r2, [pc, #40]	@ (80a5be8 <HAL_TIM_PWM_Start+0x170>)
 80a5bbe:	400a      	ands	r2, r1
    if (!IS_TIM_SLAVEMODE_TRIGGER_ENABLED(tmpsmcr))
 80a5bc0:	2a06      	cmp	r2, #6
 80a5bc2:	d00a      	beq.n	80a5bda <HAL_TIM_PWM_Start+0x162>
 80a5bc4:	f5b2 3f80 	cmp.w	r2, #65536	@ 0x10000
 80a5bc8:	d009      	beq.n	80a5bde <HAL_TIM_PWM_Start+0x166>
      __HAL_TIM_ENABLE(htim);
 80a5bca:	681a      	ldr	r2, [r3, #0]
 80a5bcc:	f042 0201 	orr.w	r2, r2, #1
 80a5bd0:	601a      	str	r2, [r3, #0]
  return HAL_OK;
 80a5bd2:	2000      	movs	r0, #0
 80a5bd4:	e000      	b.n	80a5bd8 <HAL_TIM_PWM_Start+0x160>
    return HAL_ERROR;
 80a5bd6:	2001      	movs	r0, #1
}
 80a5bd8:	bd10      	pop	{r4, pc}
  return HAL_OK;
 80a5bda:	2000      	movs	r0, #0
 80a5bdc:	e7fc      	b.n	80a5bd8 <HAL_TIM_PWM_Start+0x160>
 80a5bde:	2000      	movs	r0, #0
 80a5be0:	e7fa      	b.n	80a5bd8 <HAL_TIM_PWM_Start+0x160>
 80a5be2:	bf00      	nop
 80a5be4:	40010000 	.word	0x40010000
 80a5be8:	00010007 	.word	0x00010007

080a5bec <HAL_TIM_PWM_Stop>:
{
 80a5bec:	b538      	push	{r3, r4, r5, lr}
 80a5bee:	4604      	mov	r4, r0
 80a5bf0:	460d      	mov	r5, r1
  TIM_CCxChannelCmd(htim->Instance, Channel, TIM_CCx_DISABLE);
 80a5bf2:	2200      	movs	r2, #0
 80a5bf4:	6800      	ldr	r0, [r0, #0]
 80a5bf6:	f7ff ff2f 	bl	80a5a58 <TIM_CCxChannelCmd>
  if (IS_TIM_BREAK_INSTANCE(htim->Instance) != RESET)
 80a5bfa:	6823      	ldr	r3, [r4, #0]
 80a5bfc:	4a2a      	ldr	r2, [pc, #168]	@ (80a5ca8 <HAL_TIM_PWM_Stop+0xbc>)
 80a5bfe:	4293      	cmp	r3, r2
 80a5c00:	d00f      	beq.n	80a5c22 <HAL_TIM_PWM_Stop+0x36>
 80a5c02:	f502 6280 	add.w	r2, r2, #1024	@ 0x400
 80a5c06:	4293      	cmp	r3, r2
 80a5c08:	d00b      	beq.n	80a5c22 <HAL_TIM_PWM_Stop+0x36>
 80a5c0a:	f502 5270 	add.w	r2, r2, #15360	@ 0x3c00
 80a5c0e:	4293      	cmp	r3, r2
 80a5c10:	d007      	beq.n	80a5c22 <HAL_TIM_PWM_Stop+0x36>
 80a5c12:	f502 6280 	add.w	r2, r2, #1024	@ 0x400
 80a5c16:	4293      	cmp	r3, r2
 80a5c18:	d003      	beq.n	80a5c22 <HAL_TIM_PWM_Stop+0x36>
 80a5c1a:	f502 6280 	add.w	r2, r2, #1024	@ 0x400
 80a5c1e:	4293      	cmp	r3, r2
 80a5c20:	d10d      	bne.n	80a5c3e <HAL_TIM_PWM_Stop+0x52>
    __HAL_TIM_MOE_DISABLE(htim);
 80a5c22:	6a19      	ldr	r1, [r3, #32]
 80a5c24:	f241 1211 	movw	r2, #4369	@ 0x1111
 80a5c28:	4211      	tst	r1, r2
 80a5c2a:	d108      	bne.n	80a5c3e <HAL_TIM_PWM_Stop+0x52>
 80a5c2c:	6a19      	ldr	r1, [r3, #32]
 80a5c2e:	f240 4244 	movw	r2, #1092	@ 0x444
 80a5c32:	4211      	tst	r1, r2
 80a5c34:	d103      	bne.n	80a5c3e <HAL_TIM_PWM_Stop+0x52>
 80a5c36:	6c5a      	ldr	r2, [r3, #68]	@ 0x44
 80a5c38:	f422 4200 	bic.w	r2, r2, #32768	@ 0x8000
 80a5c3c:	645a      	str	r2, [r3, #68]	@ 0x44
  __HAL_TIM_DISABLE(htim);
 80a5c3e:	6823      	ldr	r3, [r4, #0]
 80a5c40:	6a19      	ldr	r1, [r3, #32]
 80a5c42:	f241 1211 	movw	r2, #4369	@ 0x1111
 80a5c46:	4211      	tst	r1, r2
 80a5c48:	d108      	bne.n	80a5c5c <HAL_TIM_PWM_Stop+0x70>
 80a5c4a:	6a19      	ldr	r1, [r3, #32]
 80a5c4c:	f240 4244 	movw	r2, #1092	@ 0x444
 80a5c50:	4211      	tst	r1, r2
 80a5c52:	d103      	bne.n	80a5c5c <HAL_TIM_PWM_Stop+0x70>
 80a5c54:	681a      	ldr	r2, [r3, #0]
 80a5c56:	f022 0201 	bic.w	r2, r2, #1
 80a5c5a:	601a      	str	r2, [r3, #0]
  TIM_CHANNEL_STATE_SET(htim, Channel, HAL_TIM_CHANNEL_STATE_READY);
 80a5c5c:	2d10      	cmp	r5, #16
 80a5c5e:	d81f      	bhi.n	80a5ca0 <HAL_TIM_PWM_Stop+0xb4>
 80a5c60:	e8df f005 	tbb	[pc, r5]
 80a5c64:	1e1e1e09 	.word	0x1e1e1e09
 80a5c68:	1e1e1e0e 	.word	0x1e1e1e0e
 80a5c6c:	1e1e1e12 	.word	0x1e1e1e12
 80a5c70:	1e1e1e16 	.word	0x1e1e1e16
 80a5c74:	1a          	.byte	0x1a
 80a5c75:	00          	.byte	0x00
 80a5c76:	2301      	movs	r3, #1
 80a5c78:	f884 303e 	strb.w	r3, [r4, #62]	@ 0x3e
}
 80a5c7c:	2000      	movs	r0, #0
 80a5c7e:	bd38      	pop	{r3, r4, r5, pc}
  TIM_CHANNEL_STATE_SET(htim, Channel, HAL_TIM_CHANNEL_STATE_READY);
 80a5c80:	2301      	movs	r3, #1
 80a5c82:	f884 303f 	strb.w	r3, [r4, #63]	@ 0x3f
 80a5c86:	e7f9      	b.n	80a5c7c <HAL_TIM_PWM_Stop+0x90>
 80a5c88:	2301      	movs	r3, #1
 80a5c8a:	f884 3040 	strb.w	r3, [r4, #64]	@ 0x40
 80a5c8e:	e7f5      	b.n	80a5c7c <HAL_TIM_PWM_Stop+0x90>
 80a5c90:	2301      	movs	r3, #1
 80a5c92:	f884 3041 	strb.w	r3, [r4, #65]	@ 0x41
 80a5c96:	e7f1      	b.n	80a5c7c <HAL_TIM_PWM_Stop+0x90>
 80a5c98:	2301      	movs	r3, #1
 80a5c9a:	f884 3042 	strb.w	r3, [r4, #66]	@ 0x42
 80a5c9e:	e7ed      	b.n	80a5c7c <HAL_TIM_PWM_Stop+0x90>
 80a5ca0:	2301      	movs	r3, #1
 80a5ca2:	f884 3043 	strb.w	r3, [r4, #67]	@ 0x43
 80a5ca6:	e7e9      	b.n	80a5c7c <HAL_TIM_PWM_Stop+0x90>
 80a5ca8:	40010000 	.word	0x40010000

080a5cac <HAL_TIMEx_MasterConfigSynchronization>:
  assert_param(IS_TIM_MASTER_INSTANCE(htim->Instance));
  assert_param(IS_TIM_TRGO_SOURCE(sMasterConfig->MasterOutputTrigger));
  assert_param(IS_TIM_MSM_STATE(sMasterConfig->MasterSlaveMode));

  /* Check input state */
  __HAL_LOCK(htim);
 80a5cac:	f890 203c 	ldrb.w	r2, [r0, #60]	@ 0x3c
 80a5cb0:	2a01      	cmp	r2, #1
 80a5cb2:	d046      	beq.n	80a5d42 <HAL_TIMEx_MasterConfigSynchronization+0x96>
{
 80a5cb4:	b430      	push	{r4, r5}
 80a5cb6:	4603      	mov	r3, r0
  __HAL_LOCK(htim);
 80a5cb8:	2201      	movs	r2, #1
 80a5cba:	f880 203c 	strb.w	r2, [r0, #60]	@ 0x3c

  /* Change the handler state */
  htim->State = HAL_TIM_STATE_BUSY;
 80a5cbe:	2202      	movs	r2, #2
 80a5cc0:	f880 203d 	strb.w	r2, [r0, #61]	@ 0x3d

  /* Get the TIMx CR2 register value */
  tmpcr2 = htim->Instance->CR2;
 80a5cc4:	6800      	ldr	r0, [r0, #0]
 80a5cc6:	6842      	ldr	r2, [r0, #4]

  /* Get the TIMx SMCR register value */
  tmpsmcr = htim->Instance->SMCR;
 80a5cc8:	6884      	ldr	r4, [r0, #8]

  /* If the timer supports ADC synchronization through TRGO2, set the master mode selection 2 */
  if (IS_TIM_TRGO2_INSTANCE(htim->Instance))
 80a5cca:	4d1f      	ldr	r5, [pc, #124]	@ (80a5d48 <HAL_TIMEx_MasterConfigSynchronization+0x9c>)
 80a5ccc:	42a8      	cmp	r0, r5
 80a5cce:	d003      	beq.n	80a5cd8 <HAL_TIMEx_MasterConfigSynchronization+0x2c>
 80a5cd0:	f505 6580 	add.w	r5, r5, #1024	@ 0x400
 80a5cd4:	42a8      	cmp	r0, r5
 80a5cd6:	d103      	bne.n	80a5ce0 <HAL_TIMEx_MasterConfigSynchronization+0x34>
  {
    /* Check the parameters */
    assert_param(IS_TIM_TRGO2_SOURCE(sMasterConfig->MasterOutputTrigger2));

    /* Clear the MMS2 bits */
    tmpcr2 &= ~TIM_CR2_MMS2;
 80a5cd8:	f422 0270 	bic.w	r2, r2, #15728640	@ 0xf00000
    /* Select the TRGO2 source*/
    tmpcr2 |= sMasterConfig->MasterOutputTrigger2;
 80a5cdc:	684d      	ldr	r5, [r1, #4]
 80a5cde:	432a      	orrs	r2, r5
  }

  /* Reset the MMS Bits */
  tmpcr2 &= ~TIM_CR2_MMS;
 80a5ce0:	f022 0270 	bic.w	r2, r2, #112	@ 0x70
  /* Select the TRGO source */
  tmpcr2 |=  sMasterConfig->MasterOutputTrigger;
 80a5ce4:	680d      	ldr	r5, [r1, #0]
 80a5ce6:	432a      	orrs	r2, r5

  /* Update TIMx CR2 */
  htim->Instance->CR2 = tmpcr2;
 80a5ce8:	6042      	str	r2, [r0, #4]

  if (IS_TIM_SLAVE_INSTANCE(htim->Instance))
 80a5cea:	681a      	ldr	r2, [r3, #0]
 80a5cec:	4816      	ldr	r0, [pc, #88]	@ (80a5d48 <HAL_TIMEx_MasterConfigSynchronization+0x9c>)
 80a5cee:	4282      	cmp	r2, r0
 80a5cf0:	d01a      	beq.n	80a5d28 <HAL_TIMEx_MasterConfigSynchronization+0x7c>
 80a5cf2:	f1b2 4f80 	cmp.w	r2, #1073741824	@ 0x40000000
 80a5cf6:	d017      	beq.n	80a5d28 <HAL_TIMEx_MasterConfigSynchronization+0x7c>
 80a5cf8:	f5a0 407c 	sub.w	r0, r0, #64512	@ 0xfc00
 80a5cfc:	4282      	cmp	r2, r0
 80a5cfe:	d013      	beq.n	80a5d28 <HAL_TIMEx_MasterConfigSynchronization+0x7c>
 80a5d00:	f500 6080 	add.w	r0, r0, #1024	@ 0x400
 80a5d04:	4282      	cmp	r2, r0
 80a5d06:	d00f      	beq.n	80a5d28 <HAL_TIMEx_MasterConfigSynchronization+0x7c>
 80a5d08:	f500 6080 	add.w	r0, r0, #1024	@ 0x400
 80a5d0c:	4282      	cmp	r2, r0
 80a5d0e:	d00b      	beq.n	80a5d28 <HAL_TIMEx_MasterConfigSynchronization+0x7c>
 80a5d10:	f500 4078 	add.w	r0, r0, #63488	@ 0xf800
 80a5d14:	4282      	cmp	r2, r0
 80a5d16:	d007      	beq.n	80a5d28 <HAL_TIMEx_MasterConfigSynchronization+0x7c>
 80a5d18:	f5a0 406c 	sub.w	r0, r0, #60416	@ 0xec00
 80a5d1c:	4282      	cmp	r2, r0
 80a5d1e:	d003      	beq.n	80a5d28 <HAL_TIMEx_MasterConfigSynchronization+0x7c>
 80a5d20:	f500 3094 	add.w	r0, r0, #75776	@ 0x12800
 80a5d24:	4282      	cmp	r2, r0
 80a5d26:	d104      	bne.n	80a5d32 <HAL_TIMEx_MasterConfigSynchronization+0x86>
  {
    /* Reset the MSM Bit */
    tmpsmcr &= ~TIM_SMCR_MSM;
 80a5d28:	f024 0480 	bic.w	r4, r4, #128	@ 0x80
    /* Set master mode */
    tmpsmcr |= sMasterConfig->MasterSlaveMode;
 80a5d2c:	6889      	ldr	r1, [r1, #8]
 80a5d2e:	4321      	orrs	r1, r4

    /* Update TIMx SMCR */
    htim->Instance->SMCR = tmpsmcr;
 80a5d30:	6091      	str	r1, [r2, #8]
  }

  /* Change the htim state */
  htim->State = HAL_TIM_STATE_READY;
 80a5d32:	2201      	movs	r2, #1
 80a5d34:	f883 203d 	strb.w	r2, [r3, #61]	@ 0x3d

  __HAL_UNLOCK(htim);
 80a5d38:	2000      	movs	r0, #0
 80a5d3a:	f883 003c 	strb.w	r0, [r3, #60]	@ 0x3c

  return HAL_OK;
}
 80a5d3e:	bc30      	pop	{r4, r5}
 80a5d40:	4770      	bx	lr
  __HAL_LOCK(htim);
 80a5d42:	2002      	movs	r0, #2
}
 80a5d44:	4770      	bx	lr
 80a5d46:	bf00      	nop
 80a5d48:	40010000 	.word	0x40010000

080a5d4c <memset>:
 80a5d4c:	4402      	add	r2, r0
 80a5d4e:	4603      	mov	r3, r0
 80a5d50:	4293      	cmp	r3, r2
 80a5d52:	d100      	bne.n	80a5d56 <memset+0xa>
 80a5d54:	4770      	bx	lr
 80a5d56:	f803 1b01 	strb.w	r1, [r3], #1
 80a5d5a:	e7f9      	b.n	80a5d50 <memset+0x4>

080a5d5c <__libc_init_array>:
 80a5d5c:	b570      	push	{r4, r5, r6, lr}
 80a5d5e:	4d0d      	ldr	r5, [pc, #52]	@ (80a5d94 <__libc_init_array+0x38>)
 80a5d60:	4c0d      	ldr	r4, [pc, #52]	@ (80a5d98 <__libc_init_array+0x3c>)
 80a5d62:	1b64      	subs	r4, r4, r5
 80a5d64:	10a4      	asrs	r4, r4, #2
 80a5d66:	2600      	movs	r6, #0
 80a5d68:	42a6      	cmp	r6, r4
 80a5d6a:	d109      	bne.n	80a5d80 <__libc_init_array+0x24>
 80a5d6c:	4d0b      	ldr	r5, [pc, #44]	@ (80a5d9c <__libc_init_array+0x40>)
 80a5d6e:	4c0c      	ldr	r4, [pc, #48]	@ (80a5da0 <__libc_init_array+0x44>)
 80a5d70:	f000 f826 	bl	80a5dc0 <_init>
 80a5d74:	1b64      	subs	r4, r4, r5
 80a5d76:	10a4      	asrs	r4, r4, #2
 80a5d78:	2600      	movs	r6, #0
 80a5d7a:	42a6      	cmp	r6, r4
 80a5d7c:	d105      	bne.n	80a5d8a <__libc_init_array+0x2e>
 80a5d7e:	bd70      	pop	{r4, r5, r6, pc}
 80a5d80:	f855 3b04 	ldr.w	r3, [r5], #4
 80a5d84:	4798      	blx	r3
 80a5d86:	3601      	adds	r6, #1
 80a5d88:	e7ee      	b.n	80a5d68 <__libc_init_array+0xc>
 80a5d8a:	f855 3b04 	ldr.w	r3, [r5], #4
 80a5d8e:	4798      	blx	r3
 80a5d90:	3601      	adds	r6, #1
 80a5d92:	e7f2      	b.n	80a5d7a <__libc_init_array+0x1e>
 80a5d94:	080a5df0 	.word	0x080a5df0
 80a5d98:	080a5df0 	.word	0x080a5df0
 80a5d9c:	080a5df0 	.word	0x080a5df0
 80a5da0:	080a5df4 	.word	0x080a5df4

080a5da4 <memcpy>:
 80a5da4:	440a      	add	r2, r1
 80a5da6:	4291      	cmp	r1, r2
 80a5da8:	f100 33ff 	add.w	r3, r0, #4294967295
 80a5dac:	d100      	bne.n	80a5db0 <memcpy+0xc>
 80a5dae:	4770      	bx	lr
 80a5db0:	b510      	push	{r4, lr}
 80a5db2:	f811 4b01 	ldrb.w	r4, [r1], #1
 80a5db6:	f803 4f01 	strb.w	r4, [r3, #1]!
 80a5dba:	4291      	cmp	r1, r2
 80a5dbc:	d1f9      	bne.n	80a5db2 <memcpy+0xe>
 80a5dbe:	bd10      	pop	{r4, pc}

080a5dc0 <_init>:
 80a5dc0:	b5f8      	push	{r3, r4, r5, r6, r7, lr}
 80a5dc2:	bf00      	nop
 80a5dc4:	bcf8      	pop	{r3, r4, r5, r6, r7}
 80a5dc6:	bc08      	pop	{r3}
 80a5dc8:	469e      	mov	lr, r3
 80a5dca:	4770      	bx	lr

080a5dcc <_fini>:
 80a5dcc:	b5f8      	push	{r3, r4, r5, r6, r7, lr}
 80a5dce:	bf00      	nop
 80a5dd0:	bcf8      	pop	{r3, r4, r5, r6, r7}
 80a5dd2:	bc08      	pop	{r3}
 80a5dd4:	469e      	mov	lr, r3
 80a5dd6:	4770      	bx	lr
